; ModuleID = '/src/llvm-test-suite/build/SingleSource/Benchmarks/Adobe-C++/loop_unroll.e.bc'
source_filename = "ld-temp.o"
target datalayout = "e-m:e-p270:32:32-p271:32:32-p272:64:64-i64:64-f80:128-n8:16:32:64-S128"
target triple = "x86_64-unknown-linux-gnu"

%struct.one_result = type { double, ptr }

$_ZN14for_loop_testsILi31EiE7do_testEPKiPKc = comdat any

$_Z27test_for_loop_unroll_factorILi32EiEvPKT0_iPKc = comdat any

$_ZN16while_loop_testsILi31EiE7do_testEPKiPKc = comdat any

$_Z29test_while_loop_unroll_factorILi32EiEvPKT0_iPKc = comdat any

$_ZN13do_loop_testsILi31EiE7do_testEPKiPKc = comdat any

$_Z26test_do_loop_unroll_factorILi32EiEvPKT0_iPKc = comdat any

$_ZN15goto_loop_testsILi31EiE7do_testEPKiPKc = comdat any

$_Z28test_goto_loop_unroll_factorILi32EiEvPKT0_iPKc = comdat any

$_ZN14for_loop_testsILi31EdE7do_testEPKdPKc = comdat any

$_Z27test_for_loop_unroll_factorILi32EdEvPKT0_iPKc = comdat any

$_ZN16while_loop_testsILi31EdE7do_testEPKdPKc = comdat any

$_Z29test_while_loop_unroll_factorILi32EdEvPKT0_iPKc = comdat any

$_ZN13do_loop_testsILi31EdE7do_testEPKdPKc = comdat any

$_Z26test_do_loop_unroll_factorILi32EdEvPKT0_iPKc = comdat any

$_ZN15goto_loop_testsILi31EdE7do_testEPKdPKc = comdat any

$_Z28test_goto_loop_unroll_factorILi32EdEvPKT0_iPKc = comdat any

$_ZN15loop_inner_bodyILi28EdE7do_workERdPKdi = comdat any

$_ZN15loop_inner_bodyILi19EdE7do_workERdPKdi = comdat any

$_ZN15loop_inner_bodyILi10EdE7do_workERdPKdi = comdat any

$_ZN15goto_loop_testsILi29EdE7do_testEPKdPKc = comdat any

$_Z28test_goto_loop_unroll_factorILi30EdEvPKT0_iPKc = comdat any

$_Z28test_goto_loop_unroll_factorILi31EdEvPKT0_iPKc = comdat any

$_ZN15goto_loop_testsILi27EdE7do_testEPKdPKc = comdat any

$_Z28test_goto_loop_unroll_factorILi28EdEvPKT0_iPKc = comdat any

$_Z28test_goto_loop_unroll_factorILi29EdEvPKT0_iPKc = comdat any

$_ZN15goto_loop_testsILi25EdE7do_testEPKdPKc = comdat any

$_Z28test_goto_loop_unroll_factorILi26EdEvPKT0_iPKc = comdat any

$_Z28test_goto_loop_unroll_factorILi27EdEvPKT0_iPKc = comdat any

$_ZN15goto_loop_testsILi23EdE7do_testEPKdPKc = comdat any

$_Z28test_goto_loop_unroll_factorILi24EdEvPKT0_iPKc = comdat any

$_Z28test_goto_loop_unroll_factorILi25EdEvPKT0_iPKc = comdat any

$_ZN15goto_loop_testsILi21EdE7do_testEPKdPKc = comdat any

$_Z28test_goto_loop_unroll_factorILi22EdEvPKT0_iPKc = comdat any

$_Z28test_goto_loop_unroll_factorILi23EdEvPKT0_iPKc = comdat any

$_ZN15goto_loop_testsILi19EdE7do_testEPKdPKc = comdat any

$_Z28test_goto_loop_unroll_factorILi20EdEvPKT0_iPKc = comdat any

$_Z28test_goto_loop_unroll_factorILi21EdEvPKT0_iPKc = comdat any

$_ZN15goto_loop_testsILi17EdE7do_testEPKdPKc = comdat any

$_Z28test_goto_loop_unroll_factorILi18EdEvPKT0_iPKc = comdat any

$_Z28test_goto_loop_unroll_factorILi19EdEvPKT0_iPKc = comdat any

$_ZN15goto_loop_testsILi15EdE7do_testEPKdPKc = comdat any

$_Z28test_goto_loop_unroll_factorILi16EdEvPKT0_iPKc = comdat any

$_Z28test_goto_loop_unroll_factorILi17EdEvPKT0_iPKc = comdat any

$_ZN15goto_loop_testsILi13EdE7do_testEPKdPKc = comdat any

$_Z28test_goto_loop_unroll_factorILi14EdEvPKT0_iPKc = comdat any

$_Z28test_goto_loop_unroll_factorILi15EdEvPKT0_iPKc = comdat any

$_ZN15goto_loop_testsILi11EdE7do_testEPKdPKc = comdat any

$_Z28test_goto_loop_unroll_factorILi12EdEvPKT0_iPKc = comdat any

$_Z28test_goto_loop_unroll_factorILi13EdEvPKT0_iPKc = comdat any

$_ZN15goto_loop_testsILi9EdE7do_testEPKdPKc = comdat any

$_Z28test_goto_loop_unroll_factorILi10EdEvPKT0_iPKc = comdat any

$_Z28test_goto_loop_unroll_factorILi11EdEvPKT0_iPKc = comdat any

$_ZN15goto_loop_testsILi7EdE7do_testEPKdPKc = comdat any

$_Z28test_goto_loop_unroll_factorILi8EdEvPKT0_iPKc = comdat any

$_Z28test_goto_loop_unroll_factorILi9EdEvPKT0_iPKc = comdat any

$_ZN15goto_loop_testsILi5EdE7do_testEPKdPKc = comdat any

$_Z28test_goto_loop_unroll_factorILi6EdEvPKT0_iPKc = comdat any

$_Z28test_goto_loop_unroll_factorILi7EdEvPKT0_iPKc = comdat any

$_ZN15goto_loop_testsILi3EdE7do_testEPKdPKc = comdat any

$_Z28test_goto_loop_unroll_factorILi4EdEvPKT0_iPKc = comdat any

$_Z28test_goto_loop_unroll_factorILi5EdEvPKT0_iPKc = comdat any

$_Z28test_goto_loop_unroll_factorILi1EdEvPKT0_iPKc = comdat any

$_Z28test_goto_loop_unroll_factorILi2EdEvPKT0_iPKc = comdat any

$_Z28test_goto_loop_unroll_factorILi3EdEvPKT0_iPKc = comdat any

$_ZN13do_loop_testsILi29EdE7do_testEPKdPKc = comdat any

$_Z26test_do_loop_unroll_factorILi30EdEvPKT0_iPKc = comdat any

$_Z26test_do_loop_unroll_factorILi31EdEvPKT0_iPKc = comdat any

$_ZN13do_loop_testsILi27EdE7do_testEPKdPKc = comdat any

$_Z26test_do_loop_unroll_factorILi28EdEvPKT0_iPKc = comdat any

$_Z26test_do_loop_unroll_factorILi29EdEvPKT0_iPKc = comdat any

$_ZN13do_loop_testsILi25EdE7do_testEPKdPKc = comdat any

$_Z26test_do_loop_unroll_factorILi26EdEvPKT0_iPKc = comdat any

$_Z26test_do_loop_unroll_factorILi27EdEvPKT0_iPKc = comdat any

$_ZN13do_loop_testsILi23EdE7do_testEPKdPKc = comdat any

$_Z26test_do_loop_unroll_factorILi24EdEvPKT0_iPKc = comdat any

$_Z26test_do_loop_unroll_factorILi25EdEvPKT0_iPKc = comdat any

$_ZN13do_loop_testsILi21EdE7do_testEPKdPKc = comdat any

$_Z26test_do_loop_unroll_factorILi22EdEvPKT0_iPKc = comdat any

$_Z26test_do_loop_unroll_factorILi23EdEvPKT0_iPKc = comdat any

$_ZN13do_loop_testsILi19EdE7do_testEPKdPKc = comdat any

$_Z26test_do_loop_unroll_factorILi20EdEvPKT0_iPKc = comdat any

$_Z26test_do_loop_unroll_factorILi21EdEvPKT0_iPKc = comdat any

$_ZN13do_loop_testsILi17EdE7do_testEPKdPKc = comdat any

$_Z26test_do_loop_unroll_factorILi18EdEvPKT0_iPKc = comdat any

$_Z26test_do_loop_unroll_factorILi19EdEvPKT0_iPKc = comdat any

$_ZN13do_loop_testsILi15EdE7do_testEPKdPKc = comdat any

$_Z26test_do_loop_unroll_factorILi16EdEvPKT0_iPKc = comdat any

$_Z26test_do_loop_unroll_factorILi17EdEvPKT0_iPKc = comdat any

$_ZN13do_loop_testsILi13EdE7do_testEPKdPKc = comdat any

$_Z26test_do_loop_unroll_factorILi14EdEvPKT0_iPKc = comdat any

$_Z26test_do_loop_unroll_factorILi15EdEvPKT0_iPKc = comdat any

$_ZN13do_loop_testsILi11EdE7do_testEPKdPKc = comdat any

$_Z26test_do_loop_unroll_factorILi12EdEvPKT0_iPKc = comdat any

$_Z26test_do_loop_unroll_factorILi13EdEvPKT0_iPKc = comdat any

$_ZN13do_loop_testsILi9EdE7do_testEPKdPKc = comdat any

$_Z26test_do_loop_unroll_factorILi10EdEvPKT0_iPKc = comdat any

$_Z26test_do_loop_unroll_factorILi11EdEvPKT0_iPKc = comdat any

$_ZN13do_loop_testsILi7EdE7do_testEPKdPKc = comdat any

$_Z26test_do_loop_unroll_factorILi8EdEvPKT0_iPKc = comdat any

$_Z26test_do_loop_unroll_factorILi9EdEvPKT0_iPKc = comdat any

$_ZN13do_loop_testsILi5EdE7do_testEPKdPKc = comdat any

$_Z26test_do_loop_unroll_factorILi6EdEvPKT0_iPKc = comdat any

$_Z26test_do_loop_unroll_factorILi7EdEvPKT0_iPKc = comdat any

$_ZN13do_loop_testsILi3EdE7do_testEPKdPKc = comdat any

$_Z26test_do_loop_unroll_factorILi4EdEvPKT0_iPKc = comdat any

$_Z26test_do_loop_unroll_factorILi5EdEvPKT0_iPKc = comdat any

$_Z26test_do_loop_unroll_factorILi1EdEvPKT0_iPKc = comdat any

$_Z26test_do_loop_unroll_factorILi2EdEvPKT0_iPKc = comdat any

$_Z26test_do_loop_unroll_factorILi3EdEvPKT0_iPKc = comdat any

$_ZN16while_loop_testsILi29EdE7do_testEPKdPKc = comdat any

$_Z29test_while_loop_unroll_factorILi30EdEvPKT0_iPKc = comdat any

$_Z29test_while_loop_unroll_factorILi31EdEvPKT0_iPKc = comdat any

$_ZN16while_loop_testsILi27EdE7do_testEPKdPKc = comdat any

$_Z29test_while_loop_unroll_factorILi28EdEvPKT0_iPKc = comdat any

$_Z29test_while_loop_unroll_factorILi29EdEvPKT0_iPKc = comdat any

$_ZN16while_loop_testsILi25EdE7do_testEPKdPKc = comdat any

$_Z29test_while_loop_unroll_factorILi26EdEvPKT0_iPKc = comdat any

$_Z29test_while_loop_unroll_factorILi27EdEvPKT0_iPKc = comdat any

$_ZN16while_loop_testsILi23EdE7do_testEPKdPKc = comdat any

$_Z29test_while_loop_unroll_factorILi24EdEvPKT0_iPKc = comdat any

$_Z29test_while_loop_unroll_factorILi25EdEvPKT0_iPKc = comdat any

$_ZN16while_loop_testsILi21EdE7do_testEPKdPKc = comdat any

$_Z29test_while_loop_unroll_factorILi22EdEvPKT0_iPKc = comdat any

$_Z29test_while_loop_unroll_factorILi23EdEvPKT0_iPKc = comdat any

$_ZN16while_loop_testsILi19EdE7do_testEPKdPKc = comdat any

$_Z29test_while_loop_unroll_factorILi20EdEvPKT0_iPKc = comdat any

$_Z29test_while_loop_unroll_factorILi21EdEvPKT0_iPKc = comdat any

$_ZN16while_loop_testsILi17EdE7do_testEPKdPKc = comdat any

$_Z29test_while_loop_unroll_factorILi18EdEvPKT0_iPKc = comdat any

$_Z29test_while_loop_unroll_factorILi19EdEvPKT0_iPKc = comdat any

$_ZN16while_loop_testsILi15EdE7do_testEPKdPKc = comdat any

$_Z29test_while_loop_unroll_factorILi16EdEvPKT0_iPKc = comdat any

$_Z29test_while_loop_unroll_factorILi17EdEvPKT0_iPKc = comdat any

$_ZN16while_loop_testsILi13EdE7do_testEPKdPKc = comdat any

$_Z29test_while_loop_unroll_factorILi14EdEvPKT0_iPKc = comdat any

$_Z29test_while_loop_unroll_factorILi15EdEvPKT0_iPKc = comdat any

$_ZN16while_loop_testsILi11EdE7do_testEPKdPKc = comdat any

$_Z29test_while_loop_unroll_factorILi12EdEvPKT0_iPKc = comdat any

$_Z29test_while_loop_unroll_factorILi13EdEvPKT0_iPKc = comdat any

$_ZN16while_loop_testsILi9EdE7do_testEPKdPKc = comdat any

$_Z29test_while_loop_unroll_factorILi10EdEvPKT0_iPKc = comdat any

$_Z29test_while_loop_unroll_factorILi11EdEvPKT0_iPKc = comdat any

$_ZN16while_loop_testsILi7EdE7do_testEPKdPKc = comdat any

$_Z29test_while_loop_unroll_factorILi8EdEvPKT0_iPKc = comdat any

$_Z29test_while_loop_unroll_factorILi9EdEvPKT0_iPKc = comdat any

$_ZN16while_loop_testsILi5EdE7do_testEPKdPKc = comdat any

$_Z29test_while_loop_unroll_factorILi6EdEvPKT0_iPKc = comdat any

$_Z29test_while_loop_unroll_factorILi7EdEvPKT0_iPKc = comdat any

$_ZN16while_loop_testsILi3EdE7do_testEPKdPKc = comdat any

$_Z29test_while_loop_unroll_factorILi4EdEvPKT0_iPKc = comdat any

$_Z29test_while_loop_unroll_factorILi5EdEvPKT0_iPKc = comdat any

$_Z29test_while_loop_unroll_factorILi1EdEvPKT0_iPKc = comdat any

$_Z29test_while_loop_unroll_factorILi2EdEvPKT0_iPKc = comdat any

$_Z29test_while_loop_unroll_factorILi3EdEvPKT0_iPKc = comdat any

$_ZN14for_loop_testsILi29EdE7do_testEPKdPKc = comdat any

$_Z27test_for_loop_unroll_factorILi30EdEvPKT0_iPKc = comdat any

$_Z27test_for_loop_unroll_factorILi31EdEvPKT0_iPKc = comdat any

$_ZN14for_loop_testsILi27EdE7do_testEPKdPKc = comdat any

$_Z27test_for_loop_unroll_factorILi28EdEvPKT0_iPKc = comdat any

$_Z27test_for_loop_unroll_factorILi29EdEvPKT0_iPKc = comdat any

$_ZN14for_loop_testsILi25EdE7do_testEPKdPKc = comdat any

$_Z27test_for_loop_unroll_factorILi26EdEvPKT0_iPKc = comdat any

$_Z27test_for_loop_unroll_factorILi27EdEvPKT0_iPKc = comdat any

$_ZN14for_loop_testsILi23EdE7do_testEPKdPKc = comdat any

$_Z27test_for_loop_unroll_factorILi24EdEvPKT0_iPKc = comdat any

$_Z27test_for_loop_unroll_factorILi25EdEvPKT0_iPKc = comdat any

$_ZN14for_loop_testsILi21EdE7do_testEPKdPKc = comdat any

$_Z27test_for_loop_unroll_factorILi22EdEvPKT0_iPKc = comdat any

$_Z27test_for_loop_unroll_factorILi23EdEvPKT0_iPKc = comdat any

$_ZN14for_loop_testsILi19EdE7do_testEPKdPKc = comdat any

$_Z27test_for_loop_unroll_factorILi20EdEvPKT0_iPKc = comdat any

$_Z27test_for_loop_unroll_factorILi21EdEvPKT0_iPKc = comdat any

$_ZN14for_loop_testsILi17EdE7do_testEPKdPKc = comdat any

$_Z27test_for_loop_unroll_factorILi18EdEvPKT0_iPKc = comdat any

$_Z27test_for_loop_unroll_factorILi19EdEvPKT0_iPKc = comdat any

$_ZN14for_loop_testsILi15EdE7do_testEPKdPKc = comdat any

$_Z27test_for_loop_unroll_factorILi16EdEvPKT0_iPKc = comdat any

$_Z27test_for_loop_unroll_factorILi17EdEvPKT0_iPKc = comdat any

$_ZN14for_loop_testsILi13EdE7do_testEPKdPKc = comdat any

$_Z27test_for_loop_unroll_factorILi14EdEvPKT0_iPKc = comdat any

$_Z27test_for_loop_unroll_factorILi15EdEvPKT0_iPKc = comdat any

$_ZN14for_loop_testsILi11EdE7do_testEPKdPKc = comdat any

$_Z27test_for_loop_unroll_factorILi12EdEvPKT0_iPKc = comdat any

$_Z27test_for_loop_unroll_factorILi13EdEvPKT0_iPKc = comdat any

$_ZN14for_loop_testsILi9EdE7do_testEPKdPKc = comdat any

$_Z27test_for_loop_unroll_factorILi10EdEvPKT0_iPKc = comdat any

$_Z27test_for_loop_unroll_factorILi11EdEvPKT0_iPKc = comdat any

$_ZN14for_loop_testsILi7EdE7do_testEPKdPKc = comdat any

$_Z27test_for_loop_unroll_factorILi8EdEvPKT0_iPKc = comdat any

$_Z27test_for_loop_unroll_factorILi9EdEvPKT0_iPKc = comdat any

$_ZN14for_loop_testsILi5EdE7do_testEPKdPKc = comdat any

$_Z27test_for_loop_unroll_factorILi6EdEvPKT0_iPKc = comdat any

$_Z27test_for_loop_unroll_factorILi7EdEvPKT0_iPKc = comdat any

$_ZN14for_loop_testsILi3EdE7do_testEPKdPKc = comdat any

$_Z27test_for_loop_unroll_factorILi4EdEvPKT0_iPKc = comdat any

$_Z27test_for_loop_unroll_factorILi5EdEvPKT0_iPKc = comdat any

$_Z27test_for_loop_unroll_factorILi1EdEvPKT0_iPKc = comdat any

$_Z27test_for_loop_unroll_factorILi2EdEvPKT0_iPKc = comdat any

$_Z27test_for_loop_unroll_factorILi3EdEvPKT0_iPKc = comdat any

$_ZN15loop_inner_bodyILi30EiE7do_workERiPKii = comdat any

$_ZN15loop_inner_bodyILi16EiE7do_workERiPKii = comdat any

$_ZN15goto_loop_testsILi29EiE7do_testEPKiPKc = comdat any

$_Z28test_goto_loop_unroll_factorILi30EiEvPKT0_iPKc = comdat any

$_Z28test_goto_loop_unroll_factorILi31EiEvPKT0_iPKc = comdat any

$_ZN15goto_loop_testsILi27EiE7do_testEPKiPKc = comdat any

$_Z28test_goto_loop_unroll_factorILi28EiEvPKT0_iPKc = comdat any

$_Z28test_goto_loop_unroll_factorILi29EiEvPKT0_iPKc = comdat any

$_ZN15goto_loop_testsILi25EiE7do_testEPKiPKc = comdat any

$_Z28test_goto_loop_unroll_factorILi26EiEvPKT0_iPKc = comdat any

$_Z28test_goto_loop_unroll_factorILi27EiEvPKT0_iPKc = comdat any

$_ZN15goto_loop_testsILi23EiE7do_testEPKiPKc = comdat any

$_Z28test_goto_loop_unroll_factorILi24EiEvPKT0_iPKc = comdat any

$_Z28test_goto_loop_unroll_factorILi25EiEvPKT0_iPKc = comdat any

$_ZN15goto_loop_testsILi21EiE7do_testEPKiPKc = comdat any

$_Z28test_goto_loop_unroll_factorILi22EiEvPKT0_iPKc = comdat any

$_Z28test_goto_loop_unroll_factorILi23EiEvPKT0_iPKc = comdat any

$_ZN15goto_loop_testsILi19EiE7do_testEPKiPKc = comdat any

$_Z28test_goto_loop_unroll_factorILi20EiEvPKT0_iPKc = comdat any

$_Z28test_goto_loop_unroll_factorILi21EiEvPKT0_iPKc = comdat any

$_ZN15goto_loop_testsILi17EiE7do_testEPKiPKc = comdat any

$_Z28test_goto_loop_unroll_factorILi18EiEvPKT0_iPKc = comdat any

$_Z28test_goto_loop_unroll_factorILi19EiEvPKT0_iPKc = comdat any

$_ZN15goto_loop_testsILi15EiE7do_testEPKiPKc = comdat any

$_Z28test_goto_loop_unroll_factorILi16EiEvPKT0_iPKc = comdat any

$_Z28test_goto_loop_unroll_factorILi17EiEvPKT0_iPKc = comdat any

$_ZN15goto_loop_testsILi13EiE7do_testEPKiPKc = comdat any

$_Z28test_goto_loop_unroll_factorILi14EiEvPKT0_iPKc = comdat any

$_Z28test_goto_loop_unroll_factorILi15EiEvPKT0_iPKc = comdat any

$_ZN15goto_loop_testsILi11EiE7do_testEPKiPKc = comdat any

$_Z28test_goto_loop_unroll_factorILi12EiEvPKT0_iPKc = comdat any

$_Z28test_goto_loop_unroll_factorILi13EiEvPKT0_iPKc = comdat any

$_ZN15goto_loop_testsILi9EiE7do_testEPKiPKc = comdat any

$_Z28test_goto_loop_unroll_factorILi10EiEvPKT0_iPKc = comdat any

$_Z28test_goto_loop_unroll_factorILi11EiEvPKT0_iPKc = comdat any

$_ZN15goto_loop_testsILi7EiE7do_testEPKiPKc = comdat any

$_Z28test_goto_loop_unroll_factorILi8EiEvPKT0_iPKc = comdat any

$_Z28test_goto_loop_unroll_factorILi9EiEvPKT0_iPKc = comdat any

$_ZN15goto_loop_testsILi5EiE7do_testEPKiPKc = comdat any

$_Z28test_goto_loop_unroll_factorILi6EiEvPKT0_iPKc = comdat any

$_Z28test_goto_loop_unroll_factorILi7EiEvPKT0_iPKc = comdat any

$_ZN15goto_loop_testsILi3EiE7do_testEPKiPKc = comdat any

$_Z28test_goto_loop_unroll_factorILi4EiEvPKT0_iPKc = comdat any

$_Z28test_goto_loop_unroll_factorILi5EiEvPKT0_iPKc = comdat any

$_Z28test_goto_loop_unroll_factorILi1EiEvPKT0_iPKc = comdat any

$_Z28test_goto_loop_unroll_factorILi2EiEvPKT0_iPKc = comdat any

$_Z28test_goto_loop_unroll_factorILi3EiEvPKT0_iPKc = comdat any

$_ZN13do_loop_testsILi29EiE7do_testEPKiPKc = comdat any

$_Z26test_do_loop_unroll_factorILi30EiEvPKT0_iPKc = comdat any

$_Z26test_do_loop_unroll_factorILi31EiEvPKT0_iPKc = comdat any

$_ZN13do_loop_testsILi27EiE7do_testEPKiPKc = comdat any

$_Z26test_do_loop_unroll_factorILi28EiEvPKT0_iPKc = comdat any

$_Z26test_do_loop_unroll_factorILi29EiEvPKT0_iPKc = comdat any

$_ZN13do_loop_testsILi25EiE7do_testEPKiPKc = comdat any

$_Z26test_do_loop_unroll_factorILi26EiEvPKT0_iPKc = comdat any

$_Z26test_do_loop_unroll_factorILi27EiEvPKT0_iPKc = comdat any

$_ZN13do_loop_testsILi23EiE7do_testEPKiPKc = comdat any

$_Z26test_do_loop_unroll_factorILi24EiEvPKT0_iPKc = comdat any

$_Z26test_do_loop_unroll_factorILi25EiEvPKT0_iPKc = comdat any

$_ZN13do_loop_testsILi21EiE7do_testEPKiPKc = comdat any

$_Z26test_do_loop_unroll_factorILi22EiEvPKT0_iPKc = comdat any

$_Z26test_do_loop_unroll_factorILi23EiEvPKT0_iPKc = comdat any

$_ZN13do_loop_testsILi19EiE7do_testEPKiPKc = comdat any

$_Z26test_do_loop_unroll_factorILi20EiEvPKT0_iPKc = comdat any

$_Z26test_do_loop_unroll_factorILi21EiEvPKT0_iPKc = comdat any

$_ZN13do_loop_testsILi17EiE7do_testEPKiPKc = comdat any

$_Z26test_do_loop_unroll_factorILi18EiEvPKT0_iPKc = comdat any

$_Z26test_do_loop_unroll_factorILi19EiEvPKT0_iPKc = comdat any

$_ZN13do_loop_testsILi15EiE7do_testEPKiPKc = comdat any

$_Z26test_do_loop_unroll_factorILi16EiEvPKT0_iPKc = comdat any

$_Z26test_do_loop_unroll_factorILi17EiEvPKT0_iPKc = comdat any

$_ZN13do_loop_testsILi13EiE7do_testEPKiPKc = comdat any

$_Z26test_do_loop_unroll_factorILi14EiEvPKT0_iPKc = comdat any

$_Z26test_do_loop_unroll_factorILi15EiEvPKT0_iPKc = comdat any

$_ZN13do_loop_testsILi11EiE7do_testEPKiPKc = comdat any

$_Z26test_do_loop_unroll_factorILi12EiEvPKT0_iPKc = comdat any

$_Z26test_do_loop_unroll_factorILi13EiEvPKT0_iPKc = comdat any

$_ZN13do_loop_testsILi9EiE7do_testEPKiPKc = comdat any

$_Z26test_do_loop_unroll_factorILi10EiEvPKT0_iPKc = comdat any

$_Z26test_do_loop_unroll_factorILi11EiEvPKT0_iPKc = comdat any

$_ZN13do_loop_testsILi7EiE7do_testEPKiPKc = comdat any

$_Z26test_do_loop_unroll_factorILi8EiEvPKT0_iPKc = comdat any

$_Z26test_do_loop_unroll_factorILi9EiEvPKT0_iPKc = comdat any

$_ZN13do_loop_testsILi5EiE7do_testEPKiPKc = comdat any

$_Z26test_do_loop_unroll_factorILi6EiEvPKT0_iPKc = comdat any

$_Z26test_do_loop_unroll_factorILi7EiEvPKT0_iPKc = comdat any

$_ZN13do_loop_testsILi3EiE7do_testEPKiPKc = comdat any

$_Z26test_do_loop_unroll_factorILi4EiEvPKT0_iPKc = comdat any

$_Z26test_do_loop_unroll_factorILi5EiEvPKT0_iPKc = comdat any

$_Z26test_do_loop_unroll_factorILi1EiEvPKT0_iPKc = comdat any

$_Z26test_do_loop_unroll_factorILi2EiEvPKT0_iPKc = comdat any

$_Z26test_do_loop_unroll_factorILi3EiEvPKT0_iPKc = comdat any

$_ZN16while_loop_testsILi29EiE7do_testEPKiPKc = comdat any

$_Z29test_while_loop_unroll_factorILi30EiEvPKT0_iPKc = comdat any

$_Z29test_while_loop_unroll_factorILi31EiEvPKT0_iPKc = comdat any

$_ZN16while_loop_testsILi27EiE7do_testEPKiPKc = comdat any

$_Z29test_while_loop_unroll_factorILi28EiEvPKT0_iPKc = comdat any

$_Z29test_while_loop_unroll_factorILi29EiEvPKT0_iPKc = comdat any

$_ZN16while_loop_testsILi25EiE7do_testEPKiPKc = comdat any

$_Z29test_while_loop_unroll_factorILi26EiEvPKT0_iPKc = comdat any

$_Z29test_while_loop_unroll_factorILi27EiEvPKT0_iPKc = comdat any

$_ZN16while_loop_testsILi23EiE7do_testEPKiPKc = comdat any

$_Z29test_while_loop_unroll_factorILi24EiEvPKT0_iPKc = comdat any

$_Z29test_while_loop_unroll_factorILi25EiEvPKT0_iPKc = comdat any

$_ZN16while_loop_testsILi21EiE7do_testEPKiPKc = comdat any

$_Z29test_while_loop_unroll_factorILi22EiEvPKT0_iPKc = comdat any

$_Z29test_while_loop_unroll_factorILi23EiEvPKT0_iPKc = comdat any

$_ZN16while_loop_testsILi19EiE7do_testEPKiPKc = comdat any

$_Z29test_while_loop_unroll_factorILi20EiEvPKT0_iPKc = comdat any

$_Z29test_while_loop_unroll_factorILi21EiEvPKT0_iPKc = comdat any

$_ZN16while_loop_testsILi17EiE7do_testEPKiPKc = comdat any

$_Z29test_while_loop_unroll_factorILi18EiEvPKT0_iPKc = comdat any

$_Z29test_while_loop_unroll_factorILi19EiEvPKT0_iPKc = comdat any

$_ZN16while_loop_testsILi15EiE7do_testEPKiPKc = comdat any

$_Z29test_while_loop_unroll_factorILi16EiEvPKT0_iPKc = comdat any

$_Z29test_while_loop_unroll_factorILi17EiEvPKT0_iPKc = comdat any

$_ZN16while_loop_testsILi13EiE7do_testEPKiPKc = comdat any

$_Z29test_while_loop_unroll_factorILi14EiEvPKT0_iPKc = comdat any

$_Z29test_while_loop_unroll_factorILi15EiEvPKT0_iPKc = comdat any

$_ZN16while_loop_testsILi11EiE7do_testEPKiPKc = comdat any

$_Z29test_while_loop_unroll_factorILi12EiEvPKT0_iPKc = comdat any

$_Z29test_while_loop_unroll_factorILi13EiEvPKT0_iPKc = comdat any

$_ZN16while_loop_testsILi9EiE7do_testEPKiPKc = comdat any

$_Z29test_while_loop_unroll_factorILi10EiEvPKT0_iPKc = comdat any

$_Z29test_while_loop_unroll_factorILi11EiEvPKT0_iPKc = comdat any

$_ZN16while_loop_testsILi7EiE7do_testEPKiPKc = comdat any

$_Z29test_while_loop_unroll_factorILi8EiEvPKT0_iPKc = comdat any

$_Z29test_while_loop_unroll_factorILi9EiEvPKT0_iPKc = comdat any

$_ZN16while_loop_testsILi5EiE7do_testEPKiPKc = comdat any

$_Z29test_while_loop_unroll_factorILi6EiEvPKT0_iPKc = comdat any

$_Z29test_while_loop_unroll_factorILi7EiEvPKT0_iPKc = comdat any

$_ZN16while_loop_testsILi3EiE7do_testEPKiPKc = comdat any

$_Z29test_while_loop_unroll_factorILi4EiEvPKT0_iPKc = comdat any

$_Z29test_while_loop_unroll_factorILi5EiEvPKT0_iPKc = comdat any

$_Z29test_while_loop_unroll_factorILi1EiEvPKT0_iPKc = comdat any

$_Z29test_while_loop_unroll_factorILi2EiEvPKT0_iPKc = comdat any

$_Z29test_while_loop_unroll_factorILi3EiEvPKT0_iPKc = comdat any

$_ZN14for_loop_testsILi29EiE7do_testEPKiPKc = comdat any

$_Z27test_for_loop_unroll_factorILi30EiEvPKT0_iPKc = comdat any

$_Z27test_for_loop_unroll_factorILi31EiEvPKT0_iPKc = comdat any

$_ZN14for_loop_testsILi27EiE7do_testEPKiPKc = comdat any

$_Z27test_for_loop_unroll_factorILi28EiEvPKT0_iPKc = comdat any

$_Z27test_for_loop_unroll_factorILi29EiEvPKT0_iPKc = comdat any

$_ZN14for_loop_testsILi25EiE7do_testEPKiPKc = comdat any

$_Z27test_for_loop_unroll_factorILi26EiEvPKT0_iPKc = comdat any

$_Z27test_for_loop_unroll_factorILi27EiEvPKT0_iPKc = comdat any

$_ZN14for_loop_testsILi23EiE7do_testEPKiPKc = comdat any

$_Z27test_for_loop_unroll_factorILi24EiEvPKT0_iPKc = comdat any

$_Z27test_for_loop_unroll_factorILi25EiEvPKT0_iPKc = comdat any

$_ZN14for_loop_testsILi21EiE7do_testEPKiPKc = comdat any

$_Z27test_for_loop_unroll_factorILi22EiEvPKT0_iPKc = comdat any

$_Z27test_for_loop_unroll_factorILi23EiEvPKT0_iPKc = comdat any

$_ZN14for_loop_testsILi19EiE7do_testEPKiPKc = comdat any

$_Z27test_for_loop_unroll_factorILi20EiEvPKT0_iPKc = comdat any

$_Z27test_for_loop_unroll_factorILi21EiEvPKT0_iPKc = comdat any

$_ZN14for_loop_testsILi17EiE7do_testEPKiPKc = comdat any

$_Z27test_for_loop_unroll_factorILi18EiEvPKT0_iPKc = comdat any

$_Z27test_for_loop_unroll_factorILi19EiEvPKT0_iPKc = comdat any

$_ZN14for_loop_testsILi15EiE7do_testEPKiPKc = comdat any

$_Z27test_for_loop_unroll_factorILi16EiEvPKT0_iPKc = comdat any

$_Z27test_for_loop_unroll_factorILi17EiEvPKT0_iPKc = comdat any

$_ZN14for_loop_testsILi13EiE7do_testEPKiPKc = comdat any

$_Z27test_for_loop_unroll_factorILi14EiEvPKT0_iPKc = comdat any

$_Z27test_for_loop_unroll_factorILi15EiEvPKT0_iPKc = comdat any

$_ZN14for_loop_testsILi11EiE7do_testEPKiPKc = comdat any

$_Z27test_for_loop_unroll_factorILi12EiEvPKT0_iPKc = comdat any

$_Z27test_for_loop_unroll_factorILi13EiEvPKT0_iPKc = comdat any

$_ZN14for_loop_testsILi9EiE7do_testEPKiPKc = comdat any

$_Z27test_for_loop_unroll_factorILi10EiEvPKT0_iPKc = comdat any

$_Z27test_for_loop_unroll_factorILi11EiEvPKT0_iPKc = comdat any

$_ZN14for_loop_testsILi7EiE7do_testEPKiPKc = comdat any

$_Z27test_for_loop_unroll_factorILi8EiEvPKT0_iPKc = comdat any

$_Z27test_for_loop_unroll_factorILi9EiEvPKT0_iPKc = comdat any

$_ZN14for_loop_testsILi5EiE7do_testEPKiPKc = comdat any

$_Z27test_for_loop_unroll_factorILi6EiEvPKT0_iPKc = comdat any

$_Z27test_for_loop_unroll_factorILi7EiEvPKT0_iPKc = comdat any

$_ZN14for_loop_testsILi3EiE7do_testEPKiPKc = comdat any

$_Z27test_for_loop_unroll_factorILi4EiEvPKT0_iPKc = comdat any

$_Z27test_for_loop_unroll_factorILi5EiEvPKT0_iPKc = comdat any

$_Z27test_for_loop_unroll_factorILi1EiEvPKT0_iPKc = comdat any

$_Z27test_for_loop_unroll_factorILi2EiEvPKT0_iPKc = comdat any

$_Z27test_for_loop_unroll_factorILi3EiEvPKT0_iPKc = comdat any

@results = internal global ptr null, align 8
@current_test = internal global i32 0, align 4
@allocated_results = internal global i32 0, align 4
@.str = private unnamed_addr constant [31 x i8] c"Could not allocate %d results\0A\00", align 1
@start_time = internal global i64 0, align 8
@end_time = internal global i64 0, align 8
@iterations = internal global i32 1000, align 4
@init_value = internal global double 1.000000e+00, align 8
@dataDouble = internal global [8000 x double] zeroinitializer, align 16
@data32 = internal global [8000 x i32] zeroinitializer, align 16
@temp_string = internal global [32 x [100 x i8]] zeroinitializer, align 16
@.str.11 = private unnamed_addr constant [24 x i8] c"int32_t for loop unroll\00", align 1
@.str.12 = private unnamed_addr constant [26 x i8] c"int32_t while loop unroll\00", align 1
@.str.13 = private unnamed_addr constant [23 x i8] c"int32_t do loop unroll\00", align 1
@.str.14 = private unnamed_addr constant [25 x i8] c"int32_t goto loop unroll\00", align 1
@.str.15 = private unnamed_addr constant [23 x i8] c"double for loop unroll\00", align 1
@.str.16 = private unnamed_addr constant [25 x i8] c"double while loop unroll\00", align 1
@.str.17 = private unnamed_addr constant [22 x i8] c"double do loop unroll\00", align 1
@.str.18 = private unnamed_addr constant [24 x i8] c"double goto loop unroll\00", align 1
@.str.19 = private unnamed_addr constant [16 x i8] c"test %i failed\0A\00", align 1

; Function Attrs: mustprogress nounwind optsize uwtable
define internal void @_Z13record_resultdPKc(double noundef %0, ptr noundef %1) #0 {
  %3 = load ptr, ptr @results, align 8, !tbaa !7
  %4 = icmp ne ptr %3, null
  %5 = load i32, ptr @allocated_results, align 4, !tbaa !11
  %6 = load i32, ptr @current_test, align 4
  %7 = icmp slt i32 %6, %5
  %8 = select i1 %4, i1 %7, i1 false
  br i1 %8, label %20, label %9

9:                                                ; preds = %2
  %10 = add nsw i32 %5, 10
  store i32 %10, ptr @allocated_results, align 4, !tbaa !11
  %11 = sext i32 %10 to i64
  %12 = shl nsw i64 %11, 4
  %13 = tail call ptr @realloc(ptr noundef %3, i64 noundef %12) #11
  store ptr %13, ptr @results, align 8, !tbaa !7
  %14 = icmp eq ptr %13, null
  br i1 %14, label %17, label %15

15:                                               ; preds = %9
  %16 = load i32, ptr @current_test, align 4, !tbaa !11
  br label %20

17:                                               ; preds = %9
  %18 = load i32, ptr @allocated_results, align 4, !tbaa !11
  %19 = tail call i32 (ptr, ...) @printf(ptr noundef nonnull dereferenceable(1) @.str, i32 noundef %18) #12
  tail call void @exit(i32 noundef -1) #13
  unreachable

20:                                               ; preds = %15, %2
  %21 = phi i32 [ %16, %15 ], [ %6, %2 ]
  %22 = phi ptr [ %13, %15 ], [ %3, %2 ]
  %23 = sext i32 %21 to i64
  %24 = getelementptr inbounds %struct.one_result, ptr %22, i64 %23
  store double %0, ptr %24, align 8, !tbaa !13
  %25 = getelementptr inbounds %struct.one_result, ptr %22, i64 %23, i32 1
  store ptr %1, ptr %25, align 8, !tbaa !16
  %26 = add nsw i32 %21, 1
  store i32 %26, ptr @current_test, align 4, !tbaa !11
  ret void
}

; Function Attrs: mustprogress nounwind optsize willreturn allockind("realloc") allocsize(1) memory(argmem: readwrite, inaccessiblemem: readwrite)
declare noalias noundef ptr @realloc(ptr allocptr nocapture noundef, i64 noundef) local_unnamed_addr #1

; Function Attrs: nofree nounwind optsize
declare noundef i32 @printf(ptr nocapture noundef readonly, ...) local_unnamed_addr #2

; Function Attrs: noreturn nounwind optsize
declare void @exit(i32 noundef) local_unnamed_addr #3

; Function Attrs: mustprogress norecurse optsize uwtable
define dso_local noundef i32 @main(i32 noundef %0, ptr nocapture noundef readonly %1) #4 {
  %3 = icmp sgt i32 %0, 1
  br i1 %3, label %4, label %13

4:                                                ; preds = %2
  %5 = getelementptr inbounds ptr, ptr %1, i64 1
  %6 = load ptr, ptr %5, align 8, !tbaa !7
  %7 = tail call i32 @atoi(ptr nocapture noundef %6) #14
  store i32 %7, ptr @iterations, align 4, !tbaa !11
  %8 = icmp eq i32 %0, 2
  br i1 %8, label %13, label %9

9:                                                ; preds = %4
  %10 = getelementptr inbounds ptr, ptr %1, i64 2
  %11 = load ptr, ptr %10, align 8, !tbaa !7
  %12 = tail call double @atof(ptr noundef %11) #14
  store double %12, ptr @init_value, align 8, !tbaa !17
  br label %13

13:                                               ; preds = %9, %4, %2
  %14 = load double, ptr @init_value, align 8, !tbaa !17
  %15 = fptosi double %14 to i32
  %16 = insertelement <4 x i32> poison, i32 %15, i64 0
  %17 = shufflevector <4 x i32> %16, <4 x i32> poison, <4 x i32> zeroinitializer
  br label %18

18:                                               ; preds = %18, %13
  %19 = phi i64 [ 0, %13 ], [ %22, %18 ]
  %20 = shl i64 %19, 2
  %21 = getelementptr i8, ptr @data32, i64 %20
  store <4 x i32> %17, ptr %21, align 16, !tbaa !11
  %22 = add nuw i64 %19, 4
  %23 = icmp eq i64 %22, 8000
  br i1 %23, label %24, label %18, !llvm.loop !18

24:                                               ; preds = %18
  tail call void @_ZN14for_loop_testsILi31EiE7do_testEPKiPKc(ptr noundef nonnull @data32, ptr noundef nonnull @.str.11) #12
  tail call void @_Z27test_for_loop_unroll_factorILi32EiEvPKT0_iPKc(ptr noundef nonnull @data32, i32 noundef 8000, ptr noundef nonnull getelementptr inbounds ([32 x [100 x i8]], ptr @temp_string, i64 0, i64 31)) #12
  tail call void @_ZN16while_loop_testsILi31EiE7do_testEPKiPKc(ptr noundef nonnull @data32, ptr noundef nonnull @.str.12) #12
  tail call void @_Z29test_while_loop_unroll_factorILi32EiEvPKT0_iPKc(ptr noundef nonnull @data32, i32 noundef 8000, ptr noundef nonnull getelementptr inbounds ([32 x [100 x i8]], ptr @temp_string, i64 0, i64 31)) #12
  tail call void @_ZN13do_loop_testsILi31EiE7do_testEPKiPKc(ptr noundef nonnull @data32, ptr noundef nonnull @.str.13) #12
  tail call void @_Z26test_do_loop_unroll_factorILi32EiEvPKT0_iPKc(ptr noundef nonnull @data32, i32 noundef 8000, ptr noundef nonnull getelementptr inbounds ([32 x [100 x i8]], ptr @temp_string, i64 0, i64 31)) #12
  tail call void @_ZN15goto_loop_testsILi31EiE7do_testEPKiPKc(ptr noundef nonnull @data32, ptr noundef nonnull @.str.14) #12
  tail call void @_Z28test_goto_loop_unroll_factorILi32EiEvPKT0_iPKc(ptr noundef nonnull @data32, i32 noundef 8000, ptr noundef nonnull getelementptr inbounds ([32 x [100 x i8]], ptr @temp_string, i64 0, i64 31)) #12
  %25 = load i32, ptr @iterations, align 4, !tbaa !11
  %26 = sdiv i32 %25, 4
  store i32 %26, ptr @iterations, align 4, !tbaa !11
  %27 = load double, ptr @init_value, align 8, !tbaa !17
  %28 = insertelement <2 x double> poison, double %27, i64 0
  %29 = shufflevector <2 x double> %28, <2 x double> poison, <2 x i32> zeroinitializer
  br label %30

30:                                               ; preds = %30, %24
  %31 = phi i64 [ 0, %24 ], [ %34, %30 ]
  %32 = shl i64 %31, 3
  %33 = getelementptr i8, ptr @dataDouble, i64 %32
  store <2 x double> %29, ptr %33, align 16, !tbaa !17
  %34 = add nuw i64 %31, 2
  %35 = icmp eq i64 %34, 8000
  br i1 %35, label %36, label %30, !llvm.loop !22

36:                                               ; preds = %30
  tail call void @_ZN14for_loop_testsILi31EdE7do_testEPKdPKc(ptr noundef nonnull @dataDouble, ptr noundef nonnull @.str.15) #12
  tail call void @_Z27test_for_loop_unroll_factorILi32EdEvPKT0_iPKc(ptr noundef nonnull @dataDouble, i32 noundef 8000, ptr noundef nonnull getelementptr inbounds ([32 x [100 x i8]], ptr @temp_string, i64 0, i64 31)) #12
  tail call void @_ZN16while_loop_testsILi31EdE7do_testEPKdPKc(ptr noundef nonnull @dataDouble, ptr noundef nonnull @.str.16) #12
  tail call void @_Z29test_while_loop_unroll_factorILi32EdEvPKT0_iPKc(ptr noundef nonnull @dataDouble, i32 noundef 8000, ptr noundef nonnull getelementptr inbounds ([32 x [100 x i8]], ptr @temp_string, i64 0, i64 31)) #12
  tail call void @_ZN13do_loop_testsILi31EdE7do_testEPKdPKc(ptr noundef nonnull @dataDouble, ptr noundef nonnull @.str.17) #12
  tail call void @_Z26test_do_loop_unroll_factorILi32EdEvPKT0_iPKc(ptr noundef nonnull @dataDouble, i32 noundef 8000, ptr noundef nonnull getelementptr inbounds ([32 x [100 x i8]], ptr @temp_string, i64 0, i64 31)) #12
  tail call void @_ZN15goto_loop_testsILi31EdE7do_testEPKdPKc(ptr noundef nonnull @dataDouble, ptr noundef nonnull @.str.18) #12
  tail call void @_Z28test_goto_loop_unroll_factorILi32EdEvPKT0_iPKc(ptr noundef nonnull @dataDouble, i32 noundef 8000, ptr noundef nonnull getelementptr inbounds ([32 x [100 x i8]], ptr @temp_string, i64 0, i64 31)) #12
  ret i32 0
}

; Function Attrs: mustprogress nofree nounwind optsize willreturn memory(read)
declare i32 @atoi(ptr nocapture noundef) local_unnamed_addr #5

; Function Attrs: mustprogress nofree nounwind optsize willreturn memory(read)
declare double @atof(ptr nocapture noundef) local_unnamed_addr #5

; Function Attrs: mustprogress optsize uwtable
define internal void @_ZN14for_loop_testsILi31EiE7do_testEPKiPKc(ptr noundef %0, ptr noundef %1) #6 comdat align 2 {
  tail call void @_ZN14for_loop_testsILi29EiE7do_testEPKiPKc(ptr noundef %0, ptr noundef %1) #12
  tail call void @_Z27test_for_loop_unroll_factorILi30EiEvPKT0_iPKc(ptr noundef %0, i32 noundef 8000, ptr noundef nonnull getelementptr inbounds ([32 x [100 x i8]], ptr @temp_string, i64 0, i64 29)) #12
  tail call void @_Z27test_for_loop_unroll_factorILi31EiEvPKT0_iPKc(ptr noundef %0, i32 noundef 8000, ptr noundef nonnull getelementptr inbounds ([32 x [100 x i8]], ptr @temp_string, i64 0, i64 30)) #12
  ret void
}

; Function Attrs: mustprogress optsize uwtable
define internal void @_Z27test_for_loop_unroll_factorILi32EiEvPKT0_iPKc(ptr noundef %0, i32 noundef %1, ptr noundef %2) #6 comdat {
  %4 = alloca i32, align 4
  %5 = tail call i64 @clock() #15
  store i64 %5, ptr @start_time, align 8, !tbaa !23
  %6 = load i32, ptr @iterations, align 4, !tbaa !11
  %7 = icmp sgt i32 %6, 0
  br i1 %7, label %8, label %63

8:                                                ; preds = %3
  %9 = add nsw i32 %1, -31
  %10 = icmp sgt i32 %1, 31
  br label %11

11:                                               ; preds = %59, %8
  %12 = phi i32 [ 0, %8 ], [ %60, %59 ]
  call void @llvm.lifetime.start.p0(i64 4, ptr nonnull %4) #16
  store i32 0, ptr %4, align 4, !tbaa !11
  br i1 %10, label %19, label %13

13:                                               ; preds = %19, %11
  %14 = phi i32 [ 0, %11 ], [ %33, %19 ]
  %15 = phi i32 [ 0, %11 ], [ %35, %19 ]
  %16 = icmp slt i32 %15, %1
  br i1 %16, label %17, label %49

17:                                               ; preds = %13
  %18 = zext i32 %15 to i64
  br label %37

19:                                               ; preds = %19, %11
  %20 = phi i64 [ %34, %19 ], [ 0, %11 ]
  %21 = trunc i64 %20 to i32
  call void @_ZN15loop_inner_bodyILi30EiE7do_workERiPKii(ptr noundef nonnull align 4 dereferenceable(4) %4, ptr noundef %0, i32 noundef %21) #12
  %22 = or i64 %20, 30
  %23 = getelementptr inbounds i32, ptr %0, i64 %22
  %24 = load i32, ptr %23, align 4, !tbaa !11
  %25 = mul i32 %24, 269850533
  %26 = load i32, ptr %4, align 4, !tbaa !11
  %27 = or i64 %20, 31
  %28 = getelementptr inbounds i32, ptr %0, i64 %27
  %29 = load i32, ptr %28, align 4, !tbaa !11
  %30 = mul i32 %29, 269850533
  %31 = add i32 %25, 2018317168
  %32 = add i32 %30, %26
  %33 = add i32 %31, %32
  store i32 %33, ptr %4, align 4, !tbaa !11
  %34 = add nuw i64 %20, 32
  %35 = trunc i64 %34 to i32
  %36 = icmp sgt i32 %9, %35
  br i1 %36, label %19, label %13, !llvm.loop !25

37:                                               ; preds = %37, %17
  %38 = phi i64 [ %18, %17 ], [ %45, %37 ]
  %39 = phi i32 [ %14, %17 ], [ %44, %37 ]
  %40 = getelementptr inbounds i32, ptr %0, i64 %38
  %41 = load i32, ptr %40, align 4, !tbaa !11
  %42 = mul i32 %41, 269850533
  %43 = add i32 %42, -1138325064
  %44 = add nsw i32 %43, %39
  %45 = add nuw nsw i64 %38, 1
  %46 = trunc i64 %45 to i32
  %47 = icmp slt i32 %46, %1
  br i1 %47, label %37, label %48, !llvm.loop !26

48:                                               ; preds = %37
  %.lcssa = phi i32 [ %44, %37 ]
  store i32 %.lcssa, ptr %4, align 4, !tbaa !11
  br label %49

49:                                               ; preds = %48, %13
  %50 = phi i32 [ %.lcssa, %48 ], [ %14, %13 ]
  %51 = load double, ptr @init_value, align 8, !tbaa !17
  %52 = fptosi double %51 to i32
  %53 = mul i32 %52, -1564285888
  %54 = add i32 %53, -1269844480
  %55 = icmp eq i32 %54, %50
  br i1 %55, label %59, label %56

56:                                               ; preds = %49
  %57 = load i32, ptr @current_test, align 4, !tbaa !11
  %58 = call i32 (ptr, ...) @printf(ptr noundef nonnull dereferenceable(1) @.str.19, i32 noundef %57) #12
  br label %59

59:                                               ; preds = %56, %49
  call void @llvm.lifetime.end.p0(i64 4, ptr nonnull %4) #16
  %60 = add nuw nsw i32 %12, 1
  %61 = load i32, ptr @iterations, align 4, !tbaa !11
  %62 = icmp slt i32 %60, %61
  br i1 %62, label %11, label %63, !llvm.loop !27

63:                                               ; preds = %59, %3
  %64 = call i64 @clock() #15
  store i64 %64, ptr @end_time, align 8, !tbaa !23
  %65 = load i64, ptr @start_time, align 8, !tbaa !23
  %66 = sub nsw i64 %64, %65
  %67 = sitofp i64 %66 to double
  %68 = fdiv double %67, 1.000000e+06
  call void @_Z13record_resultdPKc(double noundef %68, ptr noundef %2) #12
  ret void
}

; Function Attrs: mustprogress optsize uwtable
define internal void @_ZN16while_loop_testsILi31EiE7do_testEPKiPKc(ptr noundef %0, ptr noundef %1) #6 comdat align 2 {
  tail call void @_ZN16while_loop_testsILi29EiE7do_testEPKiPKc(ptr noundef %0, ptr noundef %1) #12
  tail call void @_Z29test_while_loop_unroll_factorILi30EiEvPKT0_iPKc(ptr noundef %0, i32 noundef 8000, ptr noundef nonnull getelementptr inbounds ([32 x [100 x i8]], ptr @temp_string, i64 0, i64 29)) #12
  tail call void @_Z29test_while_loop_unroll_factorILi31EiEvPKT0_iPKc(ptr noundef %0, i32 noundef 8000, ptr noundef nonnull getelementptr inbounds ([32 x [100 x i8]], ptr @temp_string, i64 0, i64 30)) #12
  ret void
}

; Function Attrs: mustprogress optsize uwtable
define internal void @_Z29test_while_loop_unroll_factorILi32EiEvPKT0_iPKc(ptr noundef %0, i32 noundef %1, ptr noundef %2) #6 comdat {
  %4 = alloca i32, align 4
  %5 = tail call i64 @clock() #15
  store i64 %5, ptr @start_time, align 8, !tbaa !23
  %6 = load i32, ptr @iterations, align 4, !tbaa !11
  %7 = icmp sgt i32 %6, 0
  br i1 %7, label %8, label %63

8:                                                ; preds = %3
  %9 = add nsw i32 %1, -31
  %10 = icmp sgt i32 %1, 31
  br label %11

11:                                               ; preds = %59, %8
  %12 = phi i32 [ 0, %8 ], [ %60, %59 ]
  call void @llvm.lifetime.start.p0(i64 4, ptr nonnull %4) #16
  store i32 0, ptr %4, align 4, !tbaa !11
  br i1 %10, label %19, label %13

13:                                               ; preds = %19, %11
  %14 = phi i32 [ 0, %11 ], [ %33, %19 ]
  %15 = phi i32 [ 0, %11 ], [ %35, %19 ]
  %16 = icmp slt i32 %15, %1
  br i1 %16, label %17, label %49

17:                                               ; preds = %13
  %18 = zext i32 %15 to i64
  br label %37

19:                                               ; preds = %19, %11
  %20 = phi i64 [ %34, %19 ], [ 0, %11 ]
  %21 = trunc i64 %20 to i32
  call void @_ZN15loop_inner_bodyILi30EiE7do_workERiPKii(ptr noundef nonnull align 4 dereferenceable(4) %4, ptr noundef %0, i32 noundef %21) #12
  %22 = or i64 %20, 30
  %23 = getelementptr inbounds i32, ptr %0, i64 %22
  %24 = load i32, ptr %23, align 4, !tbaa !11
  %25 = mul i32 %24, 269850533
  %26 = load i32, ptr %4, align 4, !tbaa !11
  %27 = or i64 %20, 31
  %28 = getelementptr inbounds i32, ptr %0, i64 %27
  %29 = load i32, ptr %28, align 4, !tbaa !11
  %30 = mul i32 %29, 269850533
  %31 = add i32 %25, 2018317168
  %32 = add i32 %30, %26
  %33 = add i32 %31, %32
  store i32 %33, ptr %4, align 4, !tbaa !11
  %34 = add nuw i64 %20, 32
  %35 = trunc i64 %34 to i32
  %36 = icmp sgt i32 %9, %35
  br i1 %36, label %19, label %13, !llvm.loop !28

37:                                               ; preds = %37, %17
  %38 = phi i64 [ %18, %17 ], [ %45, %37 ]
  %39 = phi i32 [ %14, %17 ], [ %44, %37 ]
  %40 = getelementptr inbounds i32, ptr %0, i64 %38
  %41 = load i32, ptr %40, align 4, !tbaa !11
  %42 = mul i32 %41, 269850533
  %43 = add i32 %42, -1138325064
  %44 = add nsw i32 %43, %39
  %45 = add nuw nsw i64 %38, 1
  %46 = trunc i64 %45 to i32
  %47 = icmp slt i32 %46, %1
  br i1 %47, label %37, label %48, !llvm.loop !29

48:                                               ; preds = %37
  %.lcssa = phi i32 [ %44, %37 ]
  store i32 %.lcssa, ptr %4, align 4, !tbaa !11
  br label %49

49:                                               ; preds = %48, %13
  %50 = phi i32 [ %.lcssa, %48 ], [ %14, %13 ]
  %51 = load double, ptr @init_value, align 8, !tbaa !17
  %52 = fptosi double %51 to i32
  %53 = mul i32 %52, -1564285888
  %54 = add i32 %53, -1269844480
  %55 = icmp eq i32 %54, %50
  br i1 %55, label %59, label %56

56:                                               ; preds = %49
  %57 = load i32, ptr @current_test, align 4, !tbaa !11
  %58 = call i32 (ptr, ...) @printf(ptr noundef nonnull dereferenceable(1) @.str.19, i32 noundef %57) #12
  br label %59

59:                                               ; preds = %56, %49
  call void @llvm.lifetime.end.p0(i64 4, ptr nonnull %4) #16
  %60 = add nuw nsw i32 %12, 1
  %61 = load i32, ptr @iterations, align 4, !tbaa !11
  %62 = icmp slt i32 %60, %61
  br i1 %62, label %11, label %63, !llvm.loop !30

63:                                               ; preds = %59, %3
  %64 = call i64 @clock() #15
  store i64 %64, ptr @end_time, align 8, !tbaa !23
  %65 = load i64, ptr @start_time, align 8, !tbaa !23
  %66 = sub nsw i64 %64, %65
  %67 = sitofp i64 %66 to double
  %68 = fdiv double %67, 1.000000e+06
  call void @_Z13record_resultdPKc(double noundef %68, ptr noundef %2) #12
  ret void
}

; Function Attrs: mustprogress optsize uwtable
define internal void @_ZN13do_loop_testsILi31EiE7do_testEPKiPKc(ptr noundef %0, ptr noundef %1) #6 comdat align 2 {
  tail call void @_ZN13do_loop_testsILi29EiE7do_testEPKiPKc(ptr noundef %0, ptr noundef %1) #12
  tail call void @_Z26test_do_loop_unroll_factorILi30EiEvPKT0_iPKc(ptr noundef %0, i32 noundef 8000, ptr noundef nonnull getelementptr inbounds ([32 x [100 x i8]], ptr @temp_string, i64 0, i64 29)) #12
  tail call void @_Z26test_do_loop_unroll_factorILi31EiEvPKT0_iPKc(ptr noundef %0, i32 noundef 8000, ptr noundef nonnull getelementptr inbounds ([32 x [100 x i8]], ptr @temp_string, i64 0, i64 30)) #12
  ret void
}

; Function Attrs: mustprogress optsize uwtable
define internal void @_Z26test_do_loop_unroll_factorILi32EiEvPKT0_iPKc(ptr noundef %0, i32 noundef %1, ptr noundef %2) #6 comdat {
  %4 = alloca i32, align 4
  %5 = tail call i64 @clock() #15
  store i64 %5, ptr @start_time, align 8, !tbaa !23
  %6 = load i32, ptr @iterations, align 4, !tbaa !11
  %7 = icmp sgt i32 %6, 0
  br i1 %7, label %8, label %63

8:                                                ; preds = %3
  %9 = icmp sgt i32 %1, 31
  %10 = add nsw i32 %1, -31
  %11 = sext i32 %1 to i64
  br label %12

12:                                               ; preds = %59, %8
  %13 = phi i32 [ 0, %8 ], [ %60, %59 ]
  call void @llvm.lifetime.start.p0(i64 4, ptr nonnull %4) #16
  store i32 0, ptr %4, align 4, !tbaa !11
  br i1 %9, label %14, label %32

14:                                               ; preds = %14, %12
  %15 = phi i64 [ %29, %14 ], [ 0, %12 ]
  %16 = trunc i64 %15 to i32
  call void @_ZN15loop_inner_bodyILi30EiE7do_workERiPKii(ptr noundef nonnull align 4 dereferenceable(4) %4, ptr noundef %0, i32 noundef %16) #12
  %17 = or i64 %15, 30
  %18 = getelementptr inbounds i32, ptr %0, i64 %17
  %19 = load i32, ptr %18, align 4, !tbaa !11
  %20 = mul i32 %19, 269850533
  %21 = load i32, ptr %4, align 4, !tbaa !11
  %22 = or i64 %15, 31
  %23 = getelementptr inbounds i32, ptr %0, i64 %22
  %24 = load i32, ptr %23, align 4, !tbaa !11
  %25 = mul i32 %24, 269850533
  %26 = add i32 %20, 2018317168
  %27 = add i32 %25, %21
  %28 = add i32 %26, %27
  store i32 %28, ptr %4, align 4, !tbaa !11
  %29 = add nuw i64 %15, 32
  %30 = trunc i64 %29 to i32
  %31 = icmp sgt i32 %10, %30
  br i1 %31, label %14, label %32, !llvm.loop !31

32:                                               ; preds = %14, %12
  %33 = phi i32 [ 0, %12 ], [ %28, %14 ]
  %34 = phi i32 [ 0, %12 ], [ %30, %14 ]
  %35 = icmp slt i32 %34, %1
  br i1 %35, label %36, label %49

36:                                               ; preds = %32
  %37 = sext i32 %34 to i64
  br label %38

38:                                               ; preds = %38, %36
  %39 = phi i64 [ %37, %36 ], [ %46, %38 ]
  %40 = phi i32 [ %33, %36 ], [ %45, %38 ]
  %41 = getelementptr inbounds i32, ptr %0, i64 %39
  %42 = load i32, ptr %41, align 4, !tbaa !11
  %43 = mul i32 %42, 269850533
  %44 = add i32 %43, -1138325064
  %45 = add nsw i32 %44, %40
  %46 = add nsw i64 %39, 1
  %47 = icmp eq i64 %46, %11
  br i1 %47, label %48, label %38, !llvm.loop !32

48:                                               ; preds = %38
  %.lcssa = phi i32 [ %45, %38 ]
  store i32 %.lcssa, ptr %4, align 4, !tbaa !11
  br label %49

49:                                               ; preds = %48, %32
  %50 = phi i32 [ %.lcssa, %48 ], [ %33, %32 ]
  %51 = load double, ptr @init_value, align 8, !tbaa !17
  %52 = fptosi double %51 to i32
  %53 = mul i32 %52, -1564285888
  %54 = add i32 %53, -1269844480
  %55 = icmp eq i32 %54, %50
  br i1 %55, label %59, label %56

56:                                               ; preds = %49
  %57 = load i32, ptr @current_test, align 4, !tbaa !11
  %58 = call i32 (ptr, ...) @printf(ptr noundef nonnull dereferenceable(1) @.str.19, i32 noundef %57) #12
  br label %59

59:                                               ; preds = %56, %49
  call void @llvm.lifetime.end.p0(i64 4, ptr nonnull %4) #16
  %60 = add nuw nsw i32 %13, 1
  %61 = load i32, ptr @iterations, align 4, !tbaa !11
  %62 = icmp slt i32 %60, %61
  br i1 %62, label %12, label %63, !llvm.loop !33

63:                                               ; preds = %59, %3
  %64 = call i64 @clock() #15
  store i64 %64, ptr @end_time, align 8, !tbaa !23
  %65 = load i64, ptr @start_time, align 8, !tbaa !23
  %66 = sub nsw i64 %64, %65
  %67 = sitofp i64 %66 to double
  %68 = fdiv double %67, 1.000000e+06
  call void @_Z13record_resultdPKc(double noundef %68, ptr noundef %2) #12
  ret void
}

; Function Attrs: mustprogress optsize uwtable
define internal void @_ZN15goto_loop_testsILi31EiE7do_testEPKiPKc(ptr noundef %0, ptr noundef %1) #6 comdat align 2 {
  tail call void @_ZN15goto_loop_testsILi29EiE7do_testEPKiPKc(ptr noundef %0, ptr noundef %1) #12
  tail call void @_Z28test_goto_loop_unroll_factorILi30EiEvPKT0_iPKc(ptr noundef %0, i32 noundef 8000, ptr noundef nonnull getelementptr inbounds ([32 x [100 x i8]], ptr @temp_string, i64 0, i64 29)) #12
  tail call void @_Z28test_goto_loop_unroll_factorILi31EiEvPKT0_iPKc(ptr noundef %0, i32 noundef 8000, ptr noundef nonnull getelementptr inbounds ([32 x [100 x i8]], ptr @temp_string, i64 0, i64 30)) #12
  ret void
}

; Function Attrs: mustprogress optsize uwtable
define internal void @_Z28test_goto_loop_unroll_factorILi32EiEvPKT0_iPKc(ptr noundef %0, i32 noundef %1, ptr noundef %2) #6 comdat {
  %4 = alloca i32, align 4
  %5 = tail call i64 @clock() #15
  store i64 %5, ptr @start_time, align 8, !tbaa !23
  %6 = load i32, ptr @iterations, align 4, !tbaa !11
  %7 = icmp sgt i32 %6, 0
  br i1 %7, label %8, label %63

8:                                                ; preds = %3
  %9 = icmp sgt i32 %1, 31
  %10 = add nsw i32 %1, -31
  %11 = sext i32 %1 to i64
  br label %12

12:                                               ; preds = %59, %8
  %13 = phi i32 [ 0, %8 ], [ %60, %59 ]
  call void @llvm.lifetime.start.p0(i64 4, ptr nonnull %4) #16
  store i32 0, ptr %4, align 4, !tbaa !11
  br i1 %9, label %14, label %32

14:                                               ; preds = %14, %12
  %15 = phi i64 [ %29, %14 ], [ 0, %12 ]
  %16 = trunc i64 %15 to i32
  call void @_ZN15loop_inner_bodyILi30EiE7do_workERiPKii(ptr noundef nonnull align 4 dereferenceable(4) %4, ptr noundef %0, i32 noundef %16) #12
  %17 = or i64 %15, 30
  %18 = getelementptr inbounds i32, ptr %0, i64 %17
  %19 = load i32, ptr %18, align 4, !tbaa !11
  %20 = mul i32 %19, 269850533
  %21 = load i32, ptr %4, align 4, !tbaa !11
  %22 = or i64 %15, 31
  %23 = getelementptr inbounds i32, ptr %0, i64 %22
  %24 = load i32, ptr %23, align 4, !tbaa !11
  %25 = mul i32 %24, 269850533
  %26 = add i32 %20, 2018317168
  %27 = add i32 %25, %21
  %28 = add i32 %26, %27
  store i32 %28, ptr %4, align 4, !tbaa !11
  %29 = add nuw i64 %15, 32
  %30 = trunc i64 %29 to i32
  %31 = icmp sgt i32 %10, %30
  br i1 %31, label %14, label %32

32:                                               ; preds = %14, %12
  %33 = phi i32 [ 0, %12 ], [ %28, %14 ]
  %34 = phi i32 [ 0, %12 ], [ %30, %14 ]
  %35 = icmp slt i32 %34, %1
  br i1 %35, label %36, label %49

36:                                               ; preds = %32
  %37 = sext i32 %34 to i64
  br label %38

38:                                               ; preds = %38, %36
  %39 = phi i64 [ %37, %36 ], [ %46, %38 ]
  %40 = phi i32 [ %33, %36 ], [ %45, %38 ]
  %41 = getelementptr inbounds i32, ptr %0, i64 %39
  %42 = load i32, ptr %41, align 4, !tbaa !11
  %43 = mul i32 %42, 269850533
  %44 = add i32 %43, -1138325064
  %45 = add nsw i32 %44, %40
  %46 = add nsw i64 %39, 1
  %47 = icmp eq i64 %46, %11
  br i1 %47, label %48, label %38

48:                                               ; preds = %38
  %.lcssa = phi i32 [ %45, %38 ]
  store i32 %.lcssa, ptr %4, align 4, !tbaa !11
  br label %49

49:                                               ; preds = %48, %32
  %50 = phi i32 [ %.lcssa, %48 ], [ %33, %32 ]
  %51 = load double, ptr @init_value, align 8, !tbaa !17
  %52 = fptosi double %51 to i32
  %53 = mul i32 %52, -1564285888
  %54 = add i32 %53, -1269844480
  %55 = icmp eq i32 %54, %50
  br i1 %55, label %59, label %56

56:                                               ; preds = %49
  %57 = load i32, ptr @current_test, align 4, !tbaa !11
  %58 = call i32 (ptr, ...) @printf(ptr noundef nonnull dereferenceable(1) @.str.19, i32 noundef %57) #12
  br label %59

59:                                               ; preds = %56, %49
  call void @llvm.lifetime.end.p0(i64 4, ptr nonnull %4) #16
  %60 = add nuw nsw i32 %13, 1
  %61 = load i32, ptr @iterations, align 4, !tbaa !11
  %62 = icmp slt i32 %60, %61
  br i1 %62, label %12, label %63, !llvm.loop !34

63:                                               ; preds = %59, %3
  %64 = call i64 @clock() #15
  store i64 %64, ptr @end_time, align 8, !tbaa !23
  %65 = load i64, ptr @start_time, align 8, !tbaa !23
  %66 = sub nsw i64 %64, %65
  %67 = sitofp i64 %66 to double
  %68 = fdiv double %67, 1.000000e+06
  call void @_Z13record_resultdPKc(double noundef %68, ptr noundef %2) #12
  ret void
}

; Function Attrs: mustprogress optsize uwtable
define internal void @_ZN14for_loop_testsILi31EdE7do_testEPKdPKc(ptr noundef %0, ptr noundef %1) #6 comdat align 2 {
  tail call void @_ZN14for_loop_testsILi29EdE7do_testEPKdPKc(ptr noundef %0, ptr noundef %1) #12
  tail call void @_Z27test_for_loop_unroll_factorILi30EdEvPKT0_iPKc(ptr noundef %0, i32 noundef 8000, ptr noundef nonnull getelementptr inbounds ([32 x [100 x i8]], ptr @temp_string, i64 0, i64 29)) #12
  tail call void @_Z27test_for_loop_unroll_factorILi31EdEvPKT0_iPKc(ptr noundef %0, i32 noundef 8000, ptr noundef nonnull getelementptr inbounds ([32 x [100 x i8]], ptr @temp_string, i64 0, i64 30)) #12
  ret void
}

; Function Attrs: mustprogress optsize uwtable
define internal void @_Z27test_for_loop_unroll_factorILi32EdEvPKT0_iPKc(ptr noundef %0, i32 noundef %1, ptr noundef %2) #6 comdat {
  %4 = alloca double, align 8
  %5 = tail call i64 @clock() #15
  store i64 %5, ptr @start_time, align 8, !tbaa !23
  %6 = load i32, ptr @iterations, align 4, !tbaa !11
  %7 = icmp sgt i32 %6, 0
  br i1 %7, label %8, label %106

8:                                                ; preds = %3
  %9 = add nsw i32 %1, -31
  %10 = icmp sgt i32 %1, 31
  br label %11

11:                                               ; preds = %102, %8
  %12 = phi i32 [ 0, %8 ], [ %103, %102 ]
  call void @llvm.lifetime.start.p0(i64 8, ptr nonnull %4) #16
  store double 0.000000e+00, ptr %4, align 8, !tbaa !17
  br i1 %10, label %19, label %13

13:                                               ; preds = %19, %11
  %14 = phi double [ 0.000000e+00, %11 ], [ %62, %19 ]
  %15 = phi i32 [ 0, %11 ], [ %64, %19 ]
  %16 = icmp slt i32 %15, %1
  br i1 %16, label %17, label %82

17:                                               ; preds = %13
  %18 = zext i32 %15 to i64
  br label %66

19:                                               ; preds = %19, %11
  %20 = phi i64 [ %63, %19 ], [ 0, %11 ]
  %21 = trunc i64 %20 to i32
  call void @_ZN15loop_inner_bodyILi28EdE7do_workERdPKdi(ptr noundef nonnull align 8 dereferenceable(8) %4, ptr noundef %0, i32 noundef %21) #12
  %22 = or i64 %20, 28
  %23 = getelementptr inbounds double, ptr %0, i64 %22
  %24 = load double, ptr %23, align 8, !tbaa !17
  %25 = fadd double %24, 1.234500e+04
  %26 = call double @llvm.fmuladd.f64(double %25, double 9.142370e+05, double -1.300000e+01)
  %27 = fadd double %26, 1.234500e+04
  %28 = call double @llvm.fmuladd.f64(double %27, double 9.142370e+05, double -1.300000e+01)
  %29 = fadd double %28, 1.234500e+04
  %30 = call double @llvm.fmuladd.f64(double %29, double 9.142370e+05, double -1.300000e+01)
  %31 = load double, ptr %4, align 8, !tbaa !17
  %32 = fadd double %31, %30
  %33 = or i64 %20, 29
  %34 = getelementptr inbounds double, ptr %0, i64 %33
  %35 = load double, ptr %34, align 8, !tbaa !17
  %36 = fadd double %35, 1.234500e+04
  %37 = call double @llvm.fmuladd.f64(double %36, double 9.142370e+05, double -1.300000e+01)
  %38 = fadd double %37, 1.234500e+04
  %39 = call double @llvm.fmuladd.f64(double %38, double 9.142370e+05, double -1.300000e+01)
  %40 = fadd double %39, 1.234500e+04
  %41 = call double @llvm.fmuladd.f64(double %40, double 9.142370e+05, double -1.300000e+01)
  %42 = fadd double %32, %41
  %43 = or i64 %20, 30
  %44 = getelementptr inbounds double, ptr %0, i64 %43
  %45 = load double, ptr %44, align 8, !tbaa !17
  %46 = fadd double %45, 1.234500e+04
  %47 = call double @llvm.fmuladd.f64(double %46, double 9.142370e+05, double -1.300000e+01)
  %48 = fadd double %47, 1.234500e+04
  %49 = call double @llvm.fmuladd.f64(double %48, double 9.142370e+05, double -1.300000e+01)
  %50 = fadd double %49, 1.234500e+04
  %51 = call double @llvm.fmuladd.f64(double %50, double 9.142370e+05, double -1.300000e+01)
  %52 = fadd double %42, %51
  %53 = or i64 %20, 31
  %54 = getelementptr inbounds double, ptr %0, i64 %53
  %55 = load double, ptr %54, align 8, !tbaa !17
  %56 = fadd double %55, 1.234500e+04
  %57 = call double @llvm.fmuladd.f64(double %56, double 9.142370e+05, double -1.300000e+01)
  %58 = fadd double %57, 1.234500e+04
  %59 = call double @llvm.fmuladd.f64(double %58, double 9.142370e+05, double -1.300000e+01)
  %60 = fadd double %59, 1.234500e+04
  %61 = call double @llvm.fmuladd.f64(double %60, double 9.142370e+05, double -1.300000e+01)
  %62 = fadd double %52, %61
  store double %62, ptr %4, align 8, !tbaa !17
  %63 = add nuw i64 %20, 32
  %64 = trunc i64 %63 to i32
  %65 = icmp sgt i32 %9, %64
  br i1 %65, label %19, label %13, !llvm.loop !35

66:                                               ; preds = %66, %17
  %67 = phi i64 [ %18, %17 ], [ %78, %66 ]
  %68 = phi double [ %14, %17 ], [ %77, %66 ]
  %69 = getelementptr inbounds double, ptr %0, i64 %67
  %70 = load double, ptr %69, align 8, !tbaa !17
  %71 = fadd double %70, 1.234500e+04
  %72 = call double @llvm.fmuladd.f64(double %71, double 9.142370e+05, double -1.300000e+01)
  %73 = fadd double %72, 1.234500e+04
  %74 = call double @llvm.fmuladd.f64(double %73, double 9.142370e+05, double -1.300000e+01)
  %75 = fadd double %74, 1.234500e+04
  %76 = call double @llvm.fmuladd.f64(double %75, double 9.142370e+05, double -1.300000e+01)
  %77 = fadd double %68, %76
  %78 = add nuw nsw i64 %67, 1
  %79 = trunc i64 %78 to i32
  %80 = icmp slt i32 %79, %1
  br i1 %80, label %66, label %81, !llvm.loop !36

81:                                               ; preds = %66
  %.lcssa = phi double [ %77, %66 ]
  store double %.lcssa, ptr %4, align 8, !tbaa !17
  br label %82

82:                                               ; preds = %81, %13
  %83 = phi double [ %.lcssa, %81 ], [ %14, %13 ]
  %84 = load double, ptr @init_value, align 8, !tbaa !17
  %85 = fadd double %84, 1.234500e+04
  %86 = call double @llvm.fmuladd.f64(double %85, double 9.142370e+05, double -1.300000e+01)
  %87 = fadd double %86, 1.234500e+04
  %88 = call double @llvm.fmuladd.f64(double %87, double 9.142370e+05, double -1.300000e+01)
  %89 = fadd double %88, 1.234500e+04
  %90 = call double @llvm.fmuladd.f64(double %89, double 9.142370e+05, double -1.300000e+01)
  %91 = fmul double %90, 8.000000e+03
  %92 = fsub double %83, %91
  %93 = call double @llvm.fabs.f64(double %83)
  %94 = fcmp ogt double %93, 1.000000e-08
  %95 = select i1 %94, double %83, double 1.000000e+00
  %96 = fdiv double %92, %95
  %97 = call double @llvm.fabs.f64(double %96)
  %98 = fcmp olt double %97, 0x3EB0C6F7A0B5ED8D
  br i1 %98, label %102, label %99

99:                                               ; preds = %82
  %100 = load i32, ptr @current_test, align 4, !tbaa !11
  %101 = call i32 (ptr, ...) @printf(ptr noundef nonnull dereferenceable(1) @.str.19, i32 noundef %100) #12
  br label %102

102:                                              ; preds = %99, %82
  call void @llvm.lifetime.end.p0(i64 8, ptr nonnull %4) #16
  %103 = add nuw nsw i32 %12, 1
  %104 = load i32, ptr @iterations, align 4, !tbaa !11
  %105 = icmp slt i32 %103, %104
  br i1 %105, label %11, label %106, !llvm.loop !37

106:                                              ; preds = %102, %3
  %107 = call i64 @clock() #15
  store i64 %107, ptr @end_time, align 8, !tbaa !23
  %108 = load i64, ptr @start_time, align 8, !tbaa !23
  %109 = sub nsw i64 %107, %108
  %110 = sitofp i64 %109 to double
  %111 = fdiv double %110, 1.000000e+06
  call void @_Z13record_resultdPKc(double noundef %111, ptr noundef %2) #12
  ret void
}

; Function Attrs: mustprogress optsize uwtable
define internal void @_ZN16while_loop_testsILi31EdE7do_testEPKdPKc(ptr noundef %0, ptr noundef %1) #6 comdat align 2 {
  tail call void @_ZN16while_loop_testsILi29EdE7do_testEPKdPKc(ptr noundef %0, ptr noundef %1) #12
  tail call void @_Z29test_while_loop_unroll_factorILi30EdEvPKT0_iPKc(ptr noundef %0, i32 noundef 8000, ptr noundef nonnull getelementptr inbounds ([32 x [100 x i8]], ptr @temp_string, i64 0, i64 29)) #12
  tail call void @_Z29test_while_loop_unroll_factorILi31EdEvPKT0_iPKc(ptr noundef %0, i32 noundef 8000, ptr noundef nonnull getelementptr inbounds ([32 x [100 x i8]], ptr @temp_string, i64 0, i64 30)) #12
  ret void
}

; Function Attrs: mustprogress optsize uwtable
define internal void @_Z29test_while_loop_unroll_factorILi32EdEvPKT0_iPKc(ptr noundef %0, i32 noundef %1, ptr noundef %2) #6 comdat {
  %4 = alloca double, align 8
  %5 = tail call i64 @clock() #15
  store i64 %5, ptr @start_time, align 8, !tbaa !23
  %6 = load i32, ptr @iterations, align 4, !tbaa !11
  %7 = icmp sgt i32 %6, 0
  br i1 %7, label %8, label %106

8:                                                ; preds = %3
  %9 = add nsw i32 %1, -31
  %10 = icmp sgt i32 %1, 31
  br label %11

11:                                               ; preds = %102, %8
  %12 = phi i32 [ 0, %8 ], [ %103, %102 ]
  call void @llvm.lifetime.start.p0(i64 8, ptr nonnull %4) #16
  store double 0.000000e+00, ptr %4, align 8, !tbaa !17
  br i1 %10, label %19, label %13

13:                                               ; preds = %19, %11
  %14 = phi double [ 0.000000e+00, %11 ], [ %62, %19 ]
  %15 = phi i32 [ 0, %11 ], [ %64, %19 ]
  %16 = icmp slt i32 %15, %1
  br i1 %16, label %17, label %82

17:                                               ; preds = %13
  %18 = zext i32 %15 to i64
  br label %66

19:                                               ; preds = %19, %11
  %20 = phi i64 [ %63, %19 ], [ 0, %11 ]
  %21 = trunc i64 %20 to i32
  call void @_ZN15loop_inner_bodyILi28EdE7do_workERdPKdi(ptr noundef nonnull align 8 dereferenceable(8) %4, ptr noundef %0, i32 noundef %21) #12
  %22 = or i64 %20, 28
  %23 = getelementptr inbounds double, ptr %0, i64 %22
  %24 = load double, ptr %23, align 8, !tbaa !17
  %25 = fadd double %24, 1.234500e+04
  %26 = call double @llvm.fmuladd.f64(double %25, double 9.142370e+05, double -1.300000e+01)
  %27 = fadd double %26, 1.234500e+04
  %28 = call double @llvm.fmuladd.f64(double %27, double 9.142370e+05, double -1.300000e+01)
  %29 = fadd double %28, 1.234500e+04
  %30 = call double @llvm.fmuladd.f64(double %29, double 9.142370e+05, double -1.300000e+01)
  %31 = load double, ptr %4, align 8, !tbaa !17
  %32 = fadd double %31, %30
  %33 = or i64 %20, 29
  %34 = getelementptr inbounds double, ptr %0, i64 %33
  %35 = load double, ptr %34, align 8, !tbaa !17
  %36 = fadd double %35, 1.234500e+04
  %37 = call double @llvm.fmuladd.f64(double %36, double 9.142370e+05, double -1.300000e+01)
  %38 = fadd double %37, 1.234500e+04
  %39 = call double @llvm.fmuladd.f64(double %38, double 9.142370e+05, double -1.300000e+01)
  %40 = fadd double %39, 1.234500e+04
  %41 = call double @llvm.fmuladd.f64(double %40, double 9.142370e+05, double -1.300000e+01)
  %42 = fadd double %32, %41
  %43 = or i64 %20, 30
  %44 = getelementptr inbounds double, ptr %0, i64 %43
  %45 = load double, ptr %44, align 8, !tbaa !17
  %46 = fadd double %45, 1.234500e+04
  %47 = call double @llvm.fmuladd.f64(double %46, double 9.142370e+05, double -1.300000e+01)
  %48 = fadd double %47, 1.234500e+04
  %49 = call double @llvm.fmuladd.f64(double %48, double 9.142370e+05, double -1.300000e+01)
  %50 = fadd double %49, 1.234500e+04
  %51 = call double @llvm.fmuladd.f64(double %50, double 9.142370e+05, double -1.300000e+01)
  %52 = fadd double %42, %51
  %53 = or i64 %20, 31
  %54 = getelementptr inbounds double, ptr %0, i64 %53
  %55 = load double, ptr %54, align 8, !tbaa !17
  %56 = fadd double %55, 1.234500e+04
  %57 = call double @llvm.fmuladd.f64(double %56, double 9.142370e+05, double -1.300000e+01)
  %58 = fadd double %57, 1.234500e+04
  %59 = call double @llvm.fmuladd.f64(double %58, double 9.142370e+05, double -1.300000e+01)
  %60 = fadd double %59, 1.234500e+04
  %61 = call double @llvm.fmuladd.f64(double %60, double 9.142370e+05, double -1.300000e+01)
  %62 = fadd double %52, %61
  store double %62, ptr %4, align 8, !tbaa !17
  %63 = add nuw i64 %20, 32
  %64 = trunc i64 %63 to i32
  %65 = icmp sgt i32 %9, %64
  br i1 %65, label %19, label %13, !llvm.loop !38

66:                                               ; preds = %66, %17
  %67 = phi i64 [ %18, %17 ], [ %78, %66 ]
  %68 = phi double [ %14, %17 ], [ %77, %66 ]
  %69 = getelementptr inbounds double, ptr %0, i64 %67
  %70 = load double, ptr %69, align 8, !tbaa !17
  %71 = fadd double %70, 1.234500e+04
  %72 = call double @llvm.fmuladd.f64(double %71, double 9.142370e+05, double -1.300000e+01)
  %73 = fadd double %72, 1.234500e+04
  %74 = call double @llvm.fmuladd.f64(double %73, double 9.142370e+05, double -1.300000e+01)
  %75 = fadd double %74, 1.234500e+04
  %76 = call double @llvm.fmuladd.f64(double %75, double 9.142370e+05, double -1.300000e+01)
  %77 = fadd double %68, %76
  %78 = add nuw nsw i64 %67, 1
  %79 = trunc i64 %78 to i32
  %80 = icmp slt i32 %79, %1
  br i1 %80, label %66, label %81, !llvm.loop !39

81:                                               ; preds = %66
  %.lcssa = phi double [ %77, %66 ]
  store double %.lcssa, ptr %4, align 8, !tbaa !17
  br label %82

82:                                               ; preds = %81, %13
  %83 = phi double [ %.lcssa, %81 ], [ %14, %13 ]
  %84 = load double, ptr @init_value, align 8, !tbaa !17
  %85 = fadd double %84, 1.234500e+04
  %86 = call double @llvm.fmuladd.f64(double %85, double 9.142370e+05, double -1.300000e+01)
  %87 = fadd double %86, 1.234500e+04
  %88 = call double @llvm.fmuladd.f64(double %87, double 9.142370e+05, double -1.300000e+01)
  %89 = fadd double %88, 1.234500e+04
  %90 = call double @llvm.fmuladd.f64(double %89, double 9.142370e+05, double -1.300000e+01)
  %91 = fmul double %90, 8.000000e+03
  %92 = fsub double %83, %91
  %93 = call double @llvm.fabs.f64(double %83)
  %94 = fcmp ogt double %93, 1.000000e-08
  %95 = select i1 %94, double %83, double 1.000000e+00
  %96 = fdiv double %92, %95
  %97 = call double @llvm.fabs.f64(double %96)
  %98 = fcmp olt double %97, 0x3EB0C6F7A0B5ED8D
  br i1 %98, label %102, label %99

99:                                               ; preds = %82
  %100 = load i32, ptr @current_test, align 4, !tbaa !11
  %101 = call i32 (ptr, ...) @printf(ptr noundef nonnull dereferenceable(1) @.str.19, i32 noundef %100) #12
  br label %102

102:                                              ; preds = %99, %82
  call void @llvm.lifetime.end.p0(i64 8, ptr nonnull %4) #16
  %103 = add nuw nsw i32 %12, 1
  %104 = load i32, ptr @iterations, align 4, !tbaa !11
  %105 = icmp slt i32 %103, %104
  br i1 %105, label %11, label %106, !llvm.loop !40

106:                                              ; preds = %102, %3
  %107 = call i64 @clock() #15
  store i64 %107, ptr @end_time, align 8, !tbaa !23
  %108 = load i64, ptr @start_time, align 8, !tbaa !23
  %109 = sub nsw i64 %107, %108
  %110 = sitofp i64 %109 to double
  %111 = fdiv double %110, 1.000000e+06
  call void @_Z13record_resultdPKc(double noundef %111, ptr noundef %2) #12
  ret void
}

; Function Attrs: mustprogress optsize uwtable
define internal void @_ZN13do_loop_testsILi31EdE7do_testEPKdPKc(ptr noundef %0, ptr noundef %1) #6 comdat align 2 {
  tail call void @_ZN13do_loop_testsILi29EdE7do_testEPKdPKc(ptr noundef %0, ptr noundef %1) #12
  tail call void @_Z26test_do_loop_unroll_factorILi30EdEvPKT0_iPKc(ptr noundef %0, i32 noundef 8000, ptr noundef nonnull getelementptr inbounds ([32 x [100 x i8]], ptr @temp_string, i64 0, i64 29)) #12
  tail call void @_Z26test_do_loop_unroll_factorILi31EdEvPKT0_iPKc(ptr noundef %0, i32 noundef 8000, ptr noundef nonnull getelementptr inbounds ([32 x [100 x i8]], ptr @temp_string, i64 0, i64 30)) #12
  ret void
}

; Function Attrs: mustprogress optsize uwtable
define internal void @_Z26test_do_loop_unroll_factorILi32EdEvPKT0_iPKc(ptr noundef %0, i32 noundef %1, ptr noundef %2) #6 comdat {
  %4 = alloca double, align 8
  %5 = tail call i64 @clock() #15
  store i64 %5, ptr @start_time, align 8, !tbaa !23
  %6 = load i32, ptr @iterations, align 4, !tbaa !11
  %7 = icmp sgt i32 %6, 0
  br i1 %7, label %8, label %106

8:                                                ; preds = %3
  %9 = icmp sgt i32 %1, 31
  %10 = add nsw i32 %1, -31
  %11 = sext i32 %1 to i64
  br label %12

12:                                               ; preds = %102, %8
  %13 = phi i32 [ 0, %8 ], [ %103, %102 ]
  call void @llvm.lifetime.start.p0(i64 8, ptr nonnull %4) #16
  store double 0.000000e+00, ptr %4, align 8, !tbaa !17
  br i1 %9, label %14, label %61

14:                                               ; preds = %14, %12
  %15 = phi i64 [ %58, %14 ], [ 0, %12 ]
  %16 = trunc i64 %15 to i32
  call void @_ZN15loop_inner_bodyILi28EdE7do_workERdPKdi(ptr noundef nonnull align 8 dereferenceable(8) %4, ptr noundef %0, i32 noundef %16) #12
  %17 = or i64 %15, 28
  %18 = getelementptr inbounds double, ptr %0, i64 %17
  %19 = load double, ptr %18, align 8, !tbaa !17
  %20 = fadd double %19, 1.234500e+04
  %21 = call double @llvm.fmuladd.f64(double %20, double 9.142370e+05, double -1.300000e+01)
  %22 = fadd double %21, 1.234500e+04
  %23 = call double @llvm.fmuladd.f64(double %22, double 9.142370e+05, double -1.300000e+01)
  %24 = fadd double %23, 1.234500e+04
  %25 = call double @llvm.fmuladd.f64(double %24, double 9.142370e+05, double -1.300000e+01)
  %26 = load double, ptr %4, align 8, !tbaa !17
  %27 = fadd double %26, %25
  %28 = or i64 %15, 29
  %29 = getelementptr inbounds double, ptr %0, i64 %28
  %30 = load double, ptr %29, align 8, !tbaa !17
  %31 = fadd double %30, 1.234500e+04
  %32 = call double @llvm.fmuladd.f64(double %31, double 9.142370e+05, double -1.300000e+01)
  %33 = fadd double %32, 1.234500e+04
  %34 = call double @llvm.fmuladd.f64(double %33, double 9.142370e+05, double -1.300000e+01)
  %35 = fadd double %34, 1.234500e+04
  %36 = call double @llvm.fmuladd.f64(double %35, double 9.142370e+05, double -1.300000e+01)
  %37 = fadd double %27, %36
  %38 = or i64 %15, 30
  %39 = getelementptr inbounds double, ptr %0, i64 %38
  %40 = load double, ptr %39, align 8, !tbaa !17
  %41 = fadd double %40, 1.234500e+04
  %42 = call double @llvm.fmuladd.f64(double %41, double 9.142370e+05, double -1.300000e+01)
  %43 = fadd double %42, 1.234500e+04
  %44 = call double @llvm.fmuladd.f64(double %43, double 9.142370e+05, double -1.300000e+01)
  %45 = fadd double %44, 1.234500e+04
  %46 = call double @llvm.fmuladd.f64(double %45, double 9.142370e+05, double -1.300000e+01)
  %47 = fadd double %37, %46
  %48 = or i64 %15, 31
  %49 = getelementptr inbounds double, ptr %0, i64 %48
  %50 = load double, ptr %49, align 8, !tbaa !17
  %51 = fadd double %50, 1.234500e+04
  %52 = call double @llvm.fmuladd.f64(double %51, double 9.142370e+05, double -1.300000e+01)
  %53 = fadd double %52, 1.234500e+04
  %54 = call double @llvm.fmuladd.f64(double %53, double 9.142370e+05, double -1.300000e+01)
  %55 = fadd double %54, 1.234500e+04
  %56 = call double @llvm.fmuladd.f64(double %55, double 9.142370e+05, double -1.300000e+01)
  %57 = fadd double %47, %56
  store double %57, ptr %4, align 8, !tbaa !17
  %58 = add nuw i64 %15, 32
  %59 = trunc i64 %58 to i32
  %60 = icmp sgt i32 %10, %59
  br i1 %60, label %14, label %61, !llvm.loop !41

61:                                               ; preds = %14, %12
  %62 = phi double [ 0.000000e+00, %12 ], [ %57, %14 ]
  %63 = phi i32 [ 0, %12 ], [ %59, %14 ]
  %64 = icmp slt i32 %63, %1
  br i1 %64, label %65, label %82

65:                                               ; preds = %61
  %66 = sext i32 %63 to i64
  br label %67

67:                                               ; preds = %67, %65
  %68 = phi i64 [ %66, %65 ], [ %79, %67 ]
  %69 = phi double [ %62, %65 ], [ %78, %67 ]
  %70 = getelementptr inbounds double, ptr %0, i64 %68
  %71 = load double, ptr %70, align 8, !tbaa !17
  %72 = fadd double %71, 1.234500e+04
  %73 = call double @llvm.fmuladd.f64(double %72, double 9.142370e+05, double -1.300000e+01)
  %74 = fadd double %73, 1.234500e+04
  %75 = call double @llvm.fmuladd.f64(double %74, double 9.142370e+05, double -1.300000e+01)
  %76 = fadd double %75, 1.234500e+04
  %77 = call double @llvm.fmuladd.f64(double %76, double 9.142370e+05, double -1.300000e+01)
  %78 = fadd double %69, %77
  %79 = add nsw i64 %68, 1
  %80 = icmp eq i64 %79, %11
  br i1 %80, label %81, label %67, !llvm.loop !42

81:                                               ; preds = %67
  %.lcssa = phi double [ %78, %67 ]
  store double %.lcssa, ptr %4, align 8, !tbaa !17
  br label %82

82:                                               ; preds = %81, %61
  %83 = phi double [ %.lcssa, %81 ], [ %62, %61 ]
  %84 = load double, ptr @init_value, align 8, !tbaa !17
  %85 = fadd double %84, 1.234500e+04
  %86 = call double @llvm.fmuladd.f64(double %85, double 9.142370e+05, double -1.300000e+01)
  %87 = fadd double %86, 1.234500e+04
  %88 = call double @llvm.fmuladd.f64(double %87, double 9.142370e+05, double -1.300000e+01)
  %89 = fadd double %88, 1.234500e+04
  %90 = call double @llvm.fmuladd.f64(double %89, double 9.142370e+05, double -1.300000e+01)
  %91 = fmul double %90, 8.000000e+03
  %92 = fsub double %83, %91
  %93 = call double @llvm.fabs.f64(double %83)
  %94 = fcmp ogt double %93, 1.000000e-08
  %95 = select i1 %94, double %83, double 1.000000e+00
  %96 = fdiv double %92, %95
  %97 = call double @llvm.fabs.f64(double %96)
  %98 = fcmp olt double %97, 0x3EB0C6F7A0B5ED8D
  br i1 %98, label %102, label %99

99:                                               ; preds = %82
  %100 = load i32, ptr @current_test, align 4, !tbaa !11
  %101 = call i32 (ptr, ...) @printf(ptr noundef nonnull dereferenceable(1) @.str.19, i32 noundef %100) #12
  br label %102

102:                                              ; preds = %99, %82
  call void @llvm.lifetime.end.p0(i64 8, ptr nonnull %4) #16
  %103 = add nuw nsw i32 %13, 1
  %104 = load i32, ptr @iterations, align 4, !tbaa !11
  %105 = icmp slt i32 %103, %104
  br i1 %105, label %12, label %106, !llvm.loop !43

106:                                              ; preds = %102, %3
  %107 = call i64 @clock() #15
  store i64 %107, ptr @end_time, align 8, !tbaa !23
  %108 = load i64, ptr @start_time, align 8, !tbaa !23
  %109 = sub nsw i64 %107, %108
  %110 = sitofp i64 %109 to double
  %111 = fdiv double %110, 1.000000e+06
  call void @_Z13record_resultdPKc(double noundef %111, ptr noundef %2) #12
  ret void
}

; Function Attrs: mustprogress optsize uwtable
define internal void @_ZN15goto_loop_testsILi31EdE7do_testEPKdPKc(ptr noundef %0, ptr noundef %1) #6 comdat align 2 {
  tail call void @_ZN15goto_loop_testsILi29EdE7do_testEPKdPKc(ptr noundef %0, ptr noundef %1) #12
  tail call void @_Z28test_goto_loop_unroll_factorILi30EdEvPKT0_iPKc(ptr noundef %0, i32 noundef 8000, ptr noundef nonnull getelementptr inbounds ([32 x [100 x i8]], ptr @temp_string, i64 0, i64 29)) #12
  tail call void @_Z28test_goto_loop_unroll_factorILi31EdEvPKT0_iPKc(ptr noundef %0, i32 noundef 8000, ptr noundef nonnull getelementptr inbounds ([32 x [100 x i8]], ptr @temp_string, i64 0, i64 30)) #12
  ret void
}

; Function Attrs: mustprogress optsize uwtable
define internal void @_Z28test_goto_loop_unroll_factorILi32EdEvPKT0_iPKc(ptr noundef %0, i32 noundef %1, ptr noundef %2) #6 comdat {
  %4 = alloca double, align 8
  %5 = tail call i64 @clock() #15
  store i64 %5, ptr @start_time, align 8, !tbaa !23
  %6 = load i32, ptr @iterations, align 4, !tbaa !11
  %7 = icmp sgt i32 %6, 0
  br i1 %7, label %8, label %106

8:                                                ; preds = %3
  %9 = icmp sgt i32 %1, 31
  %10 = add nsw i32 %1, -31
  %11 = sext i32 %1 to i64
  br label %12

12:                                               ; preds = %102, %8
  %13 = phi i32 [ 0, %8 ], [ %103, %102 ]
  call void @llvm.lifetime.start.p0(i64 8, ptr nonnull %4) #16
  store double 0.000000e+00, ptr %4, align 8, !tbaa !17
  br i1 %9, label %14, label %61

14:                                               ; preds = %14, %12
  %15 = phi i64 [ %58, %14 ], [ 0, %12 ]
  %16 = trunc i64 %15 to i32
  call void @_ZN15loop_inner_bodyILi28EdE7do_workERdPKdi(ptr noundef nonnull align 8 dereferenceable(8) %4, ptr noundef %0, i32 noundef %16) #12
  %17 = or i64 %15, 28
  %18 = getelementptr inbounds double, ptr %0, i64 %17
  %19 = load double, ptr %18, align 8, !tbaa !17
  %20 = fadd double %19, 1.234500e+04
  %21 = call double @llvm.fmuladd.f64(double %20, double 9.142370e+05, double -1.300000e+01)
  %22 = fadd double %21, 1.234500e+04
  %23 = call double @llvm.fmuladd.f64(double %22, double 9.142370e+05, double -1.300000e+01)
  %24 = fadd double %23, 1.234500e+04
  %25 = call double @llvm.fmuladd.f64(double %24, double 9.142370e+05, double -1.300000e+01)
  %26 = load double, ptr %4, align 8, !tbaa !17
  %27 = fadd double %26, %25
  %28 = or i64 %15, 29
  %29 = getelementptr inbounds double, ptr %0, i64 %28
  %30 = load double, ptr %29, align 8, !tbaa !17
  %31 = fadd double %30, 1.234500e+04
  %32 = call double @llvm.fmuladd.f64(double %31, double 9.142370e+05, double -1.300000e+01)
  %33 = fadd double %32, 1.234500e+04
  %34 = call double @llvm.fmuladd.f64(double %33, double 9.142370e+05, double -1.300000e+01)
  %35 = fadd double %34, 1.234500e+04
  %36 = call double @llvm.fmuladd.f64(double %35, double 9.142370e+05, double -1.300000e+01)
  %37 = fadd double %27, %36
  %38 = or i64 %15, 30
  %39 = getelementptr inbounds double, ptr %0, i64 %38
  %40 = load double, ptr %39, align 8, !tbaa !17
  %41 = fadd double %40, 1.234500e+04
  %42 = call double @llvm.fmuladd.f64(double %41, double 9.142370e+05, double -1.300000e+01)
  %43 = fadd double %42, 1.234500e+04
  %44 = call double @llvm.fmuladd.f64(double %43, double 9.142370e+05, double -1.300000e+01)
  %45 = fadd double %44, 1.234500e+04
  %46 = call double @llvm.fmuladd.f64(double %45, double 9.142370e+05, double -1.300000e+01)
  %47 = fadd double %37, %46
  %48 = or i64 %15, 31
  %49 = getelementptr inbounds double, ptr %0, i64 %48
  %50 = load double, ptr %49, align 8, !tbaa !17
  %51 = fadd double %50, 1.234500e+04
  %52 = call double @llvm.fmuladd.f64(double %51, double 9.142370e+05, double -1.300000e+01)
  %53 = fadd double %52, 1.234500e+04
  %54 = call double @llvm.fmuladd.f64(double %53, double 9.142370e+05, double -1.300000e+01)
  %55 = fadd double %54, 1.234500e+04
  %56 = call double @llvm.fmuladd.f64(double %55, double 9.142370e+05, double -1.300000e+01)
  %57 = fadd double %47, %56
  store double %57, ptr %4, align 8, !tbaa !17
  %58 = add nuw i64 %15, 32
  %59 = trunc i64 %58 to i32
  %60 = icmp sgt i32 %10, %59
  br i1 %60, label %14, label %61

61:                                               ; preds = %14, %12
  %62 = phi double [ 0.000000e+00, %12 ], [ %57, %14 ]
  %63 = phi i32 [ 0, %12 ], [ %59, %14 ]
  %64 = icmp slt i32 %63, %1
  br i1 %64, label %65, label %82

65:                                               ; preds = %61
  %66 = sext i32 %63 to i64
  br label %67

67:                                               ; preds = %67, %65
  %68 = phi i64 [ %66, %65 ], [ %79, %67 ]
  %69 = phi double [ %62, %65 ], [ %78, %67 ]
  %70 = getelementptr inbounds double, ptr %0, i64 %68
  %71 = load double, ptr %70, align 8, !tbaa !17
  %72 = fadd double %71, 1.234500e+04
  %73 = call double @llvm.fmuladd.f64(double %72, double 9.142370e+05, double -1.300000e+01)
  %74 = fadd double %73, 1.234500e+04
  %75 = call double @llvm.fmuladd.f64(double %74, double 9.142370e+05, double -1.300000e+01)
  %76 = fadd double %75, 1.234500e+04
  %77 = call double @llvm.fmuladd.f64(double %76, double 9.142370e+05, double -1.300000e+01)
  %78 = fadd double %69, %77
  %79 = add nsw i64 %68, 1
  %80 = icmp eq i64 %79, %11
  br i1 %80, label %81, label %67

81:                                               ; preds = %67
  %.lcssa = phi double [ %78, %67 ]
  store double %.lcssa, ptr %4, align 8, !tbaa !17
  br label %82

82:                                               ; preds = %81, %61
  %83 = phi double [ %.lcssa, %81 ], [ %62, %61 ]
  %84 = load double, ptr @init_value, align 8, !tbaa !17
  %85 = fadd double %84, 1.234500e+04
  %86 = call double @llvm.fmuladd.f64(double %85, double 9.142370e+05, double -1.300000e+01)
  %87 = fadd double %86, 1.234500e+04
  %88 = call double @llvm.fmuladd.f64(double %87, double 9.142370e+05, double -1.300000e+01)
  %89 = fadd double %88, 1.234500e+04
  %90 = call double @llvm.fmuladd.f64(double %89, double 9.142370e+05, double -1.300000e+01)
  %91 = fmul double %90, 8.000000e+03
  %92 = fsub double %83, %91
  %93 = call double @llvm.fabs.f64(double %83)
  %94 = fcmp ogt double %93, 1.000000e-08
  %95 = select i1 %94, double %83, double 1.000000e+00
  %96 = fdiv double %92, %95
  %97 = call double @llvm.fabs.f64(double %96)
  %98 = fcmp olt double %97, 0x3EB0C6F7A0B5ED8D
  br i1 %98, label %102, label %99

99:                                               ; preds = %82
  %100 = load i32, ptr @current_test, align 4, !tbaa !11
  %101 = call i32 (ptr, ...) @printf(ptr noundef nonnull dereferenceable(1) @.str.19, i32 noundef %100) #12
  br label %102

102:                                              ; preds = %99, %82
  call void @llvm.lifetime.end.p0(i64 8, ptr nonnull %4) #16
  %103 = add nuw nsw i32 %13, 1
  %104 = load i32, ptr @iterations, align 4, !tbaa !11
  %105 = icmp slt i32 %103, %104
  br i1 %105, label %12, label %106, !llvm.loop !44

106:                                              ; preds = %102, %3
  %107 = call i64 @clock() #15
  store i64 %107, ptr @end_time, align 8, !tbaa !23
  %108 = load i64, ptr @start_time, align 8, !tbaa !23
  %109 = sub nsw i64 %107, %108
  %110 = sitofp i64 %109 to double
  %111 = fdiv double %110, 1.000000e+06
  call void @_Z13record_resultdPKc(double noundef %111, ptr noundef %2) #12
  ret void
}

; Function Attrs: nounwind optsize
declare i64 @clock() local_unnamed_addr #7

; Function Attrs: nocallback nofree nosync nounwind willreturn memory(argmem: readwrite)
declare void @llvm.lifetime.start.p0(i64 immarg, ptr nocapture) #8

; Function Attrs: inlinehint mustprogress optsize uwtable
define internal void @_ZN15loop_inner_bodyILi28EdE7do_workERdPKdi(ptr noundef nonnull align 8 dereferenceable(8) %0, ptr noundef %1, i32 noundef %2) #9 comdat align 2 {
  tail call void @_ZN15loop_inner_bodyILi19EdE7do_workERdPKdi(ptr noundef nonnull align 8 dereferenceable(8) %0, ptr noundef %1, i32 noundef %2) #12
  %4 = add nsw i32 %2, 19
  %5 = sext i32 %4 to i64
  %6 = getelementptr inbounds double, ptr %1, i64 %5
  %7 = load double, ptr %6, align 8, !tbaa !17
  %8 = fadd double %7, 1.234500e+04
  %9 = tail call double @llvm.fmuladd.f64(double %8, double 9.142370e+05, double -1.300000e+01)
  %10 = fadd double %9, 1.234500e+04
  %11 = tail call double @llvm.fmuladd.f64(double %10, double 9.142370e+05, double -1.300000e+01)
  %12 = fadd double %11, 1.234500e+04
  %13 = tail call double @llvm.fmuladd.f64(double %12, double 9.142370e+05, double -1.300000e+01)
  %14 = load double, ptr %0, align 8, !tbaa !17
  %15 = fadd double %14, %13
  store double %15, ptr %0, align 8, !tbaa !17
  %16 = add nsw i32 %2, 20
  %17 = sext i32 %16 to i64
  %18 = getelementptr inbounds double, ptr %1, i64 %17
  %19 = load double, ptr %18, align 8, !tbaa !17
  %20 = fadd double %19, 1.234500e+04
  %21 = tail call double @llvm.fmuladd.f64(double %20, double 9.142370e+05, double -1.300000e+01)
  %22 = fadd double %21, 1.234500e+04
  %23 = tail call double @llvm.fmuladd.f64(double %22, double 9.142370e+05, double -1.300000e+01)
  %24 = fadd double %23, 1.234500e+04
  %25 = tail call double @llvm.fmuladd.f64(double %24, double 9.142370e+05, double -1.300000e+01)
  %26 = fadd double %15, %25
  store double %26, ptr %0, align 8, !tbaa !17
  %27 = add nsw i32 %2, 21
  %28 = sext i32 %27 to i64
  %29 = getelementptr inbounds double, ptr %1, i64 %28
  %30 = load double, ptr %29, align 8, !tbaa !17
  %31 = fadd double %30, 1.234500e+04
  %32 = tail call double @llvm.fmuladd.f64(double %31, double 9.142370e+05, double -1.300000e+01)
  %33 = fadd double %32, 1.234500e+04
  %34 = tail call double @llvm.fmuladd.f64(double %33, double 9.142370e+05, double -1.300000e+01)
  %35 = fadd double %34, 1.234500e+04
  %36 = tail call double @llvm.fmuladd.f64(double %35, double 9.142370e+05, double -1.300000e+01)
  %37 = fadd double %26, %36
  store double %37, ptr %0, align 8, !tbaa !17
  %38 = add nsw i32 %2, 22
  %39 = sext i32 %38 to i64
  %40 = getelementptr inbounds double, ptr %1, i64 %39
  %41 = load double, ptr %40, align 8, !tbaa !17
  %42 = fadd double %41, 1.234500e+04
  %43 = tail call double @llvm.fmuladd.f64(double %42, double 9.142370e+05, double -1.300000e+01)
  %44 = fadd double %43, 1.234500e+04
  %45 = tail call double @llvm.fmuladd.f64(double %44, double 9.142370e+05, double -1.300000e+01)
  %46 = fadd double %45, 1.234500e+04
  %47 = tail call double @llvm.fmuladd.f64(double %46, double 9.142370e+05, double -1.300000e+01)
  %48 = fadd double %37, %47
  store double %48, ptr %0, align 8, !tbaa !17
  %49 = add nsw i32 %2, 23
  %50 = sext i32 %49 to i64
  %51 = getelementptr inbounds double, ptr %1, i64 %50
  %52 = load double, ptr %51, align 8, !tbaa !17
  %53 = fadd double %52, 1.234500e+04
  %54 = tail call double @llvm.fmuladd.f64(double %53, double 9.142370e+05, double -1.300000e+01)
  %55 = fadd double %54, 1.234500e+04
  %56 = tail call double @llvm.fmuladd.f64(double %55, double 9.142370e+05, double -1.300000e+01)
  %57 = fadd double %56, 1.234500e+04
  %58 = tail call double @llvm.fmuladd.f64(double %57, double 9.142370e+05, double -1.300000e+01)
  %59 = fadd double %48, %58
  store double %59, ptr %0, align 8, !tbaa !17
  %60 = add nsw i32 %2, 24
  %61 = sext i32 %60 to i64
  %62 = getelementptr inbounds double, ptr %1, i64 %61
  %63 = load double, ptr %62, align 8, !tbaa !17
  %64 = fadd double %63, 1.234500e+04
  %65 = tail call double @llvm.fmuladd.f64(double %64, double 9.142370e+05, double -1.300000e+01)
  %66 = fadd double %65, 1.234500e+04
  %67 = tail call double @llvm.fmuladd.f64(double %66, double 9.142370e+05, double -1.300000e+01)
  %68 = fadd double %67, 1.234500e+04
  %69 = tail call double @llvm.fmuladd.f64(double %68, double 9.142370e+05, double -1.300000e+01)
  %70 = fadd double %59, %69
  store double %70, ptr %0, align 8, !tbaa !17
  %71 = add nsw i32 %2, 25
  %72 = sext i32 %71 to i64
  %73 = getelementptr inbounds double, ptr %1, i64 %72
  %74 = load double, ptr %73, align 8, !tbaa !17
  %75 = fadd double %74, 1.234500e+04
  %76 = tail call double @llvm.fmuladd.f64(double %75, double 9.142370e+05, double -1.300000e+01)
  %77 = fadd double %76, 1.234500e+04
  %78 = tail call double @llvm.fmuladd.f64(double %77, double 9.142370e+05, double -1.300000e+01)
  %79 = fadd double %78, 1.234500e+04
  %80 = tail call double @llvm.fmuladd.f64(double %79, double 9.142370e+05, double -1.300000e+01)
  %81 = fadd double %70, %80
  store double %81, ptr %0, align 8, !tbaa !17
  %82 = add nsw i32 %2, 26
  %83 = sext i32 %82 to i64
  %84 = getelementptr inbounds double, ptr %1, i64 %83
  %85 = load double, ptr %84, align 8, !tbaa !17
  %86 = fadd double %85, 1.234500e+04
  %87 = tail call double @llvm.fmuladd.f64(double %86, double 9.142370e+05, double -1.300000e+01)
  %88 = fadd double %87, 1.234500e+04
  %89 = tail call double @llvm.fmuladd.f64(double %88, double 9.142370e+05, double -1.300000e+01)
  %90 = fadd double %89, 1.234500e+04
  %91 = tail call double @llvm.fmuladd.f64(double %90, double 9.142370e+05, double -1.300000e+01)
  %92 = fadd double %81, %91
  store double %92, ptr %0, align 8, !tbaa !17
  %93 = add nsw i32 %2, 27
  %94 = sext i32 %93 to i64
  %95 = getelementptr inbounds double, ptr %1, i64 %94
  %96 = load double, ptr %95, align 8, !tbaa !17
  %97 = fadd double %96, 1.234500e+04
  %98 = tail call double @llvm.fmuladd.f64(double %97, double 9.142370e+05, double -1.300000e+01)
  %99 = fadd double %98, 1.234500e+04
  %100 = tail call double @llvm.fmuladd.f64(double %99, double 9.142370e+05, double -1.300000e+01)
  %101 = fadd double %100, 1.234500e+04
  %102 = tail call double @llvm.fmuladd.f64(double %101, double 9.142370e+05, double -1.300000e+01)
  %103 = fadd double %92, %102
  store double %103, ptr %0, align 8, !tbaa !17
  ret void
}

; Function Attrs: nocallback nofree nosync nounwind speculatable willreturn memory(none)
declare double @llvm.fmuladd.f64(double, double, double) #10

; Function Attrs: nocallback nofree nosync nounwind speculatable willreturn memory(none)
declare double @llvm.fabs.f64(double) #10

; Function Attrs: nocallback nofree nosync nounwind willreturn memory(argmem: readwrite)
declare void @llvm.lifetime.end.p0(i64 immarg, ptr nocapture) #8

; Function Attrs: inlinehint mustprogress optsize uwtable
define internal void @_ZN15loop_inner_bodyILi19EdE7do_workERdPKdi(ptr noundef nonnull align 8 dereferenceable(8) %0, ptr noundef %1, i32 noundef %2) #9 comdat align 2 {
  tail call void @_ZN15loop_inner_bodyILi10EdE7do_workERdPKdi(ptr noundef nonnull align 8 dereferenceable(8) %0, ptr noundef %1, i32 noundef %2) #12
  %4 = add nsw i32 %2, 10
  %5 = sext i32 %4 to i64
  %6 = getelementptr inbounds double, ptr %1, i64 %5
  %7 = load double, ptr %6, align 8, !tbaa !17
  %8 = fadd double %7, 1.234500e+04
  %9 = tail call double @llvm.fmuladd.f64(double %8, double 9.142370e+05, double -1.300000e+01)
  %10 = fadd double %9, 1.234500e+04
  %11 = tail call double @llvm.fmuladd.f64(double %10, double 9.142370e+05, double -1.300000e+01)
  %12 = fadd double %11, 1.234500e+04
  %13 = tail call double @llvm.fmuladd.f64(double %12, double 9.142370e+05, double -1.300000e+01)
  %14 = load double, ptr %0, align 8, !tbaa !17
  %15 = fadd double %14, %13
  store double %15, ptr %0, align 8, !tbaa !17
  %16 = add nsw i32 %2, 11
  %17 = sext i32 %16 to i64
  %18 = getelementptr inbounds double, ptr %1, i64 %17
  %19 = load double, ptr %18, align 8, !tbaa !17
  %20 = fadd double %19, 1.234500e+04
  %21 = tail call double @llvm.fmuladd.f64(double %20, double 9.142370e+05, double -1.300000e+01)
  %22 = fadd double %21, 1.234500e+04
  %23 = tail call double @llvm.fmuladd.f64(double %22, double 9.142370e+05, double -1.300000e+01)
  %24 = fadd double %23, 1.234500e+04
  %25 = tail call double @llvm.fmuladd.f64(double %24, double 9.142370e+05, double -1.300000e+01)
  %26 = fadd double %15, %25
  store double %26, ptr %0, align 8, !tbaa !17
  %27 = add nsw i32 %2, 12
  %28 = sext i32 %27 to i64
  %29 = getelementptr inbounds double, ptr %1, i64 %28
  %30 = load double, ptr %29, align 8, !tbaa !17
  %31 = fadd double %30, 1.234500e+04
  %32 = tail call double @llvm.fmuladd.f64(double %31, double 9.142370e+05, double -1.300000e+01)
  %33 = fadd double %32, 1.234500e+04
  %34 = tail call double @llvm.fmuladd.f64(double %33, double 9.142370e+05, double -1.300000e+01)
  %35 = fadd double %34, 1.234500e+04
  %36 = tail call double @llvm.fmuladd.f64(double %35, double 9.142370e+05, double -1.300000e+01)
  %37 = fadd double %26, %36
  store double %37, ptr %0, align 8, !tbaa !17
  %38 = add nsw i32 %2, 13
  %39 = sext i32 %38 to i64
  %40 = getelementptr inbounds double, ptr %1, i64 %39
  %41 = load double, ptr %40, align 8, !tbaa !17
  %42 = fadd double %41, 1.234500e+04
  %43 = tail call double @llvm.fmuladd.f64(double %42, double 9.142370e+05, double -1.300000e+01)
  %44 = fadd double %43, 1.234500e+04
  %45 = tail call double @llvm.fmuladd.f64(double %44, double 9.142370e+05, double -1.300000e+01)
  %46 = fadd double %45, 1.234500e+04
  %47 = tail call double @llvm.fmuladd.f64(double %46, double 9.142370e+05, double -1.300000e+01)
  %48 = fadd double %37, %47
  store double %48, ptr %0, align 8, !tbaa !17
  %49 = add nsw i32 %2, 14
  %50 = sext i32 %49 to i64
  %51 = getelementptr inbounds double, ptr %1, i64 %50
  %52 = load double, ptr %51, align 8, !tbaa !17
  %53 = fadd double %52, 1.234500e+04
  %54 = tail call double @llvm.fmuladd.f64(double %53, double 9.142370e+05, double -1.300000e+01)
  %55 = fadd double %54, 1.234500e+04
  %56 = tail call double @llvm.fmuladd.f64(double %55, double 9.142370e+05, double -1.300000e+01)
  %57 = fadd double %56, 1.234500e+04
  %58 = tail call double @llvm.fmuladd.f64(double %57, double 9.142370e+05, double -1.300000e+01)
  %59 = fadd double %48, %58
  store double %59, ptr %0, align 8, !tbaa !17
  %60 = add nsw i32 %2, 15
  %61 = sext i32 %60 to i64
  %62 = getelementptr inbounds double, ptr %1, i64 %61
  %63 = load double, ptr %62, align 8, !tbaa !17
  %64 = fadd double %63, 1.234500e+04
  %65 = tail call double @llvm.fmuladd.f64(double %64, double 9.142370e+05, double -1.300000e+01)
  %66 = fadd double %65, 1.234500e+04
  %67 = tail call double @llvm.fmuladd.f64(double %66, double 9.142370e+05, double -1.300000e+01)
  %68 = fadd double %67, 1.234500e+04
  %69 = tail call double @llvm.fmuladd.f64(double %68, double 9.142370e+05, double -1.300000e+01)
  %70 = fadd double %59, %69
  store double %70, ptr %0, align 8, !tbaa !17
  %71 = add nsw i32 %2, 16
  %72 = sext i32 %71 to i64
  %73 = getelementptr inbounds double, ptr %1, i64 %72
  %74 = load double, ptr %73, align 8, !tbaa !17
  %75 = fadd double %74, 1.234500e+04
  %76 = tail call double @llvm.fmuladd.f64(double %75, double 9.142370e+05, double -1.300000e+01)
  %77 = fadd double %76, 1.234500e+04
  %78 = tail call double @llvm.fmuladd.f64(double %77, double 9.142370e+05, double -1.300000e+01)
  %79 = fadd double %78, 1.234500e+04
  %80 = tail call double @llvm.fmuladd.f64(double %79, double 9.142370e+05, double -1.300000e+01)
  %81 = fadd double %70, %80
  store double %81, ptr %0, align 8, !tbaa !17
  %82 = add nsw i32 %2, 17
  %83 = sext i32 %82 to i64
  %84 = getelementptr inbounds double, ptr %1, i64 %83
  %85 = load double, ptr %84, align 8, !tbaa !17
  %86 = fadd double %85, 1.234500e+04
  %87 = tail call double @llvm.fmuladd.f64(double %86, double 9.142370e+05, double -1.300000e+01)
  %88 = fadd double %87, 1.234500e+04
  %89 = tail call double @llvm.fmuladd.f64(double %88, double 9.142370e+05, double -1.300000e+01)
  %90 = fadd double %89, 1.234500e+04
  %91 = tail call double @llvm.fmuladd.f64(double %90, double 9.142370e+05, double -1.300000e+01)
  %92 = fadd double %81, %91
  store double %92, ptr %0, align 8, !tbaa !17
  %93 = add nsw i32 %2, 18
  %94 = sext i32 %93 to i64
  %95 = getelementptr inbounds double, ptr %1, i64 %94
  %96 = load double, ptr %95, align 8, !tbaa !17
  %97 = fadd double %96, 1.234500e+04
  %98 = tail call double @llvm.fmuladd.f64(double %97, double 9.142370e+05, double -1.300000e+01)
  %99 = fadd double %98, 1.234500e+04
  %100 = tail call double @llvm.fmuladd.f64(double %99, double 9.142370e+05, double -1.300000e+01)
  %101 = fadd double %100, 1.234500e+04
  %102 = tail call double @llvm.fmuladd.f64(double %101, double 9.142370e+05, double -1.300000e+01)
  %103 = fadd double %92, %102
  store double %103, ptr %0, align 8, !tbaa !17
  ret void
}

; Function Attrs: inlinehint mustprogress optsize uwtable
define internal void @_ZN15loop_inner_bodyILi10EdE7do_workERdPKdi(ptr noundef nonnull align 8 dereferenceable(8) %0, ptr noundef %1, i32 noundef %2) #9 comdat align 2 {
  %4 = sext i32 %2 to i64
  %5 = getelementptr inbounds double, ptr %1, i64 %4
  %6 = load double, ptr %5, align 8, !tbaa !17
  %7 = fadd double %6, 1.234500e+04
  %8 = tail call double @llvm.fmuladd.f64(double %7, double 9.142370e+05, double -1.300000e+01)
  %9 = fadd double %8, 1.234500e+04
  %10 = tail call double @llvm.fmuladd.f64(double %9, double 9.142370e+05, double -1.300000e+01)
  %11 = fadd double %10, 1.234500e+04
  %12 = tail call double @llvm.fmuladd.f64(double %11, double 9.142370e+05, double -1.300000e+01)
  %13 = load double, ptr %0, align 8, !tbaa !17
  %14 = fadd double %13, %12
  store double %14, ptr %0, align 8, !tbaa !17
  %15 = add nsw i32 %2, 1
  %16 = sext i32 %15 to i64
  %17 = getelementptr inbounds double, ptr %1, i64 %16
  %18 = load double, ptr %17, align 8, !tbaa !17
  %19 = fadd double %18, 1.234500e+04
  %20 = tail call double @llvm.fmuladd.f64(double %19, double 9.142370e+05, double -1.300000e+01)
  %21 = fadd double %20, 1.234500e+04
  %22 = tail call double @llvm.fmuladd.f64(double %21, double 9.142370e+05, double -1.300000e+01)
  %23 = fadd double %22, 1.234500e+04
  %24 = tail call double @llvm.fmuladd.f64(double %23, double 9.142370e+05, double -1.300000e+01)
  %25 = fadd double %14, %24
  store double %25, ptr %0, align 8, !tbaa !17
  %26 = add nsw i32 %2, 2
  %27 = sext i32 %26 to i64
  %28 = getelementptr inbounds double, ptr %1, i64 %27
  %29 = load double, ptr %28, align 8, !tbaa !17
  %30 = fadd double %29, 1.234500e+04
  %31 = tail call double @llvm.fmuladd.f64(double %30, double 9.142370e+05, double -1.300000e+01)
  %32 = fadd double %31, 1.234500e+04
  %33 = tail call double @llvm.fmuladd.f64(double %32, double 9.142370e+05, double -1.300000e+01)
  %34 = fadd double %33, 1.234500e+04
  %35 = tail call double @llvm.fmuladd.f64(double %34, double 9.142370e+05, double -1.300000e+01)
  %36 = fadd double %25, %35
  store double %36, ptr %0, align 8, !tbaa !17
  %37 = add nsw i32 %2, 3
  %38 = sext i32 %37 to i64
  %39 = getelementptr inbounds double, ptr %1, i64 %38
  %40 = load double, ptr %39, align 8, !tbaa !17
  %41 = fadd double %40, 1.234500e+04
  %42 = tail call double @llvm.fmuladd.f64(double %41, double 9.142370e+05, double -1.300000e+01)
  %43 = fadd double %42, 1.234500e+04
  %44 = tail call double @llvm.fmuladd.f64(double %43, double 9.142370e+05, double -1.300000e+01)
  %45 = fadd double %44, 1.234500e+04
  %46 = tail call double @llvm.fmuladd.f64(double %45, double 9.142370e+05, double -1.300000e+01)
  %47 = fadd double %36, %46
  store double %47, ptr %0, align 8, !tbaa !17
  %48 = add nsw i32 %2, 4
  %49 = sext i32 %48 to i64
  %50 = getelementptr inbounds double, ptr %1, i64 %49
  %51 = load double, ptr %50, align 8, !tbaa !17
  %52 = fadd double %51, 1.234500e+04
  %53 = tail call double @llvm.fmuladd.f64(double %52, double 9.142370e+05, double -1.300000e+01)
  %54 = fadd double %53, 1.234500e+04
  %55 = tail call double @llvm.fmuladd.f64(double %54, double 9.142370e+05, double -1.300000e+01)
  %56 = fadd double %55, 1.234500e+04
  %57 = tail call double @llvm.fmuladd.f64(double %56, double 9.142370e+05, double -1.300000e+01)
  %58 = fadd double %47, %57
  store double %58, ptr %0, align 8, !tbaa !17
  %59 = add nsw i32 %2, 5
  %60 = sext i32 %59 to i64
  %61 = getelementptr inbounds double, ptr %1, i64 %60
  %62 = load double, ptr %61, align 8, !tbaa !17
  %63 = fadd double %62, 1.234500e+04
  %64 = tail call double @llvm.fmuladd.f64(double %63, double 9.142370e+05, double -1.300000e+01)
  %65 = fadd double %64, 1.234500e+04
  %66 = tail call double @llvm.fmuladd.f64(double %65, double 9.142370e+05, double -1.300000e+01)
  %67 = fadd double %66, 1.234500e+04
  %68 = tail call double @llvm.fmuladd.f64(double %67, double 9.142370e+05, double -1.300000e+01)
  %69 = fadd double %58, %68
  store double %69, ptr %0, align 8, !tbaa !17
  %70 = add nsw i32 %2, 6
  %71 = sext i32 %70 to i64
  %72 = getelementptr inbounds double, ptr %1, i64 %71
  %73 = load double, ptr %72, align 8, !tbaa !17
  %74 = fadd double %73, 1.234500e+04
  %75 = tail call double @llvm.fmuladd.f64(double %74, double 9.142370e+05, double -1.300000e+01)
  %76 = fadd double %75, 1.234500e+04
  %77 = tail call double @llvm.fmuladd.f64(double %76, double 9.142370e+05, double -1.300000e+01)
  %78 = fadd double %77, 1.234500e+04
  %79 = tail call double @llvm.fmuladd.f64(double %78, double 9.142370e+05, double -1.300000e+01)
  %80 = fadd double %69, %79
  store double %80, ptr %0, align 8, !tbaa !17
  %81 = add nsw i32 %2, 7
  %82 = sext i32 %81 to i64
  %83 = getelementptr inbounds double, ptr %1, i64 %82
  %84 = load double, ptr %83, align 8, !tbaa !17
  %85 = fadd double %84, 1.234500e+04
  %86 = tail call double @llvm.fmuladd.f64(double %85, double 9.142370e+05, double -1.300000e+01)
  %87 = fadd double %86, 1.234500e+04
  %88 = tail call double @llvm.fmuladd.f64(double %87, double 9.142370e+05, double -1.300000e+01)
  %89 = fadd double %88, 1.234500e+04
  %90 = tail call double @llvm.fmuladd.f64(double %89, double 9.142370e+05, double -1.300000e+01)
  %91 = fadd double %80, %90
  store double %91, ptr %0, align 8, !tbaa !17
  %92 = add nsw i32 %2, 8
  %93 = sext i32 %92 to i64
  %94 = getelementptr inbounds double, ptr %1, i64 %93
  %95 = load double, ptr %94, align 8, !tbaa !17
  %96 = fadd double %95, 1.234500e+04
  %97 = tail call double @llvm.fmuladd.f64(double %96, double 9.142370e+05, double -1.300000e+01)
  %98 = fadd double %97, 1.234500e+04
  %99 = tail call double @llvm.fmuladd.f64(double %98, double 9.142370e+05, double -1.300000e+01)
  %100 = fadd double %99, 1.234500e+04
  %101 = tail call double @llvm.fmuladd.f64(double %100, double 9.142370e+05, double -1.300000e+01)
  %102 = fadd double %91, %101
  store double %102, ptr %0, align 8, !tbaa !17
  %103 = add nsw i32 %2, 9
  %104 = sext i32 %103 to i64
  %105 = getelementptr inbounds double, ptr %1, i64 %104
  %106 = load double, ptr %105, align 8, !tbaa !17
  %107 = fadd double %106, 1.234500e+04
  %108 = tail call double @llvm.fmuladd.f64(double %107, double 9.142370e+05, double -1.300000e+01)
  %109 = fadd double %108, 1.234500e+04
  %110 = tail call double @llvm.fmuladd.f64(double %109, double 9.142370e+05, double -1.300000e+01)
  %111 = fadd double %110, 1.234500e+04
  %112 = tail call double @llvm.fmuladd.f64(double %111, double 9.142370e+05, double -1.300000e+01)
  %113 = fadd double %102, %112
  store double %113, ptr %0, align 8, !tbaa !17
  ret void
}

; Function Attrs: mustprogress optsize uwtable
define internal void @_ZN15goto_loop_testsILi29EdE7do_testEPKdPKc(ptr noundef %0, ptr noundef %1) #6 comdat align 2 {
  tail call void @_ZN15goto_loop_testsILi27EdE7do_testEPKdPKc(ptr noundef %0, ptr noundef %1) #12
  tail call void @_Z28test_goto_loop_unroll_factorILi28EdEvPKT0_iPKc(ptr noundef %0, i32 noundef 8000, ptr noundef nonnull getelementptr inbounds ([32 x [100 x i8]], ptr @temp_string, i64 0, i64 27)) #12
  tail call void @_Z28test_goto_loop_unroll_factorILi29EdEvPKT0_iPKc(ptr noundef %0, i32 noundef 8000, ptr noundef nonnull getelementptr inbounds ([32 x [100 x i8]], ptr @temp_string, i64 0, i64 28)) #12
  ret void
}

; Function Attrs: mustprogress optsize uwtable
define internal void @_Z28test_goto_loop_unroll_factorILi30EdEvPKT0_iPKc(ptr noundef %0, i32 noundef %1, ptr noundef %2) #6 comdat {
  %4 = alloca double, align 8
  %5 = tail call i64 @clock() #15
  store i64 %5, ptr @start_time, align 8, !tbaa !23
  %6 = load i32, ptr @iterations, align 4, !tbaa !11
  %7 = icmp sgt i32 %6, 0
  br i1 %7, label %8, label %86

8:                                                ; preds = %3
  %9 = icmp sgt i32 %1, 29
  %10 = add nsw i32 %1, -29
  %11 = sext i32 %1 to i64
  br label %12

12:                                               ; preds = %82, %8
  %13 = phi i32 [ 0, %8 ], [ %83, %82 ]
  call void @llvm.lifetime.start.p0(i64 8, ptr nonnull %4) #16
  store double 0.000000e+00, ptr %4, align 8, !tbaa !17
  br i1 %9, label %14, label %41

14:                                               ; preds = %14, %12
  %15 = phi i64 [ %38, %14 ], [ 0, %12 ]
  %16 = trunc i64 %15 to i32
  call void @_ZN15loop_inner_bodyILi28EdE7do_workERdPKdi(ptr noundef nonnull align 8 dereferenceable(8) %4, ptr noundef %0, i32 noundef %16) #12
  %17 = add nuw nsw i64 %15, 28
  %18 = getelementptr inbounds double, ptr %0, i64 %17
  %19 = load double, ptr %18, align 8, !tbaa !17
  %20 = fadd double %19, 1.234500e+04
  %21 = call double @llvm.fmuladd.f64(double %20, double 9.142370e+05, double -1.300000e+01)
  %22 = fadd double %21, 1.234500e+04
  %23 = call double @llvm.fmuladd.f64(double %22, double 9.142370e+05, double -1.300000e+01)
  %24 = fadd double %23, 1.234500e+04
  %25 = call double @llvm.fmuladd.f64(double %24, double 9.142370e+05, double -1.300000e+01)
  %26 = load double, ptr %4, align 8, !tbaa !17
  %27 = fadd double %26, %25
  %28 = add nuw nsw i64 %15, 29
  %29 = getelementptr inbounds double, ptr %0, i64 %28
  %30 = load double, ptr %29, align 8, !tbaa !17
  %31 = fadd double %30, 1.234500e+04
  %32 = call double @llvm.fmuladd.f64(double %31, double 9.142370e+05, double -1.300000e+01)
  %33 = fadd double %32, 1.234500e+04
  %34 = call double @llvm.fmuladd.f64(double %33, double 9.142370e+05, double -1.300000e+01)
  %35 = fadd double %34, 1.234500e+04
  %36 = call double @llvm.fmuladd.f64(double %35, double 9.142370e+05, double -1.300000e+01)
  %37 = fadd double %27, %36
  store double %37, ptr %4, align 8, !tbaa !17
  %38 = add nuw i64 %15, 30
  %39 = trunc i64 %38 to i32
  %40 = icmp sgt i32 %10, %39
  br i1 %40, label %14, label %41

41:                                               ; preds = %14, %12
  %42 = phi double [ 0.000000e+00, %12 ], [ %37, %14 ]
  %43 = phi i32 [ 0, %12 ], [ %39, %14 ]
  %44 = icmp slt i32 %43, %1
  br i1 %44, label %45, label %62

45:                                               ; preds = %41
  %46 = sext i32 %43 to i64
  br label %47

47:                                               ; preds = %47, %45
  %48 = phi i64 [ %46, %45 ], [ %59, %47 ]
  %49 = phi double [ %42, %45 ], [ %58, %47 ]
  %50 = getelementptr inbounds double, ptr %0, i64 %48
  %51 = load double, ptr %50, align 8, !tbaa !17
  %52 = fadd double %51, 1.234500e+04
  %53 = call double @llvm.fmuladd.f64(double %52, double 9.142370e+05, double -1.300000e+01)
  %54 = fadd double %53, 1.234500e+04
  %55 = call double @llvm.fmuladd.f64(double %54, double 9.142370e+05, double -1.300000e+01)
  %56 = fadd double %55, 1.234500e+04
  %57 = call double @llvm.fmuladd.f64(double %56, double 9.142370e+05, double -1.300000e+01)
  %58 = fadd double %49, %57
  %59 = add nsw i64 %48, 1
  %60 = icmp eq i64 %59, %11
  br i1 %60, label %61, label %47

61:                                               ; preds = %47
  %.lcssa = phi double [ %58, %47 ]
  store double %.lcssa, ptr %4, align 8, !tbaa !17
  br label %62

62:                                               ; preds = %61, %41
  %63 = phi double [ %.lcssa, %61 ], [ %42, %41 ]
  %64 = load double, ptr @init_value, align 8, !tbaa !17
  %65 = fadd double %64, 1.234500e+04
  %66 = call double @llvm.fmuladd.f64(double %65, double 9.142370e+05, double -1.300000e+01)
  %67 = fadd double %66, 1.234500e+04
  %68 = call double @llvm.fmuladd.f64(double %67, double 9.142370e+05, double -1.300000e+01)
  %69 = fadd double %68, 1.234500e+04
  %70 = call double @llvm.fmuladd.f64(double %69, double 9.142370e+05, double -1.300000e+01)
  %71 = fmul double %70, 8.000000e+03
  %72 = fsub double %63, %71
  %73 = call double @llvm.fabs.f64(double %63)
  %74 = fcmp ogt double %73, 1.000000e-08
  %75 = select i1 %74, double %63, double 1.000000e+00
  %76 = fdiv double %72, %75
  %77 = call double @llvm.fabs.f64(double %76)
  %78 = fcmp olt double %77, 0x3EB0C6F7A0B5ED8D
  br i1 %78, label %82, label %79

79:                                               ; preds = %62
  %80 = load i32, ptr @current_test, align 4, !tbaa !11
  %81 = call i32 (ptr, ...) @printf(ptr noundef nonnull dereferenceable(1) @.str.19, i32 noundef %80) #12
  br label %82

82:                                               ; preds = %79, %62
  call void @llvm.lifetime.end.p0(i64 8, ptr nonnull %4) #16
  %83 = add nuw nsw i32 %13, 1
  %84 = load i32, ptr @iterations, align 4, !tbaa !11
  %85 = icmp slt i32 %83, %84
  br i1 %85, label %12, label %86, !llvm.loop !45

86:                                               ; preds = %82, %3
  %87 = call i64 @clock() #15
  store i64 %87, ptr @end_time, align 8, !tbaa !23
  %88 = load i64, ptr @start_time, align 8, !tbaa !23
  %89 = sub nsw i64 %87, %88
  %90 = sitofp i64 %89 to double
  %91 = fdiv double %90, 1.000000e+06
  call void @_Z13record_resultdPKc(double noundef %91, ptr noundef %2) #12
  ret void
}

; Function Attrs: mustprogress optsize uwtable
define internal void @_Z28test_goto_loop_unroll_factorILi31EdEvPKT0_iPKc(ptr noundef %0, i32 noundef %1, ptr noundef %2) #6 comdat {
  %4 = alloca double, align 8
  %5 = tail call i64 @clock() #15
  store i64 %5, ptr @start_time, align 8, !tbaa !23
  %6 = load i32, ptr @iterations, align 4, !tbaa !11
  %7 = icmp sgt i32 %6, 0
  br i1 %7, label %8, label %96

8:                                                ; preds = %3
  %9 = icmp sgt i32 %1, 30
  %10 = add nsw i32 %1, -30
  %11 = sext i32 %1 to i64
  br label %12

12:                                               ; preds = %92, %8
  %13 = phi i32 [ 0, %8 ], [ %93, %92 ]
  call void @llvm.lifetime.start.p0(i64 8, ptr nonnull %4) #16
  store double 0.000000e+00, ptr %4, align 8, !tbaa !17
  br i1 %9, label %14, label %51

14:                                               ; preds = %14, %12
  %15 = phi i64 [ %48, %14 ], [ 0, %12 ]
  %16 = trunc i64 %15 to i32
  call void @_ZN15loop_inner_bodyILi28EdE7do_workERdPKdi(ptr noundef nonnull align 8 dereferenceable(8) %4, ptr noundef %0, i32 noundef %16) #12
  %17 = add nuw nsw i64 %15, 28
  %18 = getelementptr inbounds double, ptr %0, i64 %17
  %19 = load double, ptr %18, align 8, !tbaa !17
  %20 = fadd double %19, 1.234500e+04
  %21 = call double @llvm.fmuladd.f64(double %20, double 9.142370e+05, double -1.300000e+01)
  %22 = fadd double %21, 1.234500e+04
  %23 = call double @llvm.fmuladd.f64(double %22, double 9.142370e+05, double -1.300000e+01)
  %24 = fadd double %23, 1.234500e+04
  %25 = call double @llvm.fmuladd.f64(double %24, double 9.142370e+05, double -1.300000e+01)
  %26 = load double, ptr %4, align 8, !tbaa !17
  %27 = fadd double %26, %25
  %28 = add nuw nsw i64 %15, 29
  %29 = getelementptr inbounds double, ptr %0, i64 %28
  %30 = load double, ptr %29, align 8, !tbaa !17
  %31 = fadd double %30, 1.234500e+04
  %32 = call double @llvm.fmuladd.f64(double %31, double 9.142370e+05, double -1.300000e+01)
  %33 = fadd double %32, 1.234500e+04
  %34 = call double @llvm.fmuladd.f64(double %33, double 9.142370e+05, double -1.300000e+01)
  %35 = fadd double %34, 1.234500e+04
  %36 = call double @llvm.fmuladd.f64(double %35, double 9.142370e+05, double -1.300000e+01)
  %37 = fadd double %27, %36
  %38 = add nuw nsw i64 %15, 30
  %39 = getelementptr inbounds double, ptr %0, i64 %38
  %40 = load double, ptr %39, align 8, !tbaa !17
  %41 = fadd double %40, 1.234500e+04
  %42 = call double @llvm.fmuladd.f64(double %41, double 9.142370e+05, double -1.300000e+01)
  %43 = fadd double %42, 1.234500e+04
  %44 = call double @llvm.fmuladd.f64(double %43, double 9.142370e+05, double -1.300000e+01)
  %45 = fadd double %44, 1.234500e+04
  %46 = call double @llvm.fmuladd.f64(double %45, double 9.142370e+05, double -1.300000e+01)
  %47 = fadd double %37, %46
  store double %47, ptr %4, align 8, !tbaa !17
  %48 = add nuw i64 %15, 31
  %49 = trunc i64 %48 to i32
  %50 = icmp sgt i32 %10, %49
  br i1 %50, label %14, label %51

51:                                               ; preds = %14, %12
  %52 = phi double [ 0.000000e+00, %12 ], [ %47, %14 ]
  %53 = phi i32 [ 0, %12 ], [ %49, %14 ]
  %54 = icmp slt i32 %53, %1
  br i1 %54, label %55, label %72

55:                                               ; preds = %51
  %56 = sext i32 %53 to i64
  br label %57

57:                                               ; preds = %57, %55
  %58 = phi i64 [ %56, %55 ], [ %69, %57 ]
  %59 = phi double [ %52, %55 ], [ %68, %57 ]
  %60 = getelementptr inbounds double, ptr %0, i64 %58
  %61 = load double, ptr %60, align 8, !tbaa !17
  %62 = fadd double %61, 1.234500e+04
  %63 = call double @llvm.fmuladd.f64(double %62, double 9.142370e+05, double -1.300000e+01)
  %64 = fadd double %63, 1.234500e+04
  %65 = call double @llvm.fmuladd.f64(double %64, double 9.142370e+05, double -1.300000e+01)
  %66 = fadd double %65, 1.234500e+04
  %67 = call double @llvm.fmuladd.f64(double %66, double 9.142370e+05, double -1.300000e+01)
  %68 = fadd double %59, %67
  %69 = add nsw i64 %58, 1
  %70 = icmp eq i64 %69, %11
  br i1 %70, label %71, label %57

71:                                               ; preds = %57
  %.lcssa = phi double [ %68, %57 ]
  store double %.lcssa, ptr %4, align 8, !tbaa !17
  br label %72

72:                                               ; preds = %71, %51
  %73 = phi double [ %.lcssa, %71 ], [ %52, %51 ]
  %74 = load double, ptr @init_value, align 8, !tbaa !17
  %75 = fadd double %74, 1.234500e+04
  %76 = call double @llvm.fmuladd.f64(double %75, double 9.142370e+05, double -1.300000e+01)
  %77 = fadd double %76, 1.234500e+04
  %78 = call double @llvm.fmuladd.f64(double %77, double 9.142370e+05, double -1.300000e+01)
  %79 = fadd double %78, 1.234500e+04
  %80 = call double @llvm.fmuladd.f64(double %79, double 9.142370e+05, double -1.300000e+01)
  %81 = fmul double %80, 8.000000e+03
  %82 = fsub double %73, %81
  %83 = call double @llvm.fabs.f64(double %73)
  %84 = fcmp ogt double %83, 1.000000e-08
  %85 = select i1 %84, double %73, double 1.000000e+00
  %86 = fdiv double %82, %85
  %87 = call double @llvm.fabs.f64(double %86)
  %88 = fcmp olt double %87, 0x3EB0C6F7A0B5ED8D
  br i1 %88, label %92, label %89

89:                                               ; preds = %72
  %90 = load i32, ptr @current_test, align 4, !tbaa !11
  %91 = call i32 (ptr, ...) @printf(ptr noundef nonnull dereferenceable(1) @.str.19, i32 noundef %90) #12
  br label %92

92:                                               ; preds = %89, %72
  call void @llvm.lifetime.end.p0(i64 8, ptr nonnull %4) #16
  %93 = add nuw nsw i32 %13, 1
  %94 = load i32, ptr @iterations, align 4, !tbaa !11
  %95 = icmp slt i32 %93, %94
  br i1 %95, label %12, label %96, !llvm.loop !46

96:                                               ; preds = %92, %3
  %97 = call i64 @clock() #15
  store i64 %97, ptr @end_time, align 8, !tbaa !23
  %98 = load i64, ptr @start_time, align 8, !tbaa !23
  %99 = sub nsw i64 %97, %98
  %100 = sitofp i64 %99 to double
  %101 = fdiv double %100, 1.000000e+06
  call void @_Z13record_resultdPKc(double noundef %101, ptr noundef %2) #12
  ret void
}

; Function Attrs: mustprogress optsize uwtable
define internal void @_ZN15goto_loop_testsILi27EdE7do_testEPKdPKc(ptr noundef %0, ptr noundef %1) #6 comdat align 2 {
  tail call void @_ZN15goto_loop_testsILi25EdE7do_testEPKdPKc(ptr noundef %0, ptr noundef %1) #12
  tail call void @_Z28test_goto_loop_unroll_factorILi26EdEvPKT0_iPKc(ptr noundef %0, i32 noundef 8000, ptr noundef nonnull getelementptr inbounds ([32 x [100 x i8]], ptr @temp_string, i64 0, i64 25)) #12
  tail call void @_Z28test_goto_loop_unroll_factorILi27EdEvPKT0_iPKc(ptr noundef %0, i32 noundef 8000, ptr noundef nonnull getelementptr inbounds ([32 x [100 x i8]], ptr @temp_string, i64 0, i64 26)) #12
  ret void
}

; Function Attrs: mustprogress optsize uwtable
define internal void @_Z28test_goto_loop_unroll_factorILi28EdEvPKT0_iPKc(ptr noundef %0, i32 noundef %1, ptr noundef %2) #6 comdat {
  %4 = alloca double, align 8
  %5 = tail call i64 @clock() #15
  store i64 %5, ptr @start_time, align 8, !tbaa !23
  %6 = load i32, ptr @iterations, align 4, !tbaa !11
  %7 = icmp sgt i32 %6, 0
  br i1 %7, label %8, label %65

8:                                                ; preds = %3
  %9 = icmp sgt i32 %1, 27
  %10 = add nsw i32 %1, -27
  %11 = sext i32 %1 to i64
  br label %12

12:                                               ; preds = %61, %8
  %13 = phi i32 [ 0, %8 ], [ %62, %61 ]
  call void @llvm.lifetime.start.p0(i64 8, ptr nonnull %4) #16
  store double 0.000000e+00, ptr %4, align 8, !tbaa !17
  br i1 %9, label %14, label %20

14:                                               ; preds = %14, %12
  %15 = phi i32 [ %16, %14 ], [ 0, %12 ]
  call void @_ZN15loop_inner_bodyILi28EdE7do_workERdPKdi(ptr noundef nonnull align 8 dereferenceable(8) %4, ptr noundef %0, i32 noundef %15) #12
  %16 = add nuw nsw i32 %15, 28
  %17 = icmp slt i32 %16, %10
  br i1 %17, label %14, label %18

18:                                               ; preds = %14
  %.lcssa = phi i32 [ %16, %14 ]
  %19 = load double, ptr %4, align 8, !tbaa !17
  br label %20

20:                                               ; preds = %18, %12
  %21 = phi double [ 0.000000e+00, %12 ], [ %19, %18 ]
  %22 = phi i32 [ 0, %12 ], [ %.lcssa, %18 ]
  %23 = icmp slt i32 %22, %1
  br i1 %23, label %24, label %41

24:                                               ; preds = %20
  %25 = sext i32 %22 to i64
  br label %26

26:                                               ; preds = %26, %24
  %27 = phi i64 [ %25, %24 ], [ %38, %26 ]
  %28 = phi double [ %21, %24 ], [ %37, %26 ]
  %29 = getelementptr inbounds double, ptr %0, i64 %27
  %30 = load double, ptr %29, align 8, !tbaa !17
  %31 = fadd double %30, 1.234500e+04
  %32 = call double @llvm.fmuladd.f64(double %31, double 9.142370e+05, double -1.300000e+01)
  %33 = fadd double %32, 1.234500e+04
  %34 = call double @llvm.fmuladd.f64(double %33, double 9.142370e+05, double -1.300000e+01)
  %35 = fadd double %34, 1.234500e+04
  %36 = call double @llvm.fmuladd.f64(double %35, double 9.142370e+05, double -1.300000e+01)
  %37 = fadd double %28, %36
  %38 = add nsw i64 %27, 1
  %39 = icmp eq i64 %38, %11
  br i1 %39, label %40, label %26

40:                                               ; preds = %26
  %.lcssa1 = phi double [ %37, %26 ]
  store double %.lcssa1, ptr %4, align 8, !tbaa !17
  br label %41

41:                                               ; preds = %40, %20
  %42 = phi double [ %.lcssa1, %40 ], [ %21, %20 ]
  %43 = load double, ptr @init_value, align 8, !tbaa !17
  %44 = fadd double %43, 1.234500e+04
  %45 = call double @llvm.fmuladd.f64(double %44, double 9.142370e+05, double -1.300000e+01)
  %46 = fadd double %45, 1.234500e+04
  %47 = call double @llvm.fmuladd.f64(double %46, double 9.142370e+05, double -1.300000e+01)
  %48 = fadd double %47, 1.234500e+04
  %49 = call double @llvm.fmuladd.f64(double %48, double 9.142370e+05, double -1.300000e+01)
  %50 = fmul double %49, 8.000000e+03
  %51 = fsub double %42, %50
  %52 = call double @llvm.fabs.f64(double %42)
  %53 = fcmp ogt double %52, 1.000000e-08
  %54 = select i1 %53, double %42, double 1.000000e+00
  %55 = fdiv double %51, %54
  %56 = call double @llvm.fabs.f64(double %55)
  %57 = fcmp olt double %56, 0x3EB0C6F7A0B5ED8D
  br i1 %57, label %61, label %58

58:                                               ; preds = %41
  %59 = load i32, ptr @current_test, align 4, !tbaa !11
  %60 = call i32 (ptr, ...) @printf(ptr noundef nonnull dereferenceable(1) @.str.19, i32 noundef %59) #12
  br label %61

61:                                               ; preds = %58, %41
  call void @llvm.lifetime.end.p0(i64 8, ptr nonnull %4) #16
  %62 = add nuw nsw i32 %13, 1
  %63 = load i32, ptr @iterations, align 4, !tbaa !11
  %64 = icmp slt i32 %62, %63
  br i1 %64, label %12, label %65, !llvm.loop !47

65:                                               ; preds = %61, %3
  %66 = call i64 @clock() #15
  store i64 %66, ptr @end_time, align 8, !tbaa !23
  %67 = load i64, ptr @start_time, align 8, !tbaa !23
  %68 = sub nsw i64 %66, %67
  %69 = sitofp i64 %68 to double
  %70 = fdiv double %69, 1.000000e+06
  call void @_Z13record_resultdPKc(double noundef %70, ptr noundef %2) #12
  ret void
}

; Function Attrs: mustprogress optsize uwtable
define internal void @_Z28test_goto_loop_unroll_factorILi29EdEvPKT0_iPKc(ptr noundef %0, i32 noundef %1, ptr noundef %2) #6 comdat {
  %4 = alloca double, align 8
  %5 = tail call i64 @clock() #15
  store i64 %5, ptr @start_time, align 8, !tbaa !23
  %6 = load i32, ptr @iterations, align 4, !tbaa !11
  %7 = icmp sgt i32 %6, 0
  br i1 %7, label %8, label %76

8:                                                ; preds = %3
  %9 = icmp sgt i32 %1, 28
  %10 = add nsw i32 %1, -28
  %11 = sext i32 %1 to i64
  br label %12

12:                                               ; preds = %72, %8
  %13 = phi i32 [ 0, %8 ], [ %73, %72 ]
  call void @llvm.lifetime.start.p0(i64 8, ptr nonnull %4) #16
  store double 0.000000e+00, ptr %4, align 8, !tbaa !17
  br i1 %9, label %14, label %31

14:                                               ; preds = %14, %12
  %15 = phi i64 [ %28, %14 ], [ 0, %12 ]
  %16 = trunc i64 %15 to i32
  call void @_ZN15loop_inner_bodyILi28EdE7do_workERdPKdi(ptr noundef nonnull align 8 dereferenceable(8) %4, ptr noundef %0, i32 noundef %16) #12
  %17 = add nuw nsw i64 %15, 28
  %18 = getelementptr inbounds double, ptr %0, i64 %17
  %19 = load double, ptr %18, align 8, !tbaa !17
  %20 = fadd double %19, 1.234500e+04
  %21 = call double @llvm.fmuladd.f64(double %20, double 9.142370e+05, double -1.300000e+01)
  %22 = fadd double %21, 1.234500e+04
  %23 = call double @llvm.fmuladd.f64(double %22, double 9.142370e+05, double -1.300000e+01)
  %24 = fadd double %23, 1.234500e+04
  %25 = call double @llvm.fmuladd.f64(double %24, double 9.142370e+05, double -1.300000e+01)
  %26 = load double, ptr %4, align 8, !tbaa !17
  %27 = fadd double %26, %25
  store double %27, ptr %4, align 8, !tbaa !17
  %28 = add nuw i64 %15, 29
  %29 = trunc i64 %28 to i32
  %30 = icmp sgt i32 %10, %29
  br i1 %30, label %14, label %31

31:                                               ; preds = %14, %12
  %32 = phi double [ 0.000000e+00, %12 ], [ %27, %14 ]
  %33 = phi i32 [ 0, %12 ], [ %29, %14 ]
  %34 = icmp slt i32 %33, %1
  br i1 %34, label %35, label %52

35:                                               ; preds = %31
  %36 = sext i32 %33 to i64
  br label %37

37:                                               ; preds = %37, %35
  %38 = phi i64 [ %36, %35 ], [ %49, %37 ]
  %39 = phi double [ %32, %35 ], [ %48, %37 ]
  %40 = getelementptr inbounds double, ptr %0, i64 %38
  %41 = load double, ptr %40, align 8, !tbaa !17
  %42 = fadd double %41, 1.234500e+04
  %43 = call double @llvm.fmuladd.f64(double %42, double 9.142370e+05, double -1.300000e+01)
  %44 = fadd double %43, 1.234500e+04
  %45 = call double @llvm.fmuladd.f64(double %44, double 9.142370e+05, double -1.300000e+01)
  %46 = fadd double %45, 1.234500e+04
  %47 = call double @llvm.fmuladd.f64(double %46, double 9.142370e+05, double -1.300000e+01)
  %48 = fadd double %39, %47
  %49 = add nsw i64 %38, 1
  %50 = icmp eq i64 %49, %11
  br i1 %50, label %51, label %37

51:                                               ; preds = %37
  %.lcssa = phi double [ %48, %37 ]
  store double %.lcssa, ptr %4, align 8, !tbaa !17
  br label %52

52:                                               ; preds = %51, %31
  %53 = phi double [ %.lcssa, %51 ], [ %32, %31 ]
  %54 = load double, ptr @init_value, align 8, !tbaa !17
  %55 = fadd double %54, 1.234500e+04
  %56 = call double @llvm.fmuladd.f64(double %55, double 9.142370e+05, double -1.300000e+01)
  %57 = fadd double %56, 1.234500e+04
  %58 = call double @llvm.fmuladd.f64(double %57, double 9.142370e+05, double -1.300000e+01)
  %59 = fadd double %58, 1.234500e+04
  %60 = call double @llvm.fmuladd.f64(double %59, double 9.142370e+05, double -1.300000e+01)
  %61 = fmul double %60, 8.000000e+03
  %62 = fsub double %53, %61
  %63 = call double @llvm.fabs.f64(double %53)
  %64 = fcmp ogt double %63, 1.000000e-08
  %65 = select i1 %64, double %53, double 1.000000e+00
  %66 = fdiv double %62, %65
  %67 = call double @llvm.fabs.f64(double %66)
  %68 = fcmp olt double %67, 0x3EB0C6F7A0B5ED8D
  br i1 %68, label %72, label %69

69:                                               ; preds = %52
  %70 = load i32, ptr @current_test, align 4, !tbaa !11
  %71 = call i32 (ptr, ...) @printf(ptr noundef nonnull dereferenceable(1) @.str.19, i32 noundef %70) #12
  br label %72

72:                                               ; preds = %69, %52
  call void @llvm.lifetime.end.p0(i64 8, ptr nonnull %4) #16
  %73 = add nuw nsw i32 %13, 1
  %74 = load i32, ptr @iterations, align 4, !tbaa !11
  %75 = icmp slt i32 %73, %74
  br i1 %75, label %12, label %76, !llvm.loop !48

76:                                               ; preds = %72, %3
  %77 = call i64 @clock() #15
  store i64 %77, ptr @end_time, align 8, !tbaa !23
  %78 = load i64, ptr @start_time, align 8, !tbaa !23
  %79 = sub nsw i64 %77, %78
  %80 = sitofp i64 %79 to double
  %81 = fdiv double %80, 1.000000e+06
  call void @_Z13record_resultdPKc(double noundef %81, ptr noundef %2) #12
  ret void
}

; Function Attrs: mustprogress optsize uwtable
define internal void @_ZN15goto_loop_testsILi25EdE7do_testEPKdPKc(ptr noundef %0, ptr noundef %1) #6 comdat align 2 {
  tail call void @_ZN15goto_loop_testsILi23EdE7do_testEPKdPKc(ptr noundef %0, ptr noundef %1) #12
  tail call void @_Z28test_goto_loop_unroll_factorILi24EdEvPKT0_iPKc(ptr noundef %0, i32 noundef 8000, ptr noundef nonnull getelementptr inbounds ([32 x [100 x i8]], ptr @temp_string, i64 0, i64 23)) #12
  tail call void @_Z28test_goto_loop_unroll_factorILi25EdEvPKT0_iPKc(ptr noundef %0, i32 noundef 8000, ptr noundef nonnull getelementptr inbounds ([32 x [100 x i8]], ptr @temp_string, i64 0, i64 24)) #12
  ret void
}

; Function Attrs: mustprogress optsize uwtable
define internal void @_Z28test_goto_loop_unroll_factorILi26EdEvPKT0_iPKc(ptr noundef %0, i32 noundef %1, ptr noundef %2) #6 comdat {
  %4 = alloca double, align 8
  %5 = tail call i64 @clock() #15
  store i64 %5, ptr @start_time, align 8, !tbaa !23
  %6 = load i32, ptr @iterations, align 4, !tbaa !11
  %7 = icmp sgt i32 %6, 0
  br i1 %7, label %8, label %136

8:                                                ; preds = %3
  %9 = icmp sgt i32 %1, 25
  %10 = add nsw i32 %1, -25
  %11 = sext i32 %1 to i64
  br label %12

12:                                               ; preds = %132, %8
  %13 = phi i32 [ 0, %8 ], [ %133, %132 ]
  call void @llvm.lifetime.start.p0(i64 8, ptr nonnull %4) #16
  store double 0.000000e+00, ptr %4, align 8, !tbaa !17
  br i1 %9, label %14, label %91

14:                                               ; preds = %14, %12
  %15 = phi i64 [ %88, %14 ], [ 0, %12 ]
  %16 = trunc i64 %15 to i32
  call void @_ZN15loop_inner_bodyILi19EdE7do_workERdPKdi(ptr noundef nonnull align 8 dereferenceable(8) %4, ptr noundef %0, i32 noundef %16) #12
  %17 = add nuw nsw i64 %15, 19
  %18 = getelementptr inbounds double, ptr %0, i64 %17
  %19 = load double, ptr %18, align 8, !tbaa !17
  %20 = fadd double %19, 1.234500e+04
  %21 = call double @llvm.fmuladd.f64(double %20, double 9.142370e+05, double -1.300000e+01)
  %22 = fadd double %21, 1.234500e+04
  %23 = call double @llvm.fmuladd.f64(double %22, double 9.142370e+05, double -1.300000e+01)
  %24 = fadd double %23, 1.234500e+04
  %25 = call double @llvm.fmuladd.f64(double %24, double 9.142370e+05, double -1.300000e+01)
  %26 = load double, ptr %4, align 8, !tbaa !17
  %27 = fadd double %26, %25
  %28 = add nuw nsw i64 %15, 20
  %29 = getelementptr inbounds double, ptr %0, i64 %28
  %30 = load double, ptr %29, align 8, !tbaa !17
  %31 = fadd double %30, 1.234500e+04
  %32 = call double @llvm.fmuladd.f64(double %31, double 9.142370e+05, double -1.300000e+01)
  %33 = fadd double %32, 1.234500e+04
  %34 = call double @llvm.fmuladd.f64(double %33, double 9.142370e+05, double -1.300000e+01)
  %35 = fadd double %34, 1.234500e+04
  %36 = call double @llvm.fmuladd.f64(double %35, double 9.142370e+05, double -1.300000e+01)
  %37 = fadd double %27, %36
  %38 = add nuw nsw i64 %15, 21
  %39 = getelementptr inbounds double, ptr %0, i64 %38
  %40 = load double, ptr %39, align 8, !tbaa !17
  %41 = fadd double %40, 1.234500e+04
  %42 = call double @llvm.fmuladd.f64(double %41, double 9.142370e+05, double -1.300000e+01)
  %43 = fadd double %42, 1.234500e+04
  %44 = call double @llvm.fmuladd.f64(double %43, double 9.142370e+05, double -1.300000e+01)
  %45 = fadd double %44, 1.234500e+04
  %46 = call double @llvm.fmuladd.f64(double %45, double 9.142370e+05, double -1.300000e+01)
  %47 = fadd double %37, %46
  %48 = add nuw nsw i64 %15, 22
  %49 = getelementptr inbounds double, ptr %0, i64 %48
  %50 = load double, ptr %49, align 8, !tbaa !17
  %51 = fadd double %50, 1.234500e+04
  %52 = call double @llvm.fmuladd.f64(double %51, double 9.142370e+05, double -1.300000e+01)
  %53 = fadd double %52, 1.234500e+04
  %54 = call double @llvm.fmuladd.f64(double %53, double 9.142370e+05, double -1.300000e+01)
  %55 = fadd double %54, 1.234500e+04
  %56 = call double @llvm.fmuladd.f64(double %55, double 9.142370e+05, double -1.300000e+01)
  %57 = fadd double %47, %56
  %58 = add nuw nsw i64 %15, 23
  %59 = getelementptr inbounds double, ptr %0, i64 %58
  %60 = load double, ptr %59, align 8, !tbaa !17
  %61 = fadd double %60, 1.234500e+04
  %62 = call double @llvm.fmuladd.f64(double %61, double 9.142370e+05, double -1.300000e+01)
  %63 = fadd double %62, 1.234500e+04
  %64 = call double @llvm.fmuladd.f64(double %63, double 9.142370e+05, double -1.300000e+01)
  %65 = fadd double %64, 1.234500e+04
  %66 = call double @llvm.fmuladd.f64(double %65, double 9.142370e+05, double -1.300000e+01)
  %67 = fadd double %57, %66
  %68 = add nuw nsw i64 %15, 24
  %69 = getelementptr inbounds double, ptr %0, i64 %68
  %70 = load double, ptr %69, align 8, !tbaa !17
  %71 = fadd double %70, 1.234500e+04
  %72 = call double @llvm.fmuladd.f64(double %71, double 9.142370e+05, double -1.300000e+01)
  %73 = fadd double %72, 1.234500e+04
  %74 = call double @llvm.fmuladd.f64(double %73, double 9.142370e+05, double -1.300000e+01)
  %75 = fadd double %74, 1.234500e+04
  %76 = call double @llvm.fmuladd.f64(double %75, double 9.142370e+05, double -1.300000e+01)
  %77 = fadd double %67, %76
  %78 = add nuw nsw i64 %15, 25
  %79 = getelementptr inbounds double, ptr %0, i64 %78
  %80 = load double, ptr %79, align 8, !tbaa !17
  %81 = fadd double %80, 1.234500e+04
  %82 = call double @llvm.fmuladd.f64(double %81, double 9.142370e+05, double -1.300000e+01)
  %83 = fadd double %82, 1.234500e+04
  %84 = call double @llvm.fmuladd.f64(double %83, double 9.142370e+05, double -1.300000e+01)
  %85 = fadd double %84, 1.234500e+04
  %86 = call double @llvm.fmuladd.f64(double %85, double 9.142370e+05, double -1.300000e+01)
  %87 = fadd double %77, %86
  store double %87, ptr %4, align 8, !tbaa !17
  %88 = add nuw i64 %15, 26
  %89 = trunc i64 %88 to i32
  %90 = icmp sgt i32 %10, %89
  br i1 %90, label %14, label %91

91:                                               ; preds = %14, %12
  %92 = phi double [ 0.000000e+00, %12 ], [ %87, %14 ]
  %93 = phi i32 [ 0, %12 ], [ %89, %14 ]
  %94 = icmp slt i32 %93, %1
  br i1 %94, label %95, label %112

95:                                               ; preds = %91
  %96 = sext i32 %93 to i64
  br label %97

97:                                               ; preds = %97, %95
  %98 = phi i64 [ %96, %95 ], [ %109, %97 ]
  %99 = phi double [ %92, %95 ], [ %108, %97 ]
  %100 = getelementptr inbounds double, ptr %0, i64 %98
  %101 = load double, ptr %100, align 8, !tbaa !17
  %102 = fadd double %101, 1.234500e+04
  %103 = call double @llvm.fmuladd.f64(double %102, double 9.142370e+05, double -1.300000e+01)
  %104 = fadd double %103, 1.234500e+04
  %105 = call double @llvm.fmuladd.f64(double %104, double 9.142370e+05, double -1.300000e+01)
  %106 = fadd double %105, 1.234500e+04
  %107 = call double @llvm.fmuladd.f64(double %106, double 9.142370e+05, double -1.300000e+01)
  %108 = fadd double %99, %107
  %109 = add nsw i64 %98, 1
  %110 = icmp eq i64 %109, %11
  br i1 %110, label %111, label %97

111:                                              ; preds = %97
  %.lcssa = phi double [ %108, %97 ]
  store double %.lcssa, ptr %4, align 8, !tbaa !17
  br label %112

112:                                              ; preds = %111, %91
  %113 = phi double [ %.lcssa, %111 ], [ %92, %91 ]
  %114 = load double, ptr @init_value, align 8, !tbaa !17
  %115 = fadd double %114, 1.234500e+04
  %116 = call double @llvm.fmuladd.f64(double %115, double 9.142370e+05, double -1.300000e+01)
  %117 = fadd double %116, 1.234500e+04
  %118 = call double @llvm.fmuladd.f64(double %117, double 9.142370e+05, double -1.300000e+01)
  %119 = fadd double %118, 1.234500e+04
  %120 = call double @llvm.fmuladd.f64(double %119, double 9.142370e+05, double -1.300000e+01)
  %121 = fmul double %120, 8.000000e+03
  %122 = fsub double %113, %121
  %123 = call double @llvm.fabs.f64(double %113)
  %124 = fcmp ogt double %123, 1.000000e-08
  %125 = select i1 %124, double %113, double 1.000000e+00
  %126 = fdiv double %122, %125
  %127 = call double @llvm.fabs.f64(double %126)
  %128 = fcmp olt double %127, 0x3EB0C6F7A0B5ED8D
  br i1 %128, label %132, label %129

129:                                              ; preds = %112
  %130 = load i32, ptr @current_test, align 4, !tbaa !11
  %131 = call i32 (ptr, ...) @printf(ptr noundef nonnull dereferenceable(1) @.str.19, i32 noundef %130) #12
  br label %132

132:                                              ; preds = %129, %112
  call void @llvm.lifetime.end.p0(i64 8, ptr nonnull %4) #16
  %133 = add nuw nsw i32 %13, 1
  %134 = load i32, ptr @iterations, align 4, !tbaa !11
  %135 = icmp slt i32 %133, %134
  br i1 %135, label %12, label %136, !llvm.loop !49

136:                                              ; preds = %132, %3
  %137 = call i64 @clock() #15
  store i64 %137, ptr @end_time, align 8, !tbaa !23
  %138 = load i64, ptr @start_time, align 8, !tbaa !23
  %139 = sub nsw i64 %137, %138
  %140 = sitofp i64 %139 to double
  %141 = fdiv double %140, 1.000000e+06
  call void @_Z13record_resultdPKc(double noundef %141, ptr noundef %2) #12
  ret void
}

; Function Attrs: mustprogress optsize uwtable
define internal void @_Z28test_goto_loop_unroll_factorILi27EdEvPKT0_iPKc(ptr noundef %0, i32 noundef %1, ptr noundef %2) #6 comdat {
  %4 = alloca double, align 8
  %5 = tail call i64 @clock() #15
  store i64 %5, ptr @start_time, align 8, !tbaa !23
  %6 = load i32, ptr @iterations, align 4, !tbaa !11
  %7 = icmp sgt i32 %6, 0
  br i1 %7, label %8, label %146

8:                                                ; preds = %3
  %9 = icmp sgt i32 %1, 26
  %10 = add nsw i32 %1, -26
  %11 = sext i32 %1 to i64
  br label %12

12:                                               ; preds = %142, %8
  %13 = phi i32 [ 0, %8 ], [ %143, %142 ]
  call void @llvm.lifetime.start.p0(i64 8, ptr nonnull %4) #16
  store double 0.000000e+00, ptr %4, align 8, !tbaa !17
  br i1 %9, label %14, label %101

14:                                               ; preds = %14, %12
  %15 = phi i64 [ %98, %14 ], [ 0, %12 ]
  %16 = trunc i64 %15 to i32
  call void @_ZN15loop_inner_bodyILi19EdE7do_workERdPKdi(ptr noundef nonnull align 8 dereferenceable(8) %4, ptr noundef %0, i32 noundef %16) #12
  %17 = add nuw nsw i64 %15, 19
  %18 = getelementptr inbounds double, ptr %0, i64 %17
  %19 = load double, ptr %18, align 8, !tbaa !17
  %20 = fadd double %19, 1.234500e+04
  %21 = call double @llvm.fmuladd.f64(double %20, double 9.142370e+05, double -1.300000e+01)
  %22 = fadd double %21, 1.234500e+04
  %23 = call double @llvm.fmuladd.f64(double %22, double 9.142370e+05, double -1.300000e+01)
  %24 = fadd double %23, 1.234500e+04
  %25 = call double @llvm.fmuladd.f64(double %24, double 9.142370e+05, double -1.300000e+01)
  %26 = load double, ptr %4, align 8, !tbaa !17
  %27 = fadd double %26, %25
  %28 = add nuw nsw i64 %15, 20
  %29 = getelementptr inbounds double, ptr %0, i64 %28
  %30 = load double, ptr %29, align 8, !tbaa !17
  %31 = fadd double %30, 1.234500e+04
  %32 = call double @llvm.fmuladd.f64(double %31, double 9.142370e+05, double -1.300000e+01)
  %33 = fadd double %32, 1.234500e+04
  %34 = call double @llvm.fmuladd.f64(double %33, double 9.142370e+05, double -1.300000e+01)
  %35 = fadd double %34, 1.234500e+04
  %36 = call double @llvm.fmuladd.f64(double %35, double 9.142370e+05, double -1.300000e+01)
  %37 = fadd double %27, %36
  %38 = add nuw nsw i64 %15, 21
  %39 = getelementptr inbounds double, ptr %0, i64 %38
  %40 = load double, ptr %39, align 8, !tbaa !17
  %41 = fadd double %40, 1.234500e+04
  %42 = call double @llvm.fmuladd.f64(double %41, double 9.142370e+05, double -1.300000e+01)
  %43 = fadd double %42, 1.234500e+04
  %44 = call double @llvm.fmuladd.f64(double %43, double 9.142370e+05, double -1.300000e+01)
  %45 = fadd double %44, 1.234500e+04
  %46 = call double @llvm.fmuladd.f64(double %45, double 9.142370e+05, double -1.300000e+01)
  %47 = fadd double %37, %46
  %48 = add nuw nsw i64 %15, 22
  %49 = getelementptr inbounds double, ptr %0, i64 %48
  %50 = load double, ptr %49, align 8, !tbaa !17
  %51 = fadd double %50, 1.234500e+04
  %52 = call double @llvm.fmuladd.f64(double %51, double 9.142370e+05, double -1.300000e+01)
  %53 = fadd double %52, 1.234500e+04
  %54 = call double @llvm.fmuladd.f64(double %53, double 9.142370e+05, double -1.300000e+01)
  %55 = fadd double %54, 1.234500e+04
  %56 = call double @llvm.fmuladd.f64(double %55, double 9.142370e+05, double -1.300000e+01)
  %57 = fadd double %47, %56
  %58 = add nuw nsw i64 %15, 23
  %59 = getelementptr inbounds double, ptr %0, i64 %58
  %60 = load double, ptr %59, align 8, !tbaa !17
  %61 = fadd double %60, 1.234500e+04
  %62 = call double @llvm.fmuladd.f64(double %61, double 9.142370e+05, double -1.300000e+01)
  %63 = fadd double %62, 1.234500e+04
  %64 = call double @llvm.fmuladd.f64(double %63, double 9.142370e+05, double -1.300000e+01)
  %65 = fadd double %64, 1.234500e+04
  %66 = call double @llvm.fmuladd.f64(double %65, double 9.142370e+05, double -1.300000e+01)
  %67 = fadd double %57, %66
  %68 = add nuw nsw i64 %15, 24
  %69 = getelementptr inbounds double, ptr %0, i64 %68
  %70 = load double, ptr %69, align 8, !tbaa !17
  %71 = fadd double %70, 1.234500e+04
  %72 = call double @llvm.fmuladd.f64(double %71, double 9.142370e+05, double -1.300000e+01)
  %73 = fadd double %72, 1.234500e+04
  %74 = call double @llvm.fmuladd.f64(double %73, double 9.142370e+05, double -1.300000e+01)
  %75 = fadd double %74, 1.234500e+04
  %76 = call double @llvm.fmuladd.f64(double %75, double 9.142370e+05, double -1.300000e+01)
  %77 = fadd double %67, %76
  %78 = add nuw nsw i64 %15, 25
  %79 = getelementptr inbounds double, ptr %0, i64 %78
  %80 = load double, ptr %79, align 8, !tbaa !17
  %81 = fadd double %80, 1.234500e+04
  %82 = call double @llvm.fmuladd.f64(double %81, double 9.142370e+05, double -1.300000e+01)
  %83 = fadd double %82, 1.234500e+04
  %84 = call double @llvm.fmuladd.f64(double %83, double 9.142370e+05, double -1.300000e+01)
  %85 = fadd double %84, 1.234500e+04
  %86 = call double @llvm.fmuladd.f64(double %85, double 9.142370e+05, double -1.300000e+01)
  %87 = fadd double %77, %86
  %88 = add nuw nsw i64 %15, 26
  %89 = getelementptr inbounds double, ptr %0, i64 %88
  %90 = load double, ptr %89, align 8, !tbaa !17
  %91 = fadd double %90, 1.234500e+04
  %92 = call double @llvm.fmuladd.f64(double %91, double 9.142370e+05, double -1.300000e+01)
  %93 = fadd double %92, 1.234500e+04
  %94 = call double @llvm.fmuladd.f64(double %93, double 9.142370e+05, double -1.300000e+01)
  %95 = fadd double %94, 1.234500e+04
  %96 = call double @llvm.fmuladd.f64(double %95, double 9.142370e+05, double -1.300000e+01)
  %97 = fadd double %87, %96
  store double %97, ptr %4, align 8, !tbaa !17
  %98 = add nuw i64 %15, 27
  %99 = trunc i64 %98 to i32
  %100 = icmp sgt i32 %10, %99
  br i1 %100, label %14, label %101

101:                                              ; preds = %14, %12
  %102 = phi double [ 0.000000e+00, %12 ], [ %97, %14 ]
  %103 = phi i32 [ 0, %12 ], [ %99, %14 ]
  %104 = icmp slt i32 %103, %1
  br i1 %104, label %105, label %122

105:                                              ; preds = %101
  %106 = sext i32 %103 to i64
  br label %107

107:                                              ; preds = %107, %105
  %108 = phi i64 [ %106, %105 ], [ %119, %107 ]
  %109 = phi double [ %102, %105 ], [ %118, %107 ]
  %110 = getelementptr inbounds double, ptr %0, i64 %108
  %111 = load double, ptr %110, align 8, !tbaa !17
  %112 = fadd double %111, 1.234500e+04
  %113 = call double @llvm.fmuladd.f64(double %112, double 9.142370e+05, double -1.300000e+01)
  %114 = fadd double %113, 1.234500e+04
  %115 = call double @llvm.fmuladd.f64(double %114, double 9.142370e+05, double -1.300000e+01)
  %116 = fadd double %115, 1.234500e+04
  %117 = call double @llvm.fmuladd.f64(double %116, double 9.142370e+05, double -1.300000e+01)
  %118 = fadd double %109, %117
  %119 = add nsw i64 %108, 1
  %120 = icmp eq i64 %119, %11
  br i1 %120, label %121, label %107

121:                                              ; preds = %107
  %.lcssa = phi double [ %118, %107 ]
  store double %.lcssa, ptr %4, align 8, !tbaa !17
  br label %122

122:                                              ; preds = %121, %101
  %123 = phi double [ %.lcssa, %121 ], [ %102, %101 ]
  %124 = load double, ptr @init_value, align 8, !tbaa !17
  %125 = fadd double %124, 1.234500e+04
  %126 = call double @llvm.fmuladd.f64(double %125, double 9.142370e+05, double -1.300000e+01)
  %127 = fadd double %126, 1.234500e+04
  %128 = call double @llvm.fmuladd.f64(double %127, double 9.142370e+05, double -1.300000e+01)
  %129 = fadd double %128, 1.234500e+04
  %130 = call double @llvm.fmuladd.f64(double %129, double 9.142370e+05, double -1.300000e+01)
  %131 = fmul double %130, 8.000000e+03
  %132 = fsub double %123, %131
  %133 = call double @llvm.fabs.f64(double %123)
  %134 = fcmp ogt double %133, 1.000000e-08
  %135 = select i1 %134, double %123, double 1.000000e+00
  %136 = fdiv double %132, %135
  %137 = call double @llvm.fabs.f64(double %136)
  %138 = fcmp olt double %137, 0x3EB0C6F7A0B5ED8D
  br i1 %138, label %142, label %139

139:                                              ; preds = %122
  %140 = load i32, ptr @current_test, align 4, !tbaa !11
  %141 = call i32 (ptr, ...) @printf(ptr noundef nonnull dereferenceable(1) @.str.19, i32 noundef %140) #12
  br label %142

142:                                              ; preds = %139, %122
  call void @llvm.lifetime.end.p0(i64 8, ptr nonnull %4) #16
  %143 = add nuw nsw i32 %13, 1
  %144 = load i32, ptr @iterations, align 4, !tbaa !11
  %145 = icmp slt i32 %143, %144
  br i1 %145, label %12, label %146, !llvm.loop !50

146:                                              ; preds = %142, %3
  %147 = call i64 @clock() #15
  store i64 %147, ptr @end_time, align 8, !tbaa !23
  %148 = load i64, ptr @start_time, align 8, !tbaa !23
  %149 = sub nsw i64 %147, %148
  %150 = sitofp i64 %149 to double
  %151 = fdiv double %150, 1.000000e+06
  call void @_Z13record_resultdPKc(double noundef %151, ptr noundef %2) #12
  ret void
}

; Function Attrs: mustprogress optsize uwtable
define internal void @_ZN15goto_loop_testsILi23EdE7do_testEPKdPKc(ptr noundef %0, ptr noundef %1) #6 comdat align 2 {
  tail call void @_ZN15goto_loop_testsILi21EdE7do_testEPKdPKc(ptr noundef %0, ptr noundef %1) #12
  tail call void @_Z28test_goto_loop_unroll_factorILi22EdEvPKT0_iPKc(ptr noundef %0, i32 noundef 8000, ptr noundef nonnull getelementptr inbounds ([32 x [100 x i8]], ptr @temp_string, i64 0, i64 21)) #12
  tail call void @_Z28test_goto_loop_unroll_factorILi23EdEvPKT0_iPKc(ptr noundef %0, i32 noundef 8000, ptr noundef nonnull getelementptr inbounds ([32 x [100 x i8]], ptr @temp_string, i64 0, i64 22)) #12
  ret void
}

; Function Attrs: mustprogress optsize uwtable
define internal void @_Z28test_goto_loop_unroll_factorILi24EdEvPKT0_iPKc(ptr noundef %0, i32 noundef %1, ptr noundef %2) #6 comdat {
  %4 = alloca double, align 8
  %5 = tail call i64 @clock() #15
  store i64 %5, ptr @start_time, align 8, !tbaa !23
  %6 = load i32, ptr @iterations, align 4, !tbaa !11
  %7 = icmp sgt i32 %6, 0
  br i1 %7, label %8, label %116

8:                                                ; preds = %3
  %9 = icmp sgt i32 %1, 23
  %10 = add nsw i32 %1, -23
  %11 = sext i32 %1 to i64
  br label %12

12:                                               ; preds = %112, %8
  %13 = phi i32 [ 0, %8 ], [ %113, %112 ]
  call void @llvm.lifetime.start.p0(i64 8, ptr nonnull %4) #16
  store double 0.000000e+00, ptr %4, align 8, !tbaa !17
  br i1 %9, label %14, label %71

14:                                               ; preds = %14, %12
  %15 = phi i64 [ %68, %14 ], [ 0, %12 ]
  %16 = trunc i64 %15 to i32
  call void @_ZN15loop_inner_bodyILi19EdE7do_workERdPKdi(ptr noundef nonnull align 8 dereferenceable(8) %4, ptr noundef %0, i32 noundef %16) #12
  %17 = add nuw nsw i64 %15, 19
  %18 = getelementptr inbounds double, ptr %0, i64 %17
  %19 = load double, ptr %18, align 8, !tbaa !17
  %20 = fadd double %19, 1.234500e+04
  %21 = call double @llvm.fmuladd.f64(double %20, double 9.142370e+05, double -1.300000e+01)
  %22 = fadd double %21, 1.234500e+04
  %23 = call double @llvm.fmuladd.f64(double %22, double 9.142370e+05, double -1.300000e+01)
  %24 = fadd double %23, 1.234500e+04
  %25 = call double @llvm.fmuladd.f64(double %24, double 9.142370e+05, double -1.300000e+01)
  %26 = load double, ptr %4, align 8, !tbaa !17
  %27 = fadd double %26, %25
  %28 = add nuw nsw i64 %15, 20
  %29 = getelementptr inbounds double, ptr %0, i64 %28
  %30 = load double, ptr %29, align 8, !tbaa !17
  %31 = fadd double %30, 1.234500e+04
  %32 = call double @llvm.fmuladd.f64(double %31, double 9.142370e+05, double -1.300000e+01)
  %33 = fadd double %32, 1.234500e+04
  %34 = call double @llvm.fmuladd.f64(double %33, double 9.142370e+05, double -1.300000e+01)
  %35 = fadd double %34, 1.234500e+04
  %36 = call double @llvm.fmuladd.f64(double %35, double 9.142370e+05, double -1.300000e+01)
  %37 = fadd double %27, %36
  %38 = add nuw nsw i64 %15, 21
  %39 = getelementptr inbounds double, ptr %0, i64 %38
  %40 = load double, ptr %39, align 8, !tbaa !17
  %41 = fadd double %40, 1.234500e+04
  %42 = call double @llvm.fmuladd.f64(double %41, double 9.142370e+05, double -1.300000e+01)
  %43 = fadd double %42, 1.234500e+04
  %44 = call double @llvm.fmuladd.f64(double %43, double 9.142370e+05, double -1.300000e+01)
  %45 = fadd double %44, 1.234500e+04
  %46 = call double @llvm.fmuladd.f64(double %45, double 9.142370e+05, double -1.300000e+01)
  %47 = fadd double %37, %46
  %48 = add nuw nsw i64 %15, 22
  %49 = getelementptr inbounds double, ptr %0, i64 %48
  %50 = load double, ptr %49, align 8, !tbaa !17
  %51 = fadd double %50, 1.234500e+04
  %52 = call double @llvm.fmuladd.f64(double %51, double 9.142370e+05, double -1.300000e+01)
  %53 = fadd double %52, 1.234500e+04
  %54 = call double @llvm.fmuladd.f64(double %53, double 9.142370e+05, double -1.300000e+01)
  %55 = fadd double %54, 1.234500e+04
  %56 = call double @llvm.fmuladd.f64(double %55, double 9.142370e+05, double -1.300000e+01)
  %57 = fadd double %47, %56
  %58 = add nuw nsw i64 %15, 23
  %59 = getelementptr inbounds double, ptr %0, i64 %58
  %60 = load double, ptr %59, align 8, !tbaa !17
  %61 = fadd double %60, 1.234500e+04
  %62 = call double @llvm.fmuladd.f64(double %61, double 9.142370e+05, double -1.300000e+01)
  %63 = fadd double %62, 1.234500e+04
  %64 = call double @llvm.fmuladd.f64(double %63, double 9.142370e+05, double -1.300000e+01)
  %65 = fadd double %64, 1.234500e+04
  %66 = call double @llvm.fmuladd.f64(double %65, double 9.142370e+05, double -1.300000e+01)
  %67 = fadd double %57, %66
  store double %67, ptr %4, align 8, !tbaa !17
  %68 = add nuw i64 %15, 24
  %69 = trunc i64 %68 to i32
  %70 = icmp sgt i32 %10, %69
  br i1 %70, label %14, label %71

71:                                               ; preds = %14, %12
  %72 = phi double [ 0.000000e+00, %12 ], [ %67, %14 ]
  %73 = phi i32 [ 0, %12 ], [ %69, %14 ]
  %74 = icmp slt i32 %73, %1
  br i1 %74, label %75, label %92

75:                                               ; preds = %71
  %76 = sext i32 %73 to i64
  br label %77

77:                                               ; preds = %77, %75
  %78 = phi i64 [ %76, %75 ], [ %89, %77 ]
  %79 = phi double [ %72, %75 ], [ %88, %77 ]
  %80 = getelementptr inbounds double, ptr %0, i64 %78
  %81 = load double, ptr %80, align 8, !tbaa !17
  %82 = fadd double %81, 1.234500e+04
  %83 = call double @llvm.fmuladd.f64(double %82, double 9.142370e+05, double -1.300000e+01)
  %84 = fadd double %83, 1.234500e+04
  %85 = call double @llvm.fmuladd.f64(double %84, double 9.142370e+05, double -1.300000e+01)
  %86 = fadd double %85, 1.234500e+04
  %87 = call double @llvm.fmuladd.f64(double %86, double 9.142370e+05, double -1.300000e+01)
  %88 = fadd double %79, %87
  %89 = add nsw i64 %78, 1
  %90 = icmp eq i64 %89, %11
  br i1 %90, label %91, label %77

91:                                               ; preds = %77
  %.lcssa = phi double [ %88, %77 ]
  store double %.lcssa, ptr %4, align 8, !tbaa !17
  br label %92

92:                                               ; preds = %91, %71
  %93 = phi double [ %.lcssa, %91 ], [ %72, %71 ]
  %94 = load double, ptr @init_value, align 8, !tbaa !17
  %95 = fadd double %94, 1.234500e+04
  %96 = call double @llvm.fmuladd.f64(double %95, double 9.142370e+05, double -1.300000e+01)
  %97 = fadd double %96, 1.234500e+04
  %98 = call double @llvm.fmuladd.f64(double %97, double 9.142370e+05, double -1.300000e+01)
  %99 = fadd double %98, 1.234500e+04
  %100 = call double @llvm.fmuladd.f64(double %99, double 9.142370e+05, double -1.300000e+01)
  %101 = fmul double %100, 8.000000e+03
  %102 = fsub double %93, %101
  %103 = call double @llvm.fabs.f64(double %93)
  %104 = fcmp ogt double %103, 1.000000e-08
  %105 = select i1 %104, double %93, double 1.000000e+00
  %106 = fdiv double %102, %105
  %107 = call double @llvm.fabs.f64(double %106)
  %108 = fcmp olt double %107, 0x3EB0C6F7A0B5ED8D
  br i1 %108, label %112, label %109

109:                                              ; preds = %92
  %110 = load i32, ptr @current_test, align 4, !tbaa !11
  %111 = call i32 (ptr, ...) @printf(ptr noundef nonnull dereferenceable(1) @.str.19, i32 noundef %110) #12
  br label %112

112:                                              ; preds = %109, %92
  call void @llvm.lifetime.end.p0(i64 8, ptr nonnull %4) #16
  %113 = add nuw nsw i32 %13, 1
  %114 = load i32, ptr @iterations, align 4, !tbaa !11
  %115 = icmp slt i32 %113, %114
  br i1 %115, label %12, label %116, !llvm.loop !51

116:                                              ; preds = %112, %3
  %117 = call i64 @clock() #15
  store i64 %117, ptr @end_time, align 8, !tbaa !23
  %118 = load i64, ptr @start_time, align 8, !tbaa !23
  %119 = sub nsw i64 %117, %118
  %120 = sitofp i64 %119 to double
  %121 = fdiv double %120, 1.000000e+06
  call void @_Z13record_resultdPKc(double noundef %121, ptr noundef %2) #12
  ret void
}

; Function Attrs: mustprogress optsize uwtable
define internal void @_Z28test_goto_loop_unroll_factorILi25EdEvPKT0_iPKc(ptr noundef %0, i32 noundef %1, ptr noundef %2) #6 comdat {
  %4 = alloca double, align 8
  %5 = tail call i64 @clock() #15
  store i64 %5, ptr @start_time, align 8, !tbaa !23
  %6 = load i32, ptr @iterations, align 4, !tbaa !11
  %7 = icmp sgt i32 %6, 0
  br i1 %7, label %8, label %126

8:                                                ; preds = %3
  %9 = icmp sgt i32 %1, 24
  %10 = add nsw i32 %1, -24
  %11 = sext i32 %1 to i64
  br label %12

12:                                               ; preds = %122, %8
  %13 = phi i32 [ 0, %8 ], [ %123, %122 ]
  call void @llvm.lifetime.start.p0(i64 8, ptr nonnull %4) #16
  store double 0.000000e+00, ptr %4, align 8, !tbaa !17
  br i1 %9, label %14, label %81

14:                                               ; preds = %14, %12
  %15 = phi i64 [ %78, %14 ], [ 0, %12 ]
  %16 = trunc i64 %15 to i32
  call void @_ZN15loop_inner_bodyILi19EdE7do_workERdPKdi(ptr noundef nonnull align 8 dereferenceable(8) %4, ptr noundef %0, i32 noundef %16) #12
  %17 = add nuw nsw i64 %15, 19
  %18 = getelementptr inbounds double, ptr %0, i64 %17
  %19 = load double, ptr %18, align 8, !tbaa !17
  %20 = fadd double %19, 1.234500e+04
  %21 = call double @llvm.fmuladd.f64(double %20, double 9.142370e+05, double -1.300000e+01)
  %22 = fadd double %21, 1.234500e+04
  %23 = call double @llvm.fmuladd.f64(double %22, double 9.142370e+05, double -1.300000e+01)
  %24 = fadd double %23, 1.234500e+04
  %25 = call double @llvm.fmuladd.f64(double %24, double 9.142370e+05, double -1.300000e+01)
  %26 = load double, ptr %4, align 8, !tbaa !17
  %27 = fadd double %26, %25
  %28 = add nuw nsw i64 %15, 20
  %29 = getelementptr inbounds double, ptr %0, i64 %28
  %30 = load double, ptr %29, align 8, !tbaa !17
  %31 = fadd double %30, 1.234500e+04
  %32 = call double @llvm.fmuladd.f64(double %31, double 9.142370e+05, double -1.300000e+01)
  %33 = fadd double %32, 1.234500e+04
  %34 = call double @llvm.fmuladd.f64(double %33, double 9.142370e+05, double -1.300000e+01)
  %35 = fadd double %34, 1.234500e+04
  %36 = call double @llvm.fmuladd.f64(double %35, double 9.142370e+05, double -1.300000e+01)
  %37 = fadd double %27, %36
  %38 = add nuw nsw i64 %15, 21
  %39 = getelementptr inbounds double, ptr %0, i64 %38
  %40 = load double, ptr %39, align 8, !tbaa !17
  %41 = fadd double %40, 1.234500e+04
  %42 = call double @llvm.fmuladd.f64(double %41, double 9.142370e+05, double -1.300000e+01)
  %43 = fadd double %42, 1.234500e+04
  %44 = call double @llvm.fmuladd.f64(double %43, double 9.142370e+05, double -1.300000e+01)
  %45 = fadd double %44, 1.234500e+04
  %46 = call double @llvm.fmuladd.f64(double %45, double 9.142370e+05, double -1.300000e+01)
  %47 = fadd double %37, %46
  %48 = add nuw nsw i64 %15, 22
  %49 = getelementptr inbounds double, ptr %0, i64 %48
  %50 = load double, ptr %49, align 8, !tbaa !17
  %51 = fadd double %50, 1.234500e+04
  %52 = call double @llvm.fmuladd.f64(double %51, double 9.142370e+05, double -1.300000e+01)
  %53 = fadd double %52, 1.234500e+04
  %54 = call double @llvm.fmuladd.f64(double %53, double 9.142370e+05, double -1.300000e+01)
  %55 = fadd double %54, 1.234500e+04
  %56 = call double @llvm.fmuladd.f64(double %55, double 9.142370e+05, double -1.300000e+01)
  %57 = fadd double %47, %56
  %58 = add nuw nsw i64 %15, 23
  %59 = getelementptr inbounds double, ptr %0, i64 %58
  %60 = load double, ptr %59, align 8, !tbaa !17
  %61 = fadd double %60, 1.234500e+04
  %62 = call double @llvm.fmuladd.f64(double %61, double 9.142370e+05, double -1.300000e+01)
  %63 = fadd double %62, 1.234500e+04
  %64 = call double @llvm.fmuladd.f64(double %63, double 9.142370e+05, double -1.300000e+01)
  %65 = fadd double %64, 1.234500e+04
  %66 = call double @llvm.fmuladd.f64(double %65, double 9.142370e+05, double -1.300000e+01)
  %67 = fadd double %57, %66
  %68 = add nuw nsw i64 %15, 24
  %69 = getelementptr inbounds double, ptr %0, i64 %68
  %70 = load double, ptr %69, align 8, !tbaa !17
  %71 = fadd double %70, 1.234500e+04
  %72 = call double @llvm.fmuladd.f64(double %71, double 9.142370e+05, double -1.300000e+01)
  %73 = fadd double %72, 1.234500e+04
  %74 = call double @llvm.fmuladd.f64(double %73, double 9.142370e+05, double -1.300000e+01)
  %75 = fadd double %74, 1.234500e+04
  %76 = call double @llvm.fmuladd.f64(double %75, double 9.142370e+05, double -1.300000e+01)
  %77 = fadd double %67, %76
  store double %77, ptr %4, align 8, !tbaa !17
  %78 = add nuw i64 %15, 25
  %79 = trunc i64 %78 to i32
  %80 = icmp sgt i32 %10, %79
  br i1 %80, label %14, label %81

81:                                               ; preds = %14, %12
  %82 = phi double [ 0.000000e+00, %12 ], [ %77, %14 ]
  %83 = phi i32 [ 0, %12 ], [ %79, %14 ]
  %84 = icmp slt i32 %83, %1
  br i1 %84, label %85, label %102

85:                                               ; preds = %81
  %86 = sext i32 %83 to i64
  br label %87

87:                                               ; preds = %87, %85
  %88 = phi i64 [ %86, %85 ], [ %99, %87 ]
  %89 = phi double [ %82, %85 ], [ %98, %87 ]
  %90 = getelementptr inbounds double, ptr %0, i64 %88
  %91 = load double, ptr %90, align 8, !tbaa !17
  %92 = fadd double %91, 1.234500e+04
  %93 = call double @llvm.fmuladd.f64(double %92, double 9.142370e+05, double -1.300000e+01)
  %94 = fadd double %93, 1.234500e+04
  %95 = call double @llvm.fmuladd.f64(double %94, double 9.142370e+05, double -1.300000e+01)
  %96 = fadd double %95, 1.234500e+04
  %97 = call double @llvm.fmuladd.f64(double %96, double 9.142370e+05, double -1.300000e+01)
  %98 = fadd double %89, %97
  %99 = add nsw i64 %88, 1
  %100 = icmp eq i64 %99, %11
  br i1 %100, label %101, label %87

101:                                              ; preds = %87
  %.lcssa = phi double [ %98, %87 ]
  store double %.lcssa, ptr %4, align 8, !tbaa !17
  br label %102

102:                                              ; preds = %101, %81
  %103 = phi double [ %.lcssa, %101 ], [ %82, %81 ]
  %104 = load double, ptr @init_value, align 8, !tbaa !17
  %105 = fadd double %104, 1.234500e+04
  %106 = call double @llvm.fmuladd.f64(double %105, double 9.142370e+05, double -1.300000e+01)
  %107 = fadd double %106, 1.234500e+04
  %108 = call double @llvm.fmuladd.f64(double %107, double 9.142370e+05, double -1.300000e+01)
  %109 = fadd double %108, 1.234500e+04
  %110 = call double @llvm.fmuladd.f64(double %109, double 9.142370e+05, double -1.300000e+01)
  %111 = fmul double %110, 8.000000e+03
  %112 = fsub double %103, %111
  %113 = call double @llvm.fabs.f64(double %103)
  %114 = fcmp ogt double %113, 1.000000e-08
  %115 = select i1 %114, double %103, double 1.000000e+00
  %116 = fdiv double %112, %115
  %117 = call double @llvm.fabs.f64(double %116)
  %118 = fcmp olt double %117, 0x3EB0C6F7A0B5ED8D
  br i1 %118, label %122, label %119

119:                                              ; preds = %102
  %120 = load i32, ptr @current_test, align 4, !tbaa !11
  %121 = call i32 (ptr, ...) @printf(ptr noundef nonnull dereferenceable(1) @.str.19, i32 noundef %120) #12
  br label %122

122:                                              ; preds = %119, %102
  call void @llvm.lifetime.end.p0(i64 8, ptr nonnull %4) #16
  %123 = add nuw nsw i32 %13, 1
  %124 = load i32, ptr @iterations, align 4, !tbaa !11
  %125 = icmp slt i32 %123, %124
  br i1 %125, label %12, label %126, !llvm.loop !52

126:                                              ; preds = %122, %3
  %127 = call i64 @clock() #15
  store i64 %127, ptr @end_time, align 8, !tbaa !23
  %128 = load i64, ptr @start_time, align 8, !tbaa !23
  %129 = sub nsw i64 %127, %128
  %130 = sitofp i64 %129 to double
  %131 = fdiv double %130, 1.000000e+06
  call void @_Z13record_resultdPKc(double noundef %131, ptr noundef %2) #12
  ret void
}

; Function Attrs: mustprogress optsize uwtable
define internal void @_ZN15goto_loop_testsILi21EdE7do_testEPKdPKc(ptr noundef %0, ptr noundef %1) #6 comdat align 2 {
  tail call void @_ZN15goto_loop_testsILi19EdE7do_testEPKdPKc(ptr noundef %0, ptr noundef %1) #12
  tail call void @_Z28test_goto_loop_unroll_factorILi20EdEvPKT0_iPKc(ptr noundef %0, i32 noundef 8000, ptr noundef nonnull getelementptr inbounds ([32 x [100 x i8]], ptr @temp_string, i64 0, i64 19)) #12
  tail call void @_Z28test_goto_loop_unroll_factorILi21EdEvPKT0_iPKc(ptr noundef %0, i32 noundef 8000, ptr noundef nonnull getelementptr inbounds ([32 x [100 x i8]], ptr @temp_string, i64 0, i64 20)) #12
  ret void
}

; Function Attrs: mustprogress optsize uwtable
define internal void @_Z28test_goto_loop_unroll_factorILi22EdEvPKT0_iPKc(ptr noundef %0, i32 noundef %1, ptr noundef %2) #6 comdat {
  %4 = alloca double, align 8
  %5 = tail call i64 @clock() #15
  store i64 %5, ptr @start_time, align 8, !tbaa !23
  %6 = load i32, ptr @iterations, align 4, !tbaa !11
  %7 = icmp sgt i32 %6, 0
  br i1 %7, label %8, label %96

8:                                                ; preds = %3
  %9 = icmp sgt i32 %1, 21
  %10 = add nsw i32 %1, -21
  %11 = sext i32 %1 to i64
  br label %12

12:                                               ; preds = %92, %8
  %13 = phi i32 [ 0, %8 ], [ %93, %92 ]
  call void @llvm.lifetime.start.p0(i64 8, ptr nonnull %4) #16
  store double 0.000000e+00, ptr %4, align 8, !tbaa !17
  br i1 %9, label %14, label %51

14:                                               ; preds = %14, %12
  %15 = phi i64 [ %48, %14 ], [ 0, %12 ]
  %16 = trunc i64 %15 to i32
  call void @_ZN15loop_inner_bodyILi19EdE7do_workERdPKdi(ptr noundef nonnull align 8 dereferenceable(8) %4, ptr noundef %0, i32 noundef %16) #12
  %17 = add nuw nsw i64 %15, 19
  %18 = getelementptr inbounds double, ptr %0, i64 %17
  %19 = load double, ptr %18, align 8, !tbaa !17
  %20 = fadd double %19, 1.234500e+04
  %21 = call double @llvm.fmuladd.f64(double %20, double 9.142370e+05, double -1.300000e+01)
  %22 = fadd double %21, 1.234500e+04
  %23 = call double @llvm.fmuladd.f64(double %22, double 9.142370e+05, double -1.300000e+01)
  %24 = fadd double %23, 1.234500e+04
  %25 = call double @llvm.fmuladd.f64(double %24, double 9.142370e+05, double -1.300000e+01)
  %26 = load double, ptr %4, align 8, !tbaa !17
  %27 = fadd double %26, %25
  %28 = add nuw nsw i64 %15, 20
  %29 = getelementptr inbounds double, ptr %0, i64 %28
  %30 = load double, ptr %29, align 8, !tbaa !17
  %31 = fadd double %30, 1.234500e+04
  %32 = call double @llvm.fmuladd.f64(double %31, double 9.142370e+05, double -1.300000e+01)
  %33 = fadd double %32, 1.234500e+04
  %34 = call double @llvm.fmuladd.f64(double %33, double 9.142370e+05, double -1.300000e+01)
  %35 = fadd double %34, 1.234500e+04
  %36 = call double @llvm.fmuladd.f64(double %35, double 9.142370e+05, double -1.300000e+01)
  %37 = fadd double %27, %36
  %38 = add nuw nsw i64 %15, 21
  %39 = getelementptr inbounds double, ptr %0, i64 %38
  %40 = load double, ptr %39, align 8, !tbaa !17
  %41 = fadd double %40, 1.234500e+04
  %42 = call double @llvm.fmuladd.f64(double %41, double 9.142370e+05, double -1.300000e+01)
  %43 = fadd double %42, 1.234500e+04
  %44 = call double @llvm.fmuladd.f64(double %43, double 9.142370e+05, double -1.300000e+01)
  %45 = fadd double %44, 1.234500e+04
  %46 = call double @llvm.fmuladd.f64(double %45, double 9.142370e+05, double -1.300000e+01)
  %47 = fadd double %37, %46
  store double %47, ptr %4, align 8, !tbaa !17
  %48 = add nuw i64 %15, 22
  %49 = trunc i64 %48 to i32
  %50 = icmp sgt i32 %10, %49
  br i1 %50, label %14, label %51

51:                                               ; preds = %14, %12
  %52 = phi double [ 0.000000e+00, %12 ], [ %47, %14 ]
  %53 = phi i32 [ 0, %12 ], [ %49, %14 ]
  %54 = icmp slt i32 %53, %1
  br i1 %54, label %55, label %72

55:                                               ; preds = %51
  %56 = sext i32 %53 to i64
  br label %57

57:                                               ; preds = %57, %55
  %58 = phi i64 [ %56, %55 ], [ %69, %57 ]
  %59 = phi double [ %52, %55 ], [ %68, %57 ]
  %60 = getelementptr inbounds double, ptr %0, i64 %58
  %61 = load double, ptr %60, align 8, !tbaa !17
  %62 = fadd double %61, 1.234500e+04
  %63 = call double @llvm.fmuladd.f64(double %62, double 9.142370e+05, double -1.300000e+01)
  %64 = fadd double %63, 1.234500e+04
  %65 = call double @llvm.fmuladd.f64(double %64, double 9.142370e+05, double -1.300000e+01)
  %66 = fadd double %65, 1.234500e+04
  %67 = call double @llvm.fmuladd.f64(double %66, double 9.142370e+05, double -1.300000e+01)
  %68 = fadd double %59, %67
  %69 = add nsw i64 %58, 1
  %70 = icmp eq i64 %69, %11
  br i1 %70, label %71, label %57

71:                                               ; preds = %57
  %.lcssa = phi double [ %68, %57 ]
  store double %.lcssa, ptr %4, align 8, !tbaa !17
  br label %72

72:                                               ; preds = %71, %51
  %73 = phi double [ %.lcssa, %71 ], [ %52, %51 ]
  %74 = load double, ptr @init_value, align 8, !tbaa !17
  %75 = fadd double %74, 1.234500e+04
  %76 = call double @llvm.fmuladd.f64(double %75, double 9.142370e+05, double -1.300000e+01)
  %77 = fadd double %76, 1.234500e+04
  %78 = call double @llvm.fmuladd.f64(double %77, double 9.142370e+05, double -1.300000e+01)
  %79 = fadd double %78, 1.234500e+04
  %80 = call double @llvm.fmuladd.f64(double %79, double 9.142370e+05, double -1.300000e+01)
  %81 = fmul double %80, 8.000000e+03
  %82 = fsub double %73, %81
  %83 = call double @llvm.fabs.f64(double %73)
  %84 = fcmp ogt double %83, 1.000000e-08
  %85 = select i1 %84, double %73, double 1.000000e+00
  %86 = fdiv double %82, %85
  %87 = call double @llvm.fabs.f64(double %86)
  %88 = fcmp olt double %87, 0x3EB0C6F7A0B5ED8D
  br i1 %88, label %92, label %89

89:                                               ; preds = %72
  %90 = load i32, ptr @current_test, align 4, !tbaa !11
  %91 = call i32 (ptr, ...) @printf(ptr noundef nonnull dereferenceable(1) @.str.19, i32 noundef %90) #12
  br label %92

92:                                               ; preds = %89, %72
  call void @llvm.lifetime.end.p0(i64 8, ptr nonnull %4) #16
  %93 = add nuw nsw i32 %13, 1
  %94 = load i32, ptr @iterations, align 4, !tbaa !11
  %95 = icmp slt i32 %93, %94
  br i1 %95, label %12, label %96, !llvm.loop !53

96:                                               ; preds = %92, %3
  %97 = call i64 @clock() #15
  store i64 %97, ptr @end_time, align 8, !tbaa !23
  %98 = load i64, ptr @start_time, align 8, !tbaa !23
  %99 = sub nsw i64 %97, %98
  %100 = sitofp i64 %99 to double
  %101 = fdiv double %100, 1.000000e+06
  call void @_Z13record_resultdPKc(double noundef %101, ptr noundef %2) #12
  ret void
}

; Function Attrs: mustprogress optsize uwtable
define internal void @_Z28test_goto_loop_unroll_factorILi23EdEvPKT0_iPKc(ptr noundef %0, i32 noundef %1, ptr noundef %2) #6 comdat {
  %4 = alloca double, align 8
  %5 = tail call i64 @clock() #15
  store i64 %5, ptr @start_time, align 8, !tbaa !23
  %6 = load i32, ptr @iterations, align 4, !tbaa !11
  %7 = icmp sgt i32 %6, 0
  br i1 %7, label %8, label %106

8:                                                ; preds = %3
  %9 = icmp sgt i32 %1, 22
  %10 = add nsw i32 %1, -22
  %11 = sext i32 %1 to i64
  br label %12

12:                                               ; preds = %102, %8
  %13 = phi i32 [ 0, %8 ], [ %103, %102 ]
  call void @llvm.lifetime.start.p0(i64 8, ptr nonnull %4) #16
  store double 0.000000e+00, ptr %4, align 8, !tbaa !17
  br i1 %9, label %14, label %61

14:                                               ; preds = %14, %12
  %15 = phi i64 [ %58, %14 ], [ 0, %12 ]
  %16 = trunc i64 %15 to i32
  call void @_ZN15loop_inner_bodyILi19EdE7do_workERdPKdi(ptr noundef nonnull align 8 dereferenceable(8) %4, ptr noundef %0, i32 noundef %16) #12
  %17 = add nuw nsw i64 %15, 19
  %18 = getelementptr inbounds double, ptr %0, i64 %17
  %19 = load double, ptr %18, align 8, !tbaa !17
  %20 = fadd double %19, 1.234500e+04
  %21 = call double @llvm.fmuladd.f64(double %20, double 9.142370e+05, double -1.300000e+01)
  %22 = fadd double %21, 1.234500e+04
  %23 = call double @llvm.fmuladd.f64(double %22, double 9.142370e+05, double -1.300000e+01)
  %24 = fadd double %23, 1.234500e+04
  %25 = call double @llvm.fmuladd.f64(double %24, double 9.142370e+05, double -1.300000e+01)
  %26 = load double, ptr %4, align 8, !tbaa !17
  %27 = fadd double %26, %25
  %28 = add nuw nsw i64 %15, 20
  %29 = getelementptr inbounds double, ptr %0, i64 %28
  %30 = load double, ptr %29, align 8, !tbaa !17
  %31 = fadd double %30, 1.234500e+04
  %32 = call double @llvm.fmuladd.f64(double %31, double 9.142370e+05, double -1.300000e+01)
  %33 = fadd double %32, 1.234500e+04
  %34 = call double @llvm.fmuladd.f64(double %33, double 9.142370e+05, double -1.300000e+01)
  %35 = fadd double %34, 1.234500e+04
  %36 = call double @llvm.fmuladd.f64(double %35, double 9.142370e+05, double -1.300000e+01)
  %37 = fadd double %27, %36
  %38 = add nuw nsw i64 %15, 21
  %39 = getelementptr inbounds double, ptr %0, i64 %38
  %40 = load double, ptr %39, align 8, !tbaa !17
  %41 = fadd double %40, 1.234500e+04
  %42 = call double @llvm.fmuladd.f64(double %41, double 9.142370e+05, double -1.300000e+01)
  %43 = fadd double %42, 1.234500e+04
  %44 = call double @llvm.fmuladd.f64(double %43, double 9.142370e+05, double -1.300000e+01)
  %45 = fadd double %44, 1.234500e+04
  %46 = call double @llvm.fmuladd.f64(double %45, double 9.142370e+05, double -1.300000e+01)
  %47 = fadd double %37, %46
  %48 = add nuw nsw i64 %15, 22
  %49 = getelementptr inbounds double, ptr %0, i64 %48
  %50 = load double, ptr %49, align 8, !tbaa !17
  %51 = fadd double %50, 1.234500e+04
  %52 = call double @llvm.fmuladd.f64(double %51, double 9.142370e+05, double -1.300000e+01)
  %53 = fadd double %52, 1.234500e+04
  %54 = call double @llvm.fmuladd.f64(double %53, double 9.142370e+05, double -1.300000e+01)
  %55 = fadd double %54, 1.234500e+04
  %56 = call double @llvm.fmuladd.f64(double %55, double 9.142370e+05, double -1.300000e+01)
  %57 = fadd double %47, %56
  store double %57, ptr %4, align 8, !tbaa !17
  %58 = add nuw i64 %15, 23
  %59 = trunc i64 %58 to i32
  %60 = icmp sgt i32 %10, %59
  br i1 %60, label %14, label %61

61:                                               ; preds = %14, %12
  %62 = phi double [ 0.000000e+00, %12 ], [ %57, %14 ]
  %63 = phi i32 [ 0, %12 ], [ %59, %14 ]
  %64 = icmp slt i32 %63, %1
  br i1 %64, label %65, label %82

65:                                               ; preds = %61
  %66 = sext i32 %63 to i64
  br label %67

67:                                               ; preds = %67, %65
  %68 = phi i64 [ %66, %65 ], [ %79, %67 ]
  %69 = phi double [ %62, %65 ], [ %78, %67 ]
  %70 = getelementptr inbounds double, ptr %0, i64 %68
  %71 = load double, ptr %70, align 8, !tbaa !17
  %72 = fadd double %71, 1.234500e+04
  %73 = call double @llvm.fmuladd.f64(double %72, double 9.142370e+05, double -1.300000e+01)
  %74 = fadd double %73, 1.234500e+04
  %75 = call double @llvm.fmuladd.f64(double %74, double 9.142370e+05, double -1.300000e+01)
  %76 = fadd double %75, 1.234500e+04
  %77 = call double @llvm.fmuladd.f64(double %76, double 9.142370e+05, double -1.300000e+01)
  %78 = fadd double %69, %77
  %79 = add nsw i64 %68, 1
  %80 = icmp eq i64 %79, %11
  br i1 %80, label %81, label %67

81:                                               ; preds = %67
  %.lcssa = phi double [ %78, %67 ]
  store double %.lcssa, ptr %4, align 8, !tbaa !17
  br label %82

82:                                               ; preds = %81, %61
  %83 = phi double [ %.lcssa, %81 ], [ %62, %61 ]
  %84 = load double, ptr @init_value, align 8, !tbaa !17
  %85 = fadd double %84, 1.234500e+04
  %86 = call double @llvm.fmuladd.f64(double %85, double 9.142370e+05, double -1.300000e+01)
  %87 = fadd double %86, 1.234500e+04
  %88 = call double @llvm.fmuladd.f64(double %87, double 9.142370e+05, double -1.300000e+01)
  %89 = fadd double %88, 1.234500e+04
  %90 = call double @llvm.fmuladd.f64(double %89, double 9.142370e+05, double -1.300000e+01)
  %91 = fmul double %90, 8.000000e+03
  %92 = fsub double %83, %91
  %93 = call double @llvm.fabs.f64(double %83)
  %94 = fcmp ogt double %93, 1.000000e-08
  %95 = select i1 %94, double %83, double 1.000000e+00
  %96 = fdiv double %92, %95
  %97 = call double @llvm.fabs.f64(double %96)
  %98 = fcmp olt double %97, 0x3EB0C6F7A0B5ED8D
  br i1 %98, label %102, label %99

99:                                               ; preds = %82
  %100 = load i32, ptr @current_test, align 4, !tbaa !11
  %101 = call i32 (ptr, ...) @printf(ptr noundef nonnull dereferenceable(1) @.str.19, i32 noundef %100) #12
  br label %102

102:                                              ; preds = %99, %82
  call void @llvm.lifetime.end.p0(i64 8, ptr nonnull %4) #16
  %103 = add nuw nsw i32 %13, 1
  %104 = load i32, ptr @iterations, align 4, !tbaa !11
  %105 = icmp slt i32 %103, %104
  br i1 %105, label %12, label %106, !llvm.loop !54

106:                                              ; preds = %102, %3
  %107 = call i64 @clock() #15
  store i64 %107, ptr @end_time, align 8, !tbaa !23
  %108 = load i64, ptr @start_time, align 8, !tbaa !23
  %109 = sub nsw i64 %107, %108
  %110 = sitofp i64 %109 to double
  %111 = fdiv double %110, 1.000000e+06
  call void @_Z13record_resultdPKc(double noundef %111, ptr noundef %2) #12
  ret void
}

; Function Attrs: mustprogress optsize uwtable
define internal void @_ZN15goto_loop_testsILi19EdE7do_testEPKdPKc(ptr noundef %0, ptr noundef %1) #6 comdat align 2 {
  tail call void @_ZN15goto_loop_testsILi17EdE7do_testEPKdPKc(ptr noundef %0, ptr noundef %1) #12
  tail call void @_Z28test_goto_loop_unroll_factorILi18EdEvPKT0_iPKc(ptr noundef %0, i32 noundef 8000, ptr noundef nonnull getelementptr inbounds ([32 x [100 x i8]], ptr @temp_string, i64 0, i64 17)) #12
  tail call void @_Z28test_goto_loop_unroll_factorILi19EdEvPKT0_iPKc(ptr noundef %0, i32 noundef 8000, ptr noundef nonnull getelementptr inbounds ([32 x [100 x i8]], ptr @temp_string, i64 0, i64 18)) #12
  ret void
}

; Function Attrs: mustprogress optsize uwtable
define internal void @_Z28test_goto_loop_unroll_factorILi20EdEvPKT0_iPKc(ptr noundef %0, i32 noundef %1, ptr noundef %2) #6 comdat {
  %4 = alloca double, align 8
  %5 = tail call i64 @clock() #15
  store i64 %5, ptr @start_time, align 8, !tbaa !23
  %6 = load i32, ptr @iterations, align 4, !tbaa !11
  %7 = icmp sgt i32 %6, 0
  br i1 %7, label %8, label %76

8:                                                ; preds = %3
  %9 = icmp sgt i32 %1, 19
  %10 = add nsw i32 %1, -19
  %11 = sext i32 %1 to i64
  br label %12

12:                                               ; preds = %72, %8
  %13 = phi i32 [ 0, %8 ], [ %73, %72 ]
  call void @llvm.lifetime.start.p0(i64 8, ptr nonnull %4) #16
  store double 0.000000e+00, ptr %4, align 8, !tbaa !17
  br i1 %9, label %14, label %31

14:                                               ; preds = %14, %12
  %15 = phi i64 [ %28, %14 ], [ 0, %12 ]
  %16 = trunc i64 %15 to i32
  call void @_ZN15loop_inner_bodyILi19EdE7do_workERdPKdi(ptr noundef nonnull align 8 dereferenceable(8) %4, ptr noundef %0, i32 noundef %16) #12
  %17 = add nuw nsw i64 %15, 19
  %18 = getelementptr inbounds double, ptr %0, i64 %17
  %19 = load double, ptr %18, align 8, !tbaa !17
  %20 = fadd double %19, 1.234500e+04
  %21 = call double @llvm.fmuladd.f64(double %20, double 9.142370e+05, double -1.300000e+01)
  %22 = fadd double %21, 1.234500e+04
  %23 = call double @llvm.fmuladd.f64(double %22, double 9.142370e+05, double -1.300000e+01)
  %24 = fadd double %23, 1.234500e+04
  %25 = call double @llvm.fmuladd.f64(double %24, double 9.142370e+05, double -1.300000e+01)
  %26 = load double, ptr %4, align 8, !tbaa !17
  %27 = fadd double %26, %25
  store double %27, ptr %4, align 8, !tbaa !17
  %28 = add nuw i64 %15, 20
  %29 = trunc i64 %28 to i32
  %30 = icmp sgt i32 %10, %29
  br i1 %30, label %14, label %31

31:                                               ; preds = %14, %12
  %32 = phi double [ 0.000000e+00, %12 ], [ %27, %14 ]
  %33 = phi i32 [ 0, %12 ], [ %29, %14 ]
  %34 = icmp slt i32 %33, %1
  br i1 %34, label %35, label %52

35:                                               ; preds = %31
  %36 = sext i32 %33 to i64
  br label %37

37:                                               ; preds = %37, %35
  %38 = phi i64 [ %36, %35 ], [ %49, %37 ]
  %39 = phi double [ %32, %35 ], [ %48, %37 ]
  %40 = getelementptr inbounds double, ptr %0, i64 %38
  %41 = load double, ptr %40, align 8, !tbaa !17
  %42 = fadd double %41, 1.234500e+04
  %43 = call double @llvm.fmuladd.f64(double %42, double 9.142370e+05, double -1.300000e+01)
  %44 = fadd double %43, 1.234500e+04
  %45 = call double @llvm.fmuladd.f64(double %44, double 9.142370e+05, double -1.300000e+01)
  %46 = fadd double %45, 1.234500e+04
  %47 = call double @llvm.fmuladd.f64(double %46, double 9.142370e+05, double -1.300000e+01)
  %48 = fadd double %39, %47
  %49 = add nsw i64 %38, 1
  %50 = icmp eq i64 %49, %11
  br i1 %50, label %51, label %37

51:                                               ; preds = %37
  %.lcssa = phi double [ %48, %37 ]
  store double %.lcssa, ptr %4, align 8, !tbaa !17
  br label %52

52:                                               ; preds = %51, %31
  %53 = phi double [ %.lcssa, %51 ], [ %32, %31 ]
  %54 = load double, ptr @init_value, align 8, !tbaa !17
  %55 = fadd double %54, 1.234500e+04
  %56 = call double @llvm.fmuladd.f64(double %55, double 9.142370e+05, double -1.300000e+01)
  %57 = fadd double %56, 1.234500e+04
  %58 = call double @llvm.fmuladd.f64(double %57, double 9.142370e+05, double -1.300000e+01)
  %59 = fadd double %58, 1.234500e+04
  %60 = call double @llvm.fmuladd.f64(double %59, double 9.142370e+05, double -1.300000e+01)
  %61 = fmul double %60, 8.000000e+03
  %62 = fsub double %53, %61
  %63 = call double @llvm.fabs.f64(double %53)
  %64 = fcmp ogt double %63, 1.000000e-08
  %65 = select i1 %64, double %53, double 1.000000e+00
  %66 = fdiv double %62, %65
  %67 = call double @llvm.fabs.f64(double %66)
  %68 = fcmp olt double %67, 0x3EB0C6F7A0B5ED8D
  br i1 %68, label %72, label %69

69:                                               ; preds = %52
  %70 = load i32, ptr @current_test, align 4, !tbaa !11
  %71 = call i32 (ptr, ...) @printf(ptr noundef nonnull dereferenceable(1) @.str.19, i32 noundef %70) #12
  br label %72

72:                                               ; preds = %69, %52
  call void @llvm.lifetime.end.p0(i64 8, ptr nonnull %4) #16
  %73 = add nuw nsw i32 %13, 1
  %74 = load i32, ptr @iterations, align 4, !tbaa !11
  %75 = icmp slt i32 %73, %74
  br i1 %75, label %12, label %76, !llvm.loop !55

76:                                               ; preds = %72, %3
  %77 = call i64 @clock() #15
  store i64 %77, ptr @end_time, align 8, !tbaa !23
  %78 = load i64, ptr @start_time, align 8, !tbaa !23
  %79 = sub nsw i64 %77, %78
  %80 = sitofp i64 %79 to double
  %81 = fdiv double %80, 1.000000e+06
  call void @_Z13record_resultdPKc(double noundef %81, ptr noundef %2) #12
  ret void
}

; Function Attrs: mustprogress optsize uwtable
define internal void @_Z28test_goto_loop_unroll_factorILi21EdEvPKT0_iPKc(ptr noundef %0, i32 noundef %1, ptr noundef %2) #6 comdat {
  %4 = alloca double, align 8
  %5 = tail call i64 @clock() #15
  store i64 %5, ptr @start_time, align 8, !tbaa !23
  %6 = load i32, ptr @iterations, align 4, !tbaa !11
  %7 = icmp sgt i32 %6, 0
  br i1 %7, label %8, label %86

8:                                                ; preds = %3
  %9 = icmp sgt i32 %1, 20
  %10 = add nsw i32 %1, -20
  %11 = sext i32 %1 to i64
  br label %12

12:                                               ; preds = %82, %8
  %13 = phi i32 [ 0, %8 ], [ %83, %82 ]
  call void @llvm.lifetime.start.p0(i64 8, ptr nonnull %4) #16
  store double 0.000000e+00, ptr %4, align 8, !tbaa !17
  br i1 %9, label %14, label %41

14:                                               ; preds = %14, %12
  %15 = phi i64 [ %38, %14 ], [ 0, %12 ]
  %16 = trunc i64 %15 to i32
  call void @_ZN15loop_inner_bodyILi19EdE7do_workERdPKdi(ptr noundef nonnull align 8 dereferenceable(8) %4, ptr noundef %0, i32 noundef %16) #12
  %17 = add nuw nsw i64 %15, 19
  %18 = getelementptr inbounds double, ptr %0, i64 %17
  %19 = load double, ptr %18, align 8, !tbaa !17
  %20 = fadd double %19, 1.234500e+04
  %21 = call double @llvm.fmuladd.f64(double %20, double 9.142370e+05, double -1.300000e+01)
  %22 = fadd double %21, 1.234500e+04
  %23 = call double @llvm.fmuladd.f64(double %22, double 9.142370e+05, double -1.300000e+01)
  %24 = fadd double %23, 1.234500e+04
  %25 = call double @llvm.fmuladd.f64(double %24, double 9.142370e+05, double -1.300000e+01)
  %26 = load double, ptr %4, align 8, !tbaa !17
  %27 = fadd double %26, %25
  %28 = add nuw nsw i64 %15, 20
  %29 = getelementptr inbounds double, ptr %0, i64 %28
  %30 = load double, ptr %29, align 8, !tbaa !17
  %31 = fadd double %30, 1.234500e+04
  %32 = call double @llvm.fmuladd.f64(double %31, double 9.142370e+05, double -1.300000e+01)
  %33 = fadd double %32, 1.234500e+04
  %34 = call double @llvm.fmuladd.f64(double %33, double 9.142370e+05, double -1.300000e+01)
  %35 = fadd double %34, 1.234500e+04
  %36 = call double @llvm.fmuladd.f64(double %35, double 9.142370e+05, double -1.300000e+01)
  %37 = fadd double %27, %36
  store double %37, ptr %4, align 8, !tbaa !17
  %38 = add nuw i64 %15, 21
  %39 = trunc i64 %38 to i32
  %40 = icmp sgt i32 %10, %39
  br i1 %40, label %14, label %41

41:                                               ; preds = %14, %12
  %42 = phi double [ 0.000000e+00, %12 ], [ %37, %14 ]
  %43 = phi i32 [ 0, %12 ], [ %39, %14 ]
  %44 = icmp slt i32 %43, %1
  br i1 %44, label %45, label %62

45:                                               ; preds = %41
  %46 = sext i32 %43 to i64
  br label %47

47:                                               ; preds = %47, %45
  %48 = phi i64 [ %46, %45 ], [ %59, %47 ]
  %49 = phi double [ %42, %45 ], [ %58, %47 ]
  %50 = getelementptr inbounds double, ptr %0, i64 %48
  %51 = load double, ptr %50, align 8, !tbaa !17
  %52 = fadd double %51, 1.234500e+04
  %53 = call double @llvm.fmuladd.f64(double %52, double 9.142370e+05, double -1.300000e+01)
  %54 = fadd double %53, 1.234500e+04
  %55 = call double @llvm.fmuladd.f64(double %54, double 9.142370e+05, double -1.300000e+01)
  %56 = fadd double %55, 1.234500e+04
  %57 = call double @llvm.fmuladd.f64(double %56, double 9.142370e+05, double -1.300000e+01)
  %58 = fadd double %49, %57
  %59 = add nsw i64 %48, 1
  %60 = icmp eq i64 %59, %11
  br i1 %60, label %61, label %47

61:                                               ; preds = %47
  %.lcssa = phi double [ %58, %47 ]
  store double %.lcssa, ptr %4, align 8, !tbaa !17
  br label %62

62:                                               ; preds = %61, %41
  %63 = phi double [ %.lcssa, %61 ], [ %42, %41 ]
  %64 = load double, ptr @init_value, align 8, !tbaa !17
  %65 = fadd double %64, 1.234500e+04
  %66 = call double @llvm.fmuladd.f64(double %65, double 9.142370e+05, double -1.300000e+01)
  %67 = fadd double %66, 1.234500e+04
  %68 = call double @llvm.fmuladd.f64(double %67, double 9.142370e+05, double -1.300000e+01)
  %69 = fadd double %68, 1.234500e+04
  %70 = call double @llvm.fmuladd.f64(double %69, double 9.142370e+05, double -1.300000e+01)
  %71 = fmul double %70, 8.000000e+03
  %72 = fsub double %63, %71
  %73 = call double @llvm.fabs.f64(double %63)
  %74 = fcmp ogt double %73, 1.000000e-08
  %75 = select i1 %74, double %63, double 1.000000e+00
  %76 = fdiv double %72, %75
  %77 = call double @llvm.fabs.f64(double %76)
  %78 = fcmp olt double %77, 0x3EB0C6F7A0B5ED8D
  br i1 %78, label %82, label %79

79:                                               ; preds = %62
  %80 = load i32, ptr @current_test, align 4, !tbaa !11
  %81 = call i32 (ptr, ...) @printf(ptr noundef nonnull dereferenceable(1) @.str.19, i32 noundef %80) #12
  br label %82

82:                                               ; preds = %79, %62
  call void @llvm.lifetime.end.p0(i64 8, ptr nonnull %4) #16
  %83 = add nuw nsw i32 %13, 1
  %84 = load i32, ptr @iterations, align 4, !tbaa !11
  %85 = icmp slt i32 %83, %84
  br i1 %85, label %12, label %86, !llvm.loop !56

86:                                               ; preds = %82, %3
  %87 = call i64 @clock() #15
  store i64 %87, ptr @end_time, align 8, !tbaa !23
  %88 = load i64, ptr @start_time, align 8, !tbaa !23
  %89 = sub nsw i64 %87, %88
  %90 = sitofp i64 %89 to double
  %91 = fdiv double %90, 1.000000e+06
  call void @_Z13record_resultdPKc(double noundef %91, ptr noundef %2) #12
  ret void
}

; Function Attrs: mustprogress optsize uwtable
define internal void @_ZN15goto_loop_testsILi17EdE7do_testEPKdPKc(ptr noundef %0, ptr noundef %1) #6 comdat align 2 {
  tail call void @_ZN15goto_loop_testsILi15EdE7do_testEPKdPKc(ptr noundef %0, ptr noundef %1) #12
  tail call void @_Z28test_goto_loop_unroll_factorILi16EdEvPKT0_iPKc(ptr noundef %0, i32 noundef 8000, ptr noundef nonnull getelementptr inbounds ([32 x [100 x i8]], ptr @temp_string, i64 0, i64 15)) #12
  tail call void @_Z28test_goto_loop_unroll_factorILi17EdEvPKT0_iPKc(ptr noundef %0, i32 noundef 8000, ptr noundef nonnull getelementptr inbounds ([32 x [100 x i8]], ptr @temp_string, i64 0, i64 16)) #12
  ret void
}

; Function Attrs: mustprogress optsize uwtable
define internal void @_Z28test_goto_loop_unroll_factorILi18EdEvPKT0_iPKc(ptr noundef %0, i32 noundef %1, ptr noundef %2) #6 comdat {
  %4 = tail call i64 @clock() #15
  store i64 %4, ptr @start_time, align 8, !tbaa !23
  %5 = load i32, ptr @iterations, align 4, !tbaa !11
  %6 = icmp sgt i32 %5, 0
  br i1 %6, label %7, label %244

7:                                                ; preds = %3
  %8 = icmp sgt i32 %1, 17
  %9 = add nsw i32 %1, -17
  %10 = sext i32 %9 to i64
  %11 = zext i32 %1 to i64
  br label %12

12:                                               ; preds = %240, %7
  %13 = phi i32 [ 0, %7 ], [ %241, %240 ]
  br i1 %8, label %14, label %200

14:                                               ; preds = %14, %12
  %15 = phi i64 [ %196, %14 ], [ 0, %12 ]
  %16 = phi double [ %195, %14 ], [ 0.000000e+00, %12 ]
  %17 = getelementptr inbounds double, ptr %0, i64 %15
  %18 = load double, ptr %17, align 8, !tbaa !17
  %19 = fadd double %18, 1.234500e+04
  %20 = tail call double @llvm.fmuladd.f64(double %19, double 9.142370e+05, double -1.300000e+01)
  %21 = fadd double %20, 1.234500e+04
  %22 = tail call double @llvm.fmuladd.f64(double %21, double 9.142370e+05, double -1.300000e+01)
  %23 = fadd double %22, 1.234500e+04
  %24 = tail call double @llvm.fmuladd.f64(double %23, double 9.142370e+05, double -1.300000e+01)
  %25 = fadd double %16, %24
  %26 = or i64 %15, 1
  %27 = getelementptr inbounds double, ptr %0, i64 %26
  %28 = load double, ptr %27, align 8, !tbaa !17
  %29 = fadd double %28, 1.234500e+04
  %30 = tail call double @llvm.fmuladd.f64(double %29, double 9.142370e+05, double -1.300000e+01)
  %31 = fadd double %30, 1.234500e+04
  %32 = tail call double @llvm.fmuladd.f64(double %31, double 9.142370e+05, double -1.300000e+01)
  %33 = fadd double %32, 1.234500e+04
  %34 = tail call double @llvm.fmuladd.f64(double %33, double 9.142370e+05, double -1.300000e+01)
  %35 = fadd double %25, %34
  %36 = add nuw nsw i64 %15, 2
  %37 = getelementptr inbounds double, ptr %0, i64 %36
  %38 = load double, ptr %37, align 8, !tbaa !17
  %39 = fadd double %38, 1.234500e+04
  %40 = tail call double @llvm.fmuladd.f64(double %39, double 9.142370e+05, double -1.300000e+01)
  %41 = fadd double %40, 1.234500e+04
  %42 = tail call double @llvm.fmuladd.f64(double %41, double 9.142370e+05, double -1.300000e+01)
  %43 = fadd double %42, 1.234500e+04
  %44 = tail call double @llvm.fmuladd.f64(double %43, double 9.142370e+05, double -1.300000e+01)
  %45 = fadd double %35, %44
  %46 = add nuw nsw i64 %15, 3
  %47 = getelementptr inbounds double, ptr %0, i64 %46
  %48 = load double, ptr %47, align 8, !tbaa !17
  %49 = fadd double %48, 1.234500e+04
  %50 = tail call double @llvm.fmuladd.f64(double %49, double 9.142370e+05, double -1.300000e+01)
  %51 = fadd double %50, 1.234500e+04
  %52 = tail call double @llvm.fmuladd.f64(double %51, double 9.142370e+05, double -1.300000e+01)
  %53 = fadd double %52, 1.234500e+04
  %54 = tail call double @llvm.fmuladd.f64(double %53, double 9.142370e+05, double -1.300000e+01)
  %55 = fadd double %45, %54
  %56 = add nuw nsw i64 %15, 4
  %57 = getelementptr inbounds double, ptr %0, i64 %56
  %58 = load double, ptr %57, align 8, !tbaa !17
  %59 = fadd double %58, 1.234500e+04
  %60 = tail call double @llvm.fmuladd.f64(double %59, double 9.142370e+05, double -1.300000e+01)
  %61 = fadd double %60, 1.234500e+04
  %62 = tail call double @llvm.fmuladd.f64(double %61, double 9.142370e+05, double -1.300000e+01)
  %63 = fadd double %62, 1.234500e+04
  %64 = tail call double @llvm.fmuladd.f64(double %63, double 9.142370e+05, double -1.300000e+01)
  %65 = fadd double %55, %64
  %66 = add nuw nsw i64 %15, 5
  %67 = getelementptr inbounds double, ptr %0, i64 %66
  %68 = load double, ptr %67, align 8, !tbaa !17
  %69 = fadd double %68, 1.234500e+04
  %70 = tail call double @llvm.fmuladd.f64(double %69, double 9.142370e+05, double -1.300000e+01)
  %71 = fadd double %70, 1.234500e+04
  %72 = tail call double @llvm.fmuladd.f64(double %71, double 9.142370e+05, double -1.300000e+01)
  %73 = fadd double %72, 1.234500e+04
  %74 = tail call double @llvm.fmuladd.f64(double %73, double 9.142370e+05, double -1.300000e+01)
  %75 = fadd double %65, %74
  %76 = add nuw nsw i64 %15, 6
  %77 = getelementptr inbounds double, ptr %0, i64 %76
  %78 = load double, ptr %77, align 8, !tbaa !17
  %79 = fadd double %78, 1.234500e+04
  %80 = tail call double @llvm.fmuladd.f64(double %79, double 9.142370e+05, double -1.300000e+01)
  %81 = fadd double %80, 1.234500e+04
  %82 = tail call double @llvm.fmuladd.f64(double %81, double 9.142370e+05, double -1.300000e+01)
  %83 = fadd double %82, 1.234500e+04
  %84 = tail call double @llvm.fmuladd.f64(double %83, double 9.142370e+05, double -1.300000e+01)
  %85 = fadd double %75, %84
  %86 = add nuw nsw i64 %15, 7
  %87 = getelementptr inbounds double, ptr %0, i64 %86
  %88 = load double, ptr %87, align 8, !tbaa !17
  %89 = fadd double %88, 1.234500e+04
  %90 = tail call double @llvm.fmuladd.f64(double %89, double 9.142370e+05, double -1.300000e+01)
  %91 = fadd double %90, 1.234500e+04
  %92 = tail call double @llvm.fmuladd.f64(double %91, double 9.142370e+05, double -1.300000e+01)
  %93 = fadd double %92, 1.234500e+04
  %94 = tail call double @llvm.fmuladd.f64(double %93, double 9.142370e+05, double -1.300000e+01)
  %95 = fadd double %85, %94
  %96 = add nuw nsw i64 %15, 8
  %97 = getelementptr inbounds double, ptr %0, i64 %96
  %98 = load double, ptr %97, align 8, !tbaa !17
  %99 = fadd double %98, 1.234500e+04
  %100 = tail call double @llvm.fmuladd.f64(double %99, double 9.142370e+05, double -1.300000e+01)
  %101 = fadd double %100, 1.234500e+04
  %102 = tail call double @llvm.fmuladd.f64(double %101, double 9.142370e+05, double -1.300000e+01)
  %103 = fadd double %102, 1.234500e+04
  %104 = tail call double @llvm.fmuladd.f64(double %103, double 9.142370e+05, double -1.300000e+01)
  %105 = fadd double %95, %104
  %106 = add nuw nsw i64 %15, 9
  %107 = getelementptr inbounds double, ptr %0, i64 %106
  %108 = load double, ptr %107, align 8, !tbaa !17
  %109 = fadd double %108, 1.234500e+04
  %110 = tail call double @llvm.fmuladd.f64(double %109, double 9.142370e+05, double -1.300000e+01)
  %111 = fadd double %110, 1.234500e+04
  %112 = tail call double @llvm.fmuladd.f64(double %111, double 9.142370e+05, double -1.300000e+01)
  %113 = fadd double %112, 1.234500e+04
  %114 = tail call double @llvm.fmuladd.f64(double %113, double 9.142370e+05, double -1.300000e+01)
  %115 = fadd double %105, %114
  %116 = add nuw nsw i64 %15, 10
  %117 = getelementptr inbounds double, ptr %0, i64 %116
  %118 = load double, ptr %117, align 8, !tbaa !17
  %119 = fadd double %118, 1.234500e+04
  %120 = tail call double @llvm.fmuladd.f64(double %119, double 9.142370e+05, double -1.300000e+01)
  %121 = fadd double %120, 1.234500e+04
  %122 = tail call double @llvm.fmuladd.f64(double %121, double 9.142370e+05, double -1.300000e+01)
  %123 = fadd double %122, 1.234500e+04
  %124 = tail call double @llvm.fmuladd.f64(double %123, double 9.142370e+05, double -1.300000e+01)
  %125 = fadd double %115, %124
  %126 = add nuw nsw i64 %15, 11
  %127 = getelementptr inbounds double, ptr %0, i64 %126
  %128 = load double, ptr %127, align 8, !tbaa !17
  %129 = fadd double %128, 1.234500e+04
  %130 = tail call double @llvm.fmuladd.f64(double %129, double 9.142370e+05, double -1.300000e+01)
  %131 = fadd double %130, 1.234500e+04
  %132 = tail call double @llvm.fmuladd.f64(double %131, double 9.142370e+05, double -1.300000e+01)
  %133 = fadd double %132, 1.234500e+04
  %134 = tail call double @llvm.fmuladd.f64(double %133, double 9.142370e+05, double -1.300000e+01)
  %135 = fadd double %125, %134
  %136 = add nuw nsw i64 %15, 12
  %137 = getelementptr inbounds double, ptr %0, i64 %136
  %138 = load double, ptr %137, align 8, !tbaa !17
  %139 = fadd double %138, 1.234500e+04
  %140 = tail call double @llvm.fmuladd.f64(double %139, double 9.142370e+05, double -1.300000e+01)
  %141 = fadd double %140, 1.234500e+04
  %142 = tail call double @llvm.fmuladd.f64(double %141, double 9.142370e+05, double -1.300000e+01)
  %143 = fadd double %142, 1.234500e+04
  %144 = tail call double @llvm.fmuladd.f64(double %143, double 9.142370e+05, double -1.300000e+01)
  %145 = fadd double %135, %144
  %146 = add nuw nsw i64 %15, 13
  %147 = getelementptr inbounds double, ptr %0, i64 %146
  %148 = load double, ptr %147, align 8, !tbaa !17
  %149 = fadd double %148, 1.234500e+04
  %150 = tail call double @llvm.fmuladd.f64(double %149, double 9.142370e+05, double -1.300000e+01)
  %151 = fadd double %150, 1.234500e+04
  %152 = tail call double @llvm.fmuladd.f64(double %151, double 9.142370e+05, double -1.300000e+01)
  %153 = fadd double %152, 1.234500e+04
  %154 = tail call double @llvm.fmuladd.f64(double %153, double 9.142370e+05, double -1.300000e+01)
  %155 = fadd double %145, %154
  %156 = add nuw nsw i64 %15, 14
  %157 = getelementptr inbounds double, ptr %0, i64 %156
  %158 = load double, ptr %157, align 8, !tbaa !17
  %159 = fadd double %158, 1.234500e+04
  %160 = tail call double @llvm.fmuladd.f64(double %159, double 9.142370e+05, double -1.300000e+01)
  %161 = fadd double %160, 1.234500e+04
  %162 = tail call double @llvm.fmuladd.f64(double %161, double 9.142370e+05, double -1.300000e+01)
  %163 = fadd double %162, 1.234500e+04
  %164 = tail call double @llvm.fmuladd.f64(double %163, double 9.142370e+05, double -1.300000e+01)
  %165 = fadd double %155, %164
  %166 = add nuw nsw i64 %15, 15
  %167 = getelementptr inbounds double, ptr %0, i64 %166
  %168 = load double, ptr %167, align 8, !tbaa !17
  %169 = fadd double %168, 1.234500e+04
  %170 = tail call double @llvm.fmuladd.f64(double %169, double 9.142370e+05, double -1.300000e+01)
  %171 = fadd double %170, 1.234500e+04
  %172 = tail call double @llvm.fmuladd.f64(double %171, double 9.142370e+05, double -1.300000e+01)
  %173 = fadd double %172, 1.234500e+04
  %174 = tail call double @llvm.fmuladd.f64(double %173, double 9.142370e+05, double -1.300000e+01)
  %175 = fadd double %165, %174
  %176 = add nuw nsw i64 %15, 16
  %177 = getelementptr inbounds double, ptr %0, i64 %176
  %178 = load double, ptr %177, align 8, !tbaa !17
  %179 = fadd double %178, 1.234500e+04
  %180 = tail call double @llvm.fmuladd.f64(double %179, double 9.142370e+05, double -1.300000e+01)
  %181 = fadd double %180, 1.234500e+04
  %182 = tail call double @llvm.fmuladd.f64(double %181, double 9.142370e+05, double -1.300000e+01)
  %183 = fadd double %182, 1.234500e+04
  %184 = tail call double @llvm.fmuladd.f64(double %183, double 9.142370e+05, double -1.300000e+01)
  %185 = fadd double %175, %184
  %186 = add nuw nsw i64 %15, 17
  %187 = getelementptr inbounds double, ptr %0, i64 %186
  %188 = load double, ptr %187, align 8, !tbaa !17
  %189 = fadd double %188, 1.234500e+04
  %190 = tail call double @llvm.fmuladd.f64(double %189, double 9.142370e+05, double -1.300000e+01)
  %191 = fadd double %190, 1.234500e+04
  %192 = tail call double @llvm.fmuladd.f64(double %191, double 9.142370e+05, double -1.300000e+01)
  %193 = fadd double %192, 1.234500e+04
  %194 = tail call double @llvm.fmuladd.f64(double %193, double 9.142370e+05, double -1.300000e+01)
  %195 = fadd double %185, %194
  %196 = add nuw nsw i64 %15, 18
  %197 = icmp slt i64 %196, %10
  br i1 %197, label %14, label %198

198:                                              ; preds = %14
  %.lcssa1 = phi double [ %195, %14 ]
  %.lcssa = phi i64 [ %196, %14 ]
  %199 = trunc i64 %.lcssa to i32
  br label %200

200:                                              ; preds = %198, %12
  %201 = phi double [ 0.000000e+00, %12 ], [ %.lcssa1, %198 ]
  %202 = phi i32 [ 0, %12 ], [ %199, %198 ]
  %203 = icmp slt i32 %202, %1
  br i1 %203, label %204, label %220

204:                                              ; preds = %200
  %205 = zext i32 %202 to i64
  br label %206

206:                                              ; preds = %206, %204
  %207 = phi i64 [ %205, %204 ], [ %218, %206 ]
  %208 = phi double [ %201, %204 ], [ %217, %206 ]
  %209 = getelementptr inbounds double, ptr %0, i64 %207
  %210 = load double, ptr %209, align 8, !tbaa !17
  %211 = fadd double %210, 1.234500e+04
  %212 = tail call double @llvm.fmuladd.f64(double %211, double 9.142370e+05, double -1.300000e+01)
  %213 = fadd double %212, 1.234500e+04
  %214 = tail call double @llvm.fmuladd.f64(double %213, double 9.142370e+05, double -1.300000e+01)
  %215 = fadd double %214, 1.234500e+04
  %216 = tail call double @llvm.fmuladd.f64(double %215, double 9.142370e+05, double -1.300000e+01)
  %217 = fadd double %208, %216
  %218 = add nuw nsw i64 %207, 1
  %219 = icmp eq i64 %218, %11
  br i1 %219, label %220, label %206

220:                                              ; preds = %206, %200
  %221 = phi double [ %201, %200 ], [ %217, %206 ]
  %222 = load double, ptr @init_value, align 8, !tbaa !17
  %223 = fadd double %222, 1.234500e+04
  %224 = tail call double @llvm.fmuladd.f64(double %223, double 9.142370e+05, double -1.300000e+01)
  %225 = fadd double %224, 1.234500e+04
  %226 = tail call double @llvm.fmuladd.f64(double %225, double 9.142370e+05, double -1.300000e+01)
  %227 = fadd double %226, 1.234500e+04
  %228 = tail call double @llvm.fmuladd.f64(double %227, double 9.142370e+05, double -1.300000e+01)
  %229 = fmul double %228, 8.000000e+03
  %230 = fsub double %221, %229
  %231 = tail call double @llvm.fabs.f64(double %221)
  %232 = fcmp ogt double %231, 1.000000e-08
  %233 = select i1 %232, double %221, double 1.000000e+00
  %234 = fdiv double %230, %233
  %235 = tail call double @llvm.fabs.f64(double %234)
  %236 = fcmp olt double %235, 0x3EB0C6F7A0B5ED8D
  br i1 %236, label %240, label %237

237:                                              ; preds = %220
  %238 = load i32, ptr @current_test, align 4, !tbaa !11
  %239 = tail call i32 (ptr, ...) @printf(ptr noundef nonnull dereferenceable(1) @.str.19, i32 noundef %238) #12
  br label %240

240:                                              ; preds = %237, %220
  %241 = add nuw nsw i32 %13, 1
  %242 = load i32, ptr @iterations, align 4, !tbaa !11
  %243 = icmp slt i32 %241, %242
  br i1 %243, label %12, label %244, !llvm.loop !57

244:                                              ; preds = %240, %3
  %245 = tail call i64 @clock() #15
  store i64 %245, ptr @end_time, align 8, !tbaa !23
  %246 = load i64, ptr @start_time, align 8, !tbaa !23
  %247 = sub nsw i64 %245, %246
  %248 = sitofp i64 %247 to double
  %249 = fdiv double %248, 1.000000e+06
  tail call void @_Z13record_resultdPKc(double noundef %249, ptr noundef %2) #12
  ret void
}

; Function Attrs: mustprogress optsize uwtable
define internal void @_Z28test_goto_loop_unroll_factorILi19EdEvPKT0_iPKc(ptr noundef %0, i32 noundef %1, ptr noundef %2) #6 comdat {
  %4 = alloca double, align 8
  %5 = tail call i64 @clock() #15
  store i64 %5, ptr @start_time, align 8, !tbaa !23
  %6 = load i32, ptr @iterations, align 4, !tbaa !11
  %7 = icmp sgt i32 %6, 0
  br i1 %7, label %8, label %65

8:                                                ; preds = %3
  %9 = icmp sgt i32 %1, 18
  %10 = add nsw i32 %1, -18
  %11 = sext i32 %1 to i64
  br label %12

12:                                               ; preds = %61, %8
  %13 = phi i32 [ 0, %8 ], [ %62, %61 ]
  call void @llvm.lifetime.start.p0(i64 8, ptr nonnull %4) #16
  store double 0.000000e+00, ptr %4, align 8, !tbaa !17
  br i1 %9, label %14, label %20

14:                                               ; preds = %14, %12
  %15 = phi i32 [ %16, %14 ], [ 0, %12 ]
  call void @_ZN15loop_inner_bodyILi19EdE7do_workERdPKdi(ptr noundef nonnull align 8 dereferenceable(8) %4, ptr noundef %0, i32 noundef %15) #12
  %16 = add nuw nsw i32 %15, 19
  %17 = icmp slt i32 %16, %10
  br i1 %17, label %14, label %18

18:                                               ; preds = %14
  %.lcssa = phi i32 [ %16, %14 ]
  %19 = load double, ptr %4, align 8, !tbaa !17
  br label %20

20:                                               ; preds = %18, %12
  %21 = phi double [ 0.000000e+00, %12 ], [ %19, %18 ]
  %22 = phi i32 [ 0, %12 ], [ %.lcssa, %18 ]
  %23 = icmp slt i32 %22, %1
  br i1 %23, label %24, label %41

24:                                               ; preds = %20
  %25 = sext i32 %22 to i64
  br label %26

26:                                               ; preds = %26, %24
  %27 = phi i64 [ %25, %24 ], [ %38, %26 ]
  %28 = phi double [ %21, %24 ], [ %37, %26 ]
  %29 = getelementptr inbounds double, ptr %0, i64 %27
  %30 = load double, ptr %29, align 8, !tbaa !17
  %31 = fadd double %30, 1.234500e+04
  %32 = call double @llvm.fmuladd.f64(double %31, double 9.142370e+05, double -1.300000e+01)
  %33 = fadd double %32, 1.234500e+04
  %34 = call double @llvm.fmuladd.f64(double %33, double 9.142370e+05, double -1.300000e+01)
  %35 = fadd double %34, 1.234500e+04
  %36 = call double @llvm.fmuladd.f64(double %35, double 9.142370e+05, double -1.300000e+01)
  %37 = fadd double %28, %36
  %38 = add nsw i64 %27, 1
  %39 = icmp eq i64 %38, %11
  br i1 %39, label %40, label %26

40:                                               ; preds = %26
  %.lcssa1 = phi double [ %37, %26 ]
  store double %.lcssa1, ptr %4, align 8, !tbaa !17
  br label %41

41:                                               ; preds = %40, %20
  %42 = phi double [ %.lcssa1, %40 ], [ %21, %20 ]
  %43 = load double, ptr @init_value, align 8, !tbaa !17
  %44 = fadd double %43, 1.234500e+04
  %45 = call double @llvm.fmuladd.f64(double %44, double 9.142370e+05, double -1.300000e+01)
  %46 = fadd double %45, 1.234500e+04
  %47 = call double @llvm.fmuladd.f64(double %46, double 9.142370e+05, double -1.300000e+01)
  %48 = fadd double %47, 1.234500e+04
  %49 = call double @llvm.fmuladd.f64(double %48, double 9.142370e+05, double -1.300000e+01)
  %50 = fmul double %49, 8.000000e+03
  %51 = fsub double %42, %50
  %52 = call double @llvm.fabs.f64(double %42)
  %53 = fcmp ogt double %52, 1.000000e-08
  %54 = select i1 %53, double %42, double 1.000000e+00
  %55 = fdiv double %51, %54
  %56 = call double @llvm.fabs.f64(double %55)
  %57 = fcmp olt double %56, 0x3EB0C6F7A0B5ED8D
  br i1 %57, label %61, label %58

58:                                               ; preds = %41
  %59 = load i32, ptr @current_test, align 4, !tbaa !11
  %60 = call i32 (ptr, ...) @printf(ptr noundef nonnull dereferenceable(1) @.str.19, i32 noundef %59) #12
  br label %61

61:                                               ; preds = %58, %41
  call void @llvm.lifetime.end.p0(i64 8, ptr nonnull %4) #16
  %62 = add nuw nsw i32 %13, 1
  %63 = load i32, ptr @iterations, align 4, !tbaa !11
  %64 = icmp slt i32 %62, %63
  br i1 %64, label %12, label %65, !llvm.loop !58

65:                                               ; preds = %61, %3
  %66 = call i64 @clock() #15
  store i64 %66, ptr @end_time, align 8, !tbaa !23
  %67 = load i64, ptr @start_time, align 8, !tbaa !23
  %68 = sub nsw i64 %66, %67
  %69 = sitofp i64 %68 to double
  %70 = fdiv double %69, 1.000000e+06
  call void @_Z13record_resultdPKc(double noundef %70, ptr noundef %2) #12
  ret void
}

; Function Attrs: mustprogress optsize uwtable
define internal void @_ZN15goto_loop_testsILi15EdE7do_testEPKdPKc(ptr noundef %0, ptr noundef %1) #6 comdat align 2 {
  tail call void @_ZN15goto_loop_testsILi13EdE7do_testEPKdPKc(ptr noundef %0, ptr noundef %1) #12
  tail call void @_Z28test_goto_loop_unroll_factorILi14EdEvPKT0_iPKc(ptr noundef %0, i32 noundef 8000, ptr noundef nonnull getelementptr inbounds ([32 x [100 x i8]], ptr @temp_string, i64 0, i64 13)) #12
  tail call void @_Z28test_goto_loop_unroll_factorILi15EdEvPKT0_iPKc(ptr noundef %0, i32 noundef 8000, ptr noundef nonnull getelementptr inbounds ([32 x [100 x i8]], ptr @temp_string, i64 0, i64 14)) #12
  ret void
}

; Function Attrs: mustprogress optsize uwtable
define internal void @_Z28test_goto_loop_unroll_factorILi16EdEvPKT0_iPKc(ptr noundef %0, i32 noundef %1, ptr noundef %2) #6 comdat {
  %4 = tail call i64 @clock() #15
  store i64 %4, ptr @start_time, align 8, !tbaa !23
  %5 = load i32, ptr @iterations, align 4, !tbaa !11
  %6 = icmp sgt i32 %5, 0
  br i1 %6, label %7, label %224

7:                                                ; preds = %3
  %8 = icmp sgt i32 %1, 15
  %9 = add nsw i32 %1, -15
  %10 = sext i32 %9 to i64
  %11 = zext i32 %1 to i64
  br label %12

12:                                               ; preds = %220, %7
  %13 = phi i32 [ 0, %7 ], [ %221, %220 ]
  br i1 %8, label %14, label %180

14:                                               ; preds = %14, %12
  %15 = phi i64 [ %176, %14 ], [ 0, %12 ]
  %16 = phi double [ %175, %14 ], [ 0.000000e+00, %12 ]
  %17 = getelementptr inbounds double, ptr %0, i64 %15
  %18 = load double, ptr %17, align 8, !tbaa !17
  %19 = fadd double %18, 1.234500e+04
  %20 = tail call double @llvm.fmuladd.f64(double %19, double 9.142370e+05, double -1.300000e+01)
  %21 = fadd double %20, 1.234500e+04
  %22 = tail call double @llvm.fmuladd.f64(double %21, double 9.142370e+05, double -1.300000e+01)
  %23 = fadd double %22, 1.234500e+04
  %24 = tail call double @llvm.fmuladd.f64(double %23, double 9.142370e+05, double -1.300000e+01)
  %25 = fadd double %16, %24
  %26 = or i64 %15, 1
  %27 = getelementptr inbounds double, ptr %0, i64 %26
  %28 = load double, ptr %27, align 8, !tbaa !17
  %29 = fadd double %28, 1.234500e+04
  %30 = tail call double @llvm.fmuladd.f64(double %29, double 9.142370e+05, double -1.300000e+01)
  %31 = fadd double %30, 1.234500e+04
  %32 = tail call double @llvm.fmuladd.f64(double %31, double 9.142370e+05, double -1.300000e+01)
  %33 = fadd double %32, 1.234500e+04
  %34 = tail call double @llvm.fmuladd.f64(double %33, double 9.142370e+05, double -1.300000e+01)
  %35 = fadd double %25, %34
  %36 = or i64 %15, 2
  %37 = getelementptr inbounds double, ptr %0, i64 %36
  %38 = load double, ptr %37, align 8, !tbaa !17
  %39 = fadd double %38, 1.234500e+04
  %40 = tail call double @llvm.fmuladd.f64(double %39, double 9.142370e+05, double -1.300000e+01)
  %41 = fadd double %40, 1.234500e+04
  %42 = tail call double @llvm.fmuladd.f64(double %41, double 9.142370e+05, double -1.300000e+01)
  %43 = fadd double %42, 1.234500e+04
  %44 = tail call double @llvm.fmuladd.f64(double %43, double 9.142370e+05, double -1.300000e+01)
  %45 = fadd double %35, %44
  %46 = or i64 %15, 3
  %47 = getelementptr inbounds double, ptr %0, i64 %46
  %48 = load double, ptr %47, align 8, !tbaa !17
  %49 = fadd double %48, 1.234500e+04
  %50 = tail call double @llvm.fmuladd.f64(double %49, double 9.142370e+05, double -1.300000e+01)
  %51 = fadd double %50, 1.234500e+04
  %52 = tail call double @llvm.fmuladd.f64(double %51, double 9.142370e+05, double -1.300000e+01)
  %53 = fadd double %52, 1.234500e+04
  %54 = tail call double @llvm.fmuladd.f64(double %53, double 9.142370e+05, double -1.300000e+01)
  %55 = fadd double %45, %54
  %56 = or i64 %15, 4
  %57 = getelementptr inbounds double, ptr %0, i64 %56
  %58 = load double, ptr %57, align 8, !tbaa !17
  %59 = fadd double %58, 1.234500e+04
  %60 = tail call double @llvm.fmuladd.f64(double %59, double 9.142370e+05, double -1.300000e+01)
  %61 = fadd double %60, 1.234500e+04
  %62 = tail call double @llvm.fmuladd.f64(double %61, double 9.142370e+05, double -1.300000e+01)
  %63 = fadd double %62, 1.234500e+04
  %64 = tail call double @llvm.fmuladd.f64(double %63, double 9.142370e+05, double -1.300000e+01)
  %65 = fadd double %55, %64
  %66 = or i64 %15, 5
  %67 = getelementptr inbounds double, ptr %0, i64 %66
  %68 = load double, ptr %67, align 8, !tbaa !17
  %69 = fadd double %68, 1.234500e+04
  %70 = tail call double @llvm.fmuladd.f64(double %69, double 9.142370e+05, double -1.300000e+01)
  %71 = fadd double %70, 1.234500e+04
  %72 = tail call double @llvm.fmuladd.f64(double %71, double 9.142370e+05, double -1.300000e+01)
  %73 = fadd double %72, 1.234500e+04
  %74 = tail call double @llvm.fmuladd.f64(double %73, double 9.142370e+05, double -1.300000e+01)
  %75 = fadd double %65, %74
  %76 = or i64 %15, 6
  %77 = getelementptr inbounds double, ptr %0, i64 %76
  %78 = load double, ptr %77, align 8, !tbaa !17
  %79 = fadd double %78, 1.234500e+04
  %80 = tail call double @llvm.fmuladd.f64(double %79, double 9.142370e+05, double -1.300000e+01)
  %81 = fadd double %80, 1.234500e+04
  %82 = tail call double @llvm.fmuladd.f64(double %81, double 9.142370e+05, double -1.300000e+01)
  %83 = fadd double %82, 1.234500e+04
  %84 = tail call double @llvm.fmuladd.f64(double %83, double 9.142370e+05, double -1.300000e+01)
  %85 = fadd double %75, %84
  %86 = or i64 %15, 7
  %87 = getelementptr inbounds double, ptr %0, i64 %86
  %88 = load double, ptr %87, align 8, !tbaa !17
  %89 = fadd double %88, 1.234500e+04
  %90 = tail call double @llvm.fmuladd.f64(double %89, double 9.142370e+05, double -1.300000e+01)
  %91 = fadd double %90, 1.234500e+04
  %92 = tail call double @llvm.fmuladd.f64(double %91, double 9.142370e+05, double -1.300000e+01)
  %93 = fadd double %92, 1.234500e+04
  %94 = tail call double @llvm.fmuladd.f64(double %93, double 9.142370e+05, double -1.300000e+01)
  %95 = fadd double %85, %94
  %96 = or i64 %15, 8
  %97 = getelementptr inbounds double, ptr %0, i64 %96
  %98 = load double, ptr %97, align 8, !tbaa !17
  %99 = fadd double %98, 1.234500e+04
  %100 = tail call double @llvm.fmuladd.f64(double %99, double 9.142370e+05, double -1.300000e+01)
  %101 = fadd double %100, 1.234500e+04
  %102 = tail call double @llvm.fmuladd.f64(double %101, double 9.142370e+05, double -1.300000e+01)
  %103 = fadd double %102, 1.234500e+04
  %104 = tail call double @llvm.fmuladd.f64(double %103, double 9.142370e+05, double -1.300000e+01)
  %105 = fadd double %95, %104
  %106 = or i64 %15, 9
  %107 = getelementptr inbounds double, ptr %0, i64 %106
  %108 = load double, ptr %107, align 8, !tbaa !17
  %109 = fadd double %108, 1.234500e+04
  %110 = tail call double @llvm.fmuladd.f64(double %109, double 9.142370e+05, double -1.300000e+01)
  %111 = fadd double %110, 1.234500e+04
  %112 = tail call double @llvm.fmuladd.f64(double %111, double 9.142370e+05, double -1.300000e+01)
  %113 = fadd double %112, 1.234500e+04
  %114 = tail call double @llvm.fmuladd.f64(double %113, double 9.142370e+05, double -1.300000e+01)
  %115 = fadd double %105, %114
  %116 = or i64 %15, 10
  %117 = getelementptr inbounds double, ptr %0, i64 %116
  %118 = load double, ptr %117, align 8, !tbaa !17
  %119 = fadd double %118, 1.234500e+04
  %120 = tail call double @llvm.fmuladd.f64(double %119, double 9.142370e+05, double -1.300000e+01)
  %121 = fadd double %120, 1.234500e+04
  %122 = tail call double @llvm.fmuladd.f64(double %121, double 9.142370e+05, double -1.300000e+01)
  %123 = fadd double %122, 1.234500e+04
  %124 = tail call double @llvm.fmuladd.f64(double %123, double 9.142370e+05, double -1.300000e+01)
  %125 = fadd double %115, %124
  %126 = or i64 %15, 11
  %127 = getelementptr inbounds double, ptr %0, i64 %126
  %128 = load double, ptr %127, align 8, !tbaa !17
  %129 = fadd double %128, 1.234500e+04
  %130 = tail call double @llvm.fmuladd.f64(double %129, double 9.142370e+05, double -1.300000e+01)
  %131 = fadd double %130, 1.234500e+04
  %132 = tail call double @llvm.fmuladd.f64(double %131, double 9.142370e+05, double -1.300000e+01)
  %133 = fadd double %132, 1.234500e+04
  %134 = tail call double @llvm.fmuladd.f64(double %133, double 9.142370e+05, double -1.300000e+01)
  %135 = fadd double %125, %134
  %136 = or i64 %15, 12
  %137 = getelementptr inbounds double, ptr %0, i64 %136
  %138 = load double, ptr %137, align 8, !tbaa !17
  %139 = fadd double %138, 1.234500e+04
  %140 = tail call double @llvm.fmuladd.f64(double %139, double 9.142370e+05, double -1.300000e+01)
  %141 = fadd double %140, 1.234500e+04
  %142 = tail call double @llvm.fmuladd.f64(double %141, double 9.142370e+05, double -1.300000e+01)
  %143 = fadd double %142, 1.234500e+04
  %144 = tail call double @llvm.fmuladd.f64(double %143, double 9.142370e+05, double -1.300000e+01)
  %145 = fadd double %135, %144
  %146 = or i64 %15, 13
  %147 = getelementptr inbounds double, ptr %0, i64 %146
  %148 = load double, ptr %147, align 8, !tbaa !17
  %149 = fadd double %148, 1.234500e+04
  %150 = tail call double @llvm.fmuladd.f64(double %149, double 9.142370e+05, double -1.300000e+01)
  %151 = fadd double %150, 1.234500e+04
  %152 = tail call double @llvm.fmuladd.f64(double %151, double 9.142370e+05, double -1.300000e+01)
  %153 = fadd double %152, 1.234500e+04
  %154 = tail call double @llvm.fmuladd.f64(double %153, double 9.142370e+05, double -1.300000e+01)
  %155 = fadd double %145, %154
  %156 = or i64 %15, 14
  %157 = getelementptr inbounds double, ptr %0, i64 %156
  %158 = load double, ptr %157, align 8, !tbaa !17
  %159 = fadd double %158, 1.234500e+04
  %160 = tail call double @llvm.fmuladd.f64(double %159, double 9.142370e+05, double -1.300000e+01)
  %161 = fadd double %160, 1.234500e+04
  %162 = tail call double @llvm.fmuladd.f64(double %161, double 9.142370e+05, double -1.300000e+01)
  %163 = fadd double %162, 1.234500e+04
  %164 = tail call double @llvm.fmuladd.f64(double %163, double 9.142370e+05, double -1.300000e+01)
  %165 = fadd double %155, %164
  %166 = or i64 %15, 15
  %167 = getelementptr inbounds double, ptr %0, i64 %166
  %168 = load double, ptr %167, align 8, !tbaa !17
  %169 = fadd double %168, 1.234500e+04
  %170 = tail call double @llvm.fmuladd.f64(double %169, double 9.142370e+05, double -1.300000e+01)
  %171 = fadd double %170, 1.234500e+04
  %172 = tail call double @llvm.fmuladd.f64(double %171, double 9.142370e+05, double -1.300000e+01)
  %173 = fadd double %172, 1.234500e+04
  %174 = tail call double @llvm.fmuladd.f64(double %173, double 9.142370e+05, double -1.300000e+01)
  %175 = fadd double %165, %174
  %176 = add nuw nsw i64 %15, 16
  %177 = icmp slt i64 %176, %10
  br i1 %177, label %14, label %178

178:                                              ; preds = %14
  %.lcssa1 = phi double [ %175, %14 ]
  %.lcssa = phi i64 [ %176, %14 ]
  %179 = trunc i64 %.lcssa to i32
  br label %180

180:                                              ; preds = %178, %12
  %181 = phi double [ 0.000000e+00, %12 ], [ %.lcssa1, %178 ]
  %182 = phi i32 [ 0, %12 ], [ %179, %178 ]
  %183 = icmp slt i32 %182, %1
  br i1 %183, label %184, label %200

184:                                              ; preds = %180
  %185 = zext i32 %182 to i64
  br label %186

186:                                              ; preds = %186, %184
  %187 = phi i64 [ %185, %184 ], [ %198, %186 ]
  %188 = phi double [ %181, %184 ], [ %197, %186 ]
  %189 = getelementptr inbounds double, ptr %0, i64 %187
  %190 = load double, ptr %189, align 8, !tbaa !17
  %191 = fadd double %190, 1.234500e+04
  %192 = tail call double @llvm.fmuladd.f64(double %191, double 9.142370e+05, double -1.300000e+01)
  %193 = fadd double %192, 1.234500e+04
  %194 = tail call double @llvm.fmuladd.f64(double %193, double 9.142370e+05, double -1.300000e+01)
  %195 = fadd double %194, 1.234500e+04
  %196 = tail call double @llvm.fmuladd.f64(double %195, double 9.142370e+05, double -1.300000e+01)
  %197 = fadd double %188, %196
  %198 = add nuw nsw i64 %187, 1
  %199 = icmp eq i64 %198, %11
  br i1 %199, label %200, label %186

200:                                              ; preds = %186, %180
  %201 = phi double [ %181, %180 ], [ %197, %186 ]
  %202 = load double, ptr @init_value, align 8, !tbaa !17
  %203 = fadd double %202, 1.234500e+04
  %204 = tail call double @llvm.fmuladd.f64(double %203, double 9.142370e+05, double -1.300000e+01)
  %205 = fadd double %204, 1.234500e+04
  %206 = tail call double @llvm.fmuladd.f64(double %205, double 9.142370e+05, double -1.300000e+01)
  %207 = fadd double %206, 1.234500e+04
  %208 = tail call double @llvm.fmuladd.f64(double %207, double 9.142370e+05, double -1.300000e+01)
  %209 = fmul double %208, 8.000000e+03
  %210 = fsub double %201, %209
  %211 = tail call double @llvm.fabs.f64(double %201)
  %212 = fcmp ogt double %211, 1.000000e-08
  %213 = select i1 %212, double %201, double 1.000000e+00
  %214 = fdiv double %210, %213
  %215 = tail call double @llvm.fabs.f64(double %214)
  %216 = fcmp olt double %215, 0x3EB0C6F7A0B5ED8D
  br i1 %216, label %220, label %217

217:                                              ; preds = %200
  %218 = load i32, ptr @current_test, align 4, !tbaa !11
  %219 = tail call i32 (ptr, ...) @printf(ptr noundef nonnull dereferenceable(1) @.str.19, i32 noundef %218) #12
  br label %220

220:                                              ; preds = %217, %200
  %221 = add nuw nsw i32 %13, 1
  %222 = load i32, ptr @iterations, align 4, !tbaa !11
  %223 = icmp slt i32 %221, %222
  br i1 %223, label %12, label %224, !llvm.loop !59

224:                                              ; preds = %220, %3
  %225 = tail call i64 @clock() #15
  store i64 %225, ptr @end_time, align 8, !tbaa !23
  %226 = load i64, ptr @start_time, align 8, !tbaa !23
  %227 = sub nsw i64 %225, %226
  %228 = sitofp i64 %227 to double
  %229 = fdiv double %228, 1.000000e+06
  tail call void @_Z13record_resultdPKc(double noundef %229, ptr noundef %2) #12
  ret void
}

; Function Attrs: mustprogress optsize uwtable
define internal void @_Z28test_goto_loop_unroll_factorILi17EdEvPKT0_iPKc(ptr noundef %0, i32 noundef %1, ptr noundef %2) #6 comdat {
  %4 = tail call i64 @clock() #15
  store i64 %4, ptr @start_time, align 8, !tbaa !23
  %5 = load i32, ptr @iterations, align 4, !tbaa !11
  %6 = icmp sgt i32 %5, 0
  br i1 %6, label %7, label %234

7:                                                ; preds = %3
  %8 = icmp sgt i32 %1, 16
  %9 = add nsw i32 %1, -16
  %10 = sext i32 %9 to i64
  %11 = zext i32 %1 to i64
  br label %12

12:                                               ; preds = %230, %7
  %13 = phi i32 [ 0, %7 ], [ %231, %230 ]
  br i1 %8, label %14, label %190

14:                                               ; preds = %14, %12
  %15 = phi i64 [ %186, %14 ], [ 0, %12 ]
  %16 = phi double [ %185, %14 ], [ 0.000000e+00, %12 ]
  %17 = getelementptr inbounds double, ptr %0, i64 %15
  %18 = load double, ptr %17, align 8, !tbaa !17
  %19 = fadd double %18, 1.234500e+04
  %20 = tail call double @llvm.fmuladd.f64(double %19, double 9.142370e+05, double -1.300000e+01)
  %21 = fadd double %20, 1.234500e+04
  %22 = tail call double @llvm.fmuladd.f64(double %21, double 9.142370e+05, double -1.300000e+01)
  %23 = fadd double %22, 1.234500e+04
  %24 = tail call double @llvm.fmuladd.f64(double %23, double 9.142370e+05, double -1.300000e+01)
  %25 = fadd double %16, %24
  %26 = add nuw nsw i64 %15, 1
  %27 = getelementptr inbounds double, ptr %0, i64 %26
  %28 = load double, ptr %27, align 8, !tbaa !17
  %29 = fadd double %28, 1.234500e+04
  %30 = tail call double @llvm.fmuladd.f64(double %29, double 9.142370e+05, double -1.300000e+01)
  %31 = fadd double %30, 1.234500e+04
  %32 = tail call double @llvm.fmuladd.f64(double %31, double 9.142370e+05, double -1.300000e+01)
  %33 = fadd double %32, 1.234500e+04
  %34 = tail call double @llvm.fmuladd.f64(double %33, double 9.142370e+05, double -1.300000e+01)
  %35 = fadd double %25, %34
  %36 = add nuw nsw i64 %15, 2
  %37 = getelementptr inbounds double, ptr %0, i64 %36
  %38 = load double, ptr %37, align 8, !tbaa !17
  %39 = fadd double %38, 1.234500e+04
  %40 = tail call double @llvm.fmuladd.f64(double %39, double 9.142370e+05, double -1.300000e+01)
  %41 = fadd double %40, 1.234500e+04
  %42 = tail call double @llvm.fmuladd.f64(double %41, double 9.142370e+05, double -1.300000e+01)
  %43 = fadd double %42, 1.234500e+04
  %44 = tail call double @llvm.fmuladd.f64(double %43, double 9.142370e+05, double -1.300000e+01)
  %45 = fadd double %35, %44
  %46 = add nuw nsw i64 %15, 3
  %47 = getelementptr inbounds double, ptr %0, i64 %46
  %48 = load double, ptr %47, align 8, !tbaa !17
  %49 = fadd double %48, 1.234500e+04
  %50 = tail call double @llvm.fmuladd.f64(double %49, double 9.142370e+05, double -1.300000e+01)
  %51 = fadd double %50, 1.234500e+04
  %52 = tail call double @llvm.fmuladd.f64(double %51, double 9.142370e+05, double -1.300000e+01)
  %53 = fadd double %52, 1.234500e+04
  %54 = tail call double @llvm.fmuladd.f64(double %53, double 9.142370e+05, double -1.300000e+01)
  %55 = fadd double %45, %54
  %56 = add nuw nsw i64 %15, 4
  %57 = getelementptr inbounds double, ptr %0, i64 %56
  %58 = load double, ptr %57, align 8, !tbaa !17
  %59 = fadd double %58, 1.234500e+04
  %60 = tail call double @llvm.fmuladd.f64(double %59, double 9.142370e+05, double -1.300000e+01)
  %61 = fadd double %60, 1.234500e+04
  %62 = tail call double @llvm.fmuladd.f64(double %61, double 9.142370e+05, double -1.300000e+01)
  %63 = fadd double %62, 1.234500e+04
  %64 = tail call double @llvm.fmuladd.f64(double %63, double 9.142370e+05, double -1.300000e+01)
  %65 = fadd double %55, %64
  %66 = add nuw nsw i64 %15, 5
  %67 = getelementptr inbounds double, ptr %0, i64 %66
  %68 = load double, ptr %67, align 8, !tbaa !17
  %69 = fadd double %68, 1.234500e+04
  %70 = tail call double @llvm.fmuladd.f64(double %69, double 9.142370e+05, double -1.300000e+01)
  %71 = fadd double %70, 1.234500e+04
  %72 = tail call double @llvm.fmuladd.f64(double %71, double 9.142370e+05, double -1.300000e+01)
  %73 = fadd double %72, 1.234500e+04
  %74 = tail call double @llvm.fmuladd.f64(double %73, double 9.142370e+05, double -1.300000e+01)
  %75 = fadd double %65, %74
  %76 = add nuw nsw i64 %15, 6
  %77 = getelementptr inbounds double, ptr %0, i64 %76
  %78 = load double, ptr %77, align 8, !tbaa !17
  %79 = fadd double %78, 1.234500e+04
  %80 = tail call double @llvm.fmuladd.f64(double %79, double 9.142370e+05, double -1.300000e+01)
  %81 = fadd double %80, 1.234500e+04
  %82 = tail call double @llvm.fmuladd.f64(double %81, double 9.142370e+05, double -1.300000e+01)
  %83 = fadd double %82, 1.234500e+04
  %84 = tail call double @llvm.fmuladd.f64(double %83, double 9.142370e+05, double -1.300000e+01)
  %85 = fadd double %75, %84
  %86 = add nuw nsw i64 %15, 7
  %87 = getelementptr inbounds double, ptr %0, i64 %86
  %88 = load double, ptr %87, align 8, !tbaa !17
  %89 = fadd double %88, 1.234500e+04
  %90 = tail call double @llvm.fmuladd.f64(double %89, double 9.142370e+05, double -1.300000e+01)
  %91 = fadd double %90, 1.234500e+04
  %92 = tail call double @llvm.fmuladd.f64(double %91, double 9.142370e+05, double -1.300000e+01)
  %93 = fadd double %92, 1.234500e+04
  %94 = tail call double @llvm.fmuladd.f64(double %93, double 9.142370e+05, double -1.300000e+01)
  %95 = fadd double %85, %94
  %96 = add nuw nsw i64 %15, 8
  %97 = getelementptr inbounds double, ptr %0, i64 %96
  %98 = load double, ptr %97, align 8, !tbaa !17
  %99 = fadd double %98, 1.234500e+04
  %100 = tail call double @llvm.fmuladd.f64(double %99, double 9.142370e+05, double -1.300000e+01)
  %101 = fadd double %100, 1.234500e+04
  %102 = tail call double @llvm.fmuladd.f64(double %101, double 9.142370e+05, double -1.300000e+01)
  %103 = fadd double %102, 1.234500e+04
  %104 = tail call double @llvm.fmuladd.f64(double %103, double 9.142370e+05, double -1.300000e+01)
  %105 = fadd double %95, %104
  %106 = add nuw nsw i64 %15, 9
  %107 = getelementptr inbounds double, ptr %0, i64 %106
  %108 = load double, ptr %107, align 8, !tbaa !17
  %109 = fadd double %108, 1.234500e+04
  %110 = tail call double @llvm.fmuladd.f64(double %109, double 9.142370e+05, double -1.300000e+01)
  %111 = fadd double %110, 1.234500e+04
  %112 = tail call double @llvm.fmuladd.f64(double %111, double 9.142370e+05, double -1.300000e+01)
  %113 = fadd double %112, 1.234500e+04
  %114 = tail call double @llvm.fmuladd.f64(double %113, double 9.142370e+05, double -1.300000e+01)
  %115 = fadd double %105, %114
  %116 = add nuw nsw i64 %15, 10
  %117 = getelementptr inbounds double, ptr %0, i64 %116
  %118 = load double, ptr %117, align 8, !tbaa !17
  %119 = fadd double %118, 1.234500e+04
  %120 = tail call double @llvm.fmuladd.f64(double %119, double 9.142370e+05, double -1.300000e+01)
  %121 = fadd double %120, 1.234500e+04
  %122 = tail call double @llvm.fmuladd.f64(double %121, double 9.142370e+05, double -1.300000e+01)
  %123 = fadd double %122, 1.234500e+04
  %124 = tail call double @llvm.fmuladd.f64(double %123, double 9.142370e+05, double -1.300000e+01)
  %125 = fadd double %115, %124
  %126 = add nuw nsw i64 %15, 11
  %127 = getelementptr inbounds double, ptr %0, i64 %126
  %128 = load double, ptr %127, align 8, !tbaa !17
  %129 = fadd double %128, 1.234500e+04
  %130 = tail call double @llvm.fmuladd.f64(double %129, double 9.142370e+05, double -1.300000e+01)
  %131 = fadd double %130, 1.234500e+04
  %132 = tail call double @llvm.fmuladd.f64(double %131, double 9.142370e+05, double -1.300000e+01)
  %133 = fadd double %132, 1.234500e+04
  %134 = tail call double @llvm.fmuladd.f64(double %133, double 9.142370e+05, double -1.300000e+01)
  %135 = fadd double %125, %134
  %136 = add nuw nsw i64 %15, 12
  %137 = getelementptr inbounds double, ptr %0, i64 %136
  %138 = load double, ptr %137, align 8, !tbaa !17
  %139 = fadd double %138, 1.234500e+04
  %140 = tail call double @llvm.fmuladd.f64(double %139, double 9.142370e+05, double -1.300000e+01)
  %141 = fadd double %140, 1.234500e+04
  %142 = tail call double @llvm.fmuladd.f64(double %141, double 9.142370e+05, double -1.300000e+01)
  %143 = fadd double %142, 1.234500e+04
  %144 = tail call double @llvm.fmuladd.f64(double %143, double 9.142370e+05, double -1.300000e+01)
  %145 = fadd double %135, %144
  %146 = add nuw nsw i64 %15, 13
  %147 = getelementptr inbounds double, ptr %0, i64 %146
  %148 = load double, ptr %147, align 8, !tbaa !17
  %149 = fadd double %148, 1.234500e+04
  %150 = tail call double @llvm.fmuladd.f64(double %149, double 9.142370e+05, double -1.300000e+01)
  %151 = fadd double %150, 1.234500e+04
  %152 = tail call double @llvm.fmuladd.f64(double %151, double 9.142370e+05, double -1.300000e+01)
  %153 = fadd double %152, 1.234500e+04
  %154 = tail call double @llvm.fmuladd.f64(double %153, double 9.142370e+05, double -1.300000e+01)
  %155 = fadd double %145, %154
  %156 = add nuw nsw i64 %15, 14
  %157 = getelementptr inbounds double, ptr %0, i64 %156
  %158 = load double, ptr %157, align 8, !tbaa !17
  %159 = fadd double %158, 1.234500e+04
  %160 = tail call double @llvm.fmuladd.f64(double %159, double 9.142370e+05, double -1.300000e+01)
  %161 = fadd double %160, 1.234500e+04
  %162 = tail call double @llvm.fmuladd.f64(double %161, double 9.142370e+05, double -1.300000e+01)
  %163 = fadd double %162, 1.234500e+04
  %164 = tail call double @llvm.fmuladd.f64(double %163, double 9.142370e+05, double -1.300000e+01)
  %165 = fadd double %155, %164
  %166 = add nuw nsw i64 %15, 15
  %167 = getelementptr inbounds double, ptr %0, i64 %166
  %168 = load double, ptr %167, align 8, !tbaa !17
  %169 = fadd double %168, 1.234500e+04
  %170 = tail call double @llvm.fmuladd.f64(double %169, double 9.142370e+05, double -1.300000e+01)
  %171 = fadd double %170, 1.234500e+04
  %172 = tail call double @llvm.fmuladd.f64(double %171, double 9.142370e+05, double -1.300000e+01)
  %173 = fadd double %172, 1.234500e+04
  %174 = tail call double @llvm.fmuladd.f64(double %173, double 9.142370e+05, double -1.300000e+01)
  %175 = fadd double %165, %174
  %176 = add nuw nsw i64 %15, 16
  %177 = getelementptr inbounds double, ptr %0, i64 %176
  %178 = load double, ptr %177, align 8, !tbaa !17
  %179 = fadd double %178, 1.234500e+04
  %180 = tail call double @llvm.fmuladd.f64(double %179, double 9.142370e+05, double -1.300000e+01)
  %181 = fadd double %180, 1.234500e+04
  %182 = tail call double @llvm.fmuladd.f64(double %181, double 9.142370e+05, double -1.300000e+01)
  %183 = fadd double %182, 1.234500e+04
  %184 = tail call double @llvm.fmuladd.f64(double %183, double 9.142370e+05, double -1.300000e+01)
  %185 = fadd double %175, %184
  %186 = add nuw nsw i64 %15, 17
  %187 = icmp slt i64 %186, %10
  br i1 %187, label %14, label %188

188:                                              ; preds = %14
  %.lcssa1 = phi double [ %185, %14 ]
  %.lcssa = phi i64 [ %186, %14 ]
  %189 = trunc i64 %.lcssa to i32
  br label %190

190:                                              ; preds = %188, %12
  %191 = phi double [ 0.000000e+00, %12 ], [ %.lcssa1, %188 ]
  %192 = phi i32 [ 0, %12 ], [ %189, %188 ]
  %193 = icmp slt i32 %192, %1
  br i1 %193, label %194, label %210

194:                                              ; preds = %190
  %195 = zext i32 %192 to i64
  br label %196

196:                                              ; preds = %196, %194
  %197 = phi i64 [ %195, %194 ], [ %208, %196 ]
  %198 = phi double [ %191, %194 ], [ %207, %196 ]
  %199 = getelementptr inbounds double, ptr %0, i64 %197
  %200 = load double, ptr %199, align 8, !tbaa !17
  %201 = fadd double %200, 1.234500e+04
  %202 = tail call double @llvm.fmuladd.f64(double %201, double 9.142370e+05, double -1.300000e+01)
  %203 = fadd double %202, 1.234500e+04
  %204 = tail call double @llvm.fmuladd.f64(double %203, double 9.142370e+05, double -1.300000e+01)
  %205 = fadd double %204, 1.234500e+04
  %206 = tail call double @llvm.fmuladd.f64(double %205, double 9.142370e+05, double -1.300000e+01)
  %207 = fadd double %198, %206
  %208 = add nuw nsw i64 %197, 1
  %209 = icmp eq i64 %208, %11
  br i1 %209, label %210, label %196

210:                                              ; preds = %196, %190
  %211 = phi double [ %191, %190 ], [ %207, %196 ]
  %212 = load double, ptr @init_value, align 8, !tbaa !17
  %213 = fadd double %212, 1.234500e+04
  %214 = tail call double @llvm.fmuladd.f64(double %213, double 9.142370e+05, double -1.300000e+01)
  %215 = fadd double %214, 1.234500e+04
  %216 = tail call double @llvm.fmuladd.f64(double %215, double 9.142370e+05, double -1.300000e+01)
  %217 = fadd double %216, 1.234500e+04
  %218 = tail call double @llvm.fmuladd.f64(double %217, double 9.142370e+05, double -1.300000e+01)
  %219 = fmul double %218, 8.000000e+03
  %220 = fsub double %211, %219
  %221 = tail call double @llvm.fabs.f64(double %211)
  %222 = fcmp ogt double %221, 1.000000e-08
  %223 = select i1 %222, double %211, double 1.000000e+00
  %224 = fdiv double %220, %223
  %225 = tail call double @llvm.fabs.f64(double %224)
  %226 = fcmp olt double %225, 0x3EB0C6F7A0B5ED8D
  br i1 %226, label %230, label %227

227:                                              ; preds = %210
  %228 = load i32, ptr @current_test, align 4, !tbaa !11
  %229 = tail call i32 (ptr, ...) @printf(ptr noundef nonnull dereferenceable(1) @.str.19, i32 noundef %228) #12
  br label %230

230:                                              ; preds = %227, %210
  %231 = add nuw nsw i32 %13, 1
  %232 = load i32, ptr @iterations, align 4, !tbaa !11
  %233 = icmp slt i32 %231, %232
  br i1 %233, label %12, label %234, !llvm.loop !60

234:                                              ; preds = %230, %3
  %235 = tail call i64 @clock() #15
  store i64 %235, ptr @end_time, align 8, !tbaa !23
  %236 = load i64, ptr @start_time, align 8, !tbaa !23
  %237 = sub nsw i64 %235, %236
  %238 = sitofp i64 %237 to double
  %239 = fdiv double %238, 1.000000e+06
  tail call void @_Z13record_resultdPKc(double noundef %239, ptr noundef %2) #12
  ret void
}

; Function Attrs: mustprogress optsize uwtable
define internal void @_ZN15goto_loop_testsILi13EdE7do_testEPKdPKc(ptr noundef %0, ptr noundef %1) #6 comdat align 2 {
  tail call void @_ZN15goto_loop_testsILi11EdE7do_testEPKdPKc(ptr noundef %0, ptr noundef %1) #12
  tail call void @_Z28test_goto_loop_unroll_factorILi12EdEvPKT0_iPKc(ptr noundef %0, i32 noundef 8000, ptr noundef nonnull getelementptr inbounds ([32 x [100 x i8]], ptr @temp_string, i64 0, i64 11)) #12
  tail call void @_Z28test_goto_loop_unroll_factorILi13EdEvPKT0_iPKc(ptr noundef %0, i32 noundef 8000, ptr noundef nonnull getelementptr inbounds ([32 x [100 x i8]], ptr @temp_string, i64 0, i64 12)) #12
  ret void
}

; Function Attrs: mustprogress optsize uwtable
define internal void @_Z28test_goto_loop_unroll_factorILi14EdEvPKT0_iPKc(ptr noundef %0, i32 noundef %1, ptr noundef %2) #6 comdat {
  %4 = tail call i64 @clock() #15
  store i64 %4, ptr @start_time, align 8, !tbaa !23
  %5 = load i32, ptr @iterations, align 4, !tbaa !11
  %6 = icmp sgt i32 %5, 0
  br i1 %6, label %7, label %204

7:                                                ; preds = %3
  %8 = icmp sgt i32 %1, 13
  %9 = add nsw i32 %1, -13
  %10 = sext i32 %9 to i64
  %11 = zext i32 %1 to i64
  br label %12

12:                                               ; preds = %200, %7
  %13 = phi i32 [ 0, %7 ], [ %201, %200 ]
  br i1 %8, label %14, label %160

14:                                               ; preds = %14, %12
  %15 = phi i64 [ %156, %14 ], [ 0, %12 ]
  %16 = phi double [ %155, %14 ], [ 0.000000e+00, %12 ]
  %17 = getelementptr inbounds double, ptr %0, i64 %15
  %18 = load double, ptr %17, align 8, !tbaa !17
  %19 = fadd double %18, 1.234500e+04
  %20 = tail call double @llvm.fmuladd.f64(double %19, double 9.142370e+05, double -1.300000e+01)
  %21 = fadd double %20, 1.234500e+04
  %22 = tail call double @llvm.fmuladd.f64(double %21, double 9.142370e+05, double -1.300000e+01)
  %23 = fadd double %22, 1.234500e+04
  %24 = tail call double @llvm.fmuladd.f64(double %23, double 9.142370e+05, double -1.300000e+01)
  %25 = fadd double %16, %24
  %26 = or i64 %15, 1
  %27 = getelementptr inbounds double, ptr %0, i64 %26
  %28 = load double, ptr %27, align 8, !tbaa !17
  %29 = fadd double %28, 1.234500e+04
  %30 = tail call double @llvm.fmuladd.f64(double %29, double 9.142370e+05, double -1.300000e+01)
  %31 = fadd double %30, 1.234500e+04
  %32 = tail call double @llvm.fmuladd.f64(double %31, double 9.142370e+05, double -1.300000e+01)
  %33 = fadd double %32, 1.234500e+04
  %34 = tail call double @llvm.fmuladd.f64(double %33, double 9.142370e+05, double -1.300000e+01)
  %35 = fadd double %25, %34
  %36 = add nuw nsw i64 %15, 2
  %37 = getelementptr inbounds double, ptr %0, i64 %36
  %38 = load double, ptr %37, align 8, !tbaa !17
  %39 = fadd double %38, 1.234500e+04
  %40 = tail call double @llvm.fmuladd.f64(double %39, double 9.142370e+05, double -1.300000e+01)
  %41 = fadd double %40, 1.234500e+04
  %42 = tail call double @llvm.fmuladd.f64(double %41, double 9.142370e+05, double -1.300000e+01)
  %43 = fadd double %42, 1.234500e+04
  %44 = tail call double @llvm.fmuladd.f64(double %43, double 9.142370e+05, double -1.300000e+01)
  %45 = fadd double %35, %44
  %46 = add nuw nsw i64 %15, 3
  %47 = getelementptr inbounds double, ptr %0, i64 %46
  %48 = load double, ptr %47, align 8, !tbaa !17
  %49 = fadd double %48, 1.234500e+04
  %50 = tail call double @llvm.fmuladd.f64(double %49, double 9.142370e+05, double -1.300000e+01)
  %51 = fadd double %50, 1.234500e+04
  %52 = tail call double @llvm.fmuladd.f64(double %51, double 9.142370e+05, double -1.300000e+01)
  %53 = fadd double %52, 1.234500e+04
  %54 = tail call double @llvm.fmuladd.f64(double %53, double 9.142370e+05, double -1.300000e+01)
  %55 = fadd double %45, %54
  %56 = add nuw nsw i64 %15, 4
  %57 = getelementptr inbounds double, ptr %0, i64 %56
  %58 = load double, ptr %57, align 8, !tbaa !17
  %59 = fadd double %58, 1.234500e+04
  %60 = tail call double @llvm.fmuladd.f64(double %59, double 9.142370e+05, double -1.300000e+01)
  %61 = fadd double %60, 1.234500e+04
  %62 = tail call double @llvm.fmuladd.f64(double %61, double 9.142370e+05, double -1.300000e+01)
  %63 = fadd double %62, 1.234500e+04
  %64 = tail call double @llvm.fmuladd.f64(double %63, double 9.142370e+05, double -1.300000e+01)
  %65 = fadd double %55, %64
  %66 = add nuw nsw i64 %15, 5
  %67 = getelementptr inbounds double, ptr %0, i64 %66
  %68 = load double, ptr %67, align 8, !tbaa !17
  %69 = fadd double %68, 1.234500e+04
  %70 = tail call double @llvm.fmuladd.f64(double %69, double 9.142370e+05, double -1.300000e+01)
  %71 = fadd double %70, 1.234500e+04
  %72 = tail call double @llvm.fmuladd.f64(double %71, double 9.142370e+05, double -1.300000e+01)
  %73 = fadd double %72, 1.234500e+04
  %74 = tail call double @llvm.fmuladd.f64(double %73, double 9.142370e+05, double -1.300000e+01)
  %75 = fadd double %65, %74
  %76 = add nuw nsw i64 %15, 6
  %77 = getelementptr inbounds double, ptr %0, i64 %76
  %78 = load double, ptr %77, align 8, !tbaa !17
  %79 = fadd double %78, 1.234500e+04
  %80 = tail call double @llvm.fmuladd.f64(double %79, double 9.142370e+05, double -1.300000e+01)
  %81 = fadd double %80, 1.234500e+04
  %82 = tail call double @llvm.fmuladd.f64(double %81, double 9.142370e+05, double -1.300000e+01)
  %83 = fadd double %82, 1.234500e+04
  %84 = tail call double @llvm.fmuladd.f64(double %83, double 9.142370e+05, double -1.300000e+01)
  %85 = fadd double %75, %84
  %86 = add nuw nsw i64 %15, 7
  %87 = getelementptr inbounds double, ptr %0, i64 %86
  %88 = load double, ptr %87, align 8, !tbaa !17
  %89 = fadd double %88, 1.234500e+04
  %90 = tail call double @llvm.fmuladd.f64(double %89, double 9.142370e+05, double -1.300000e+01)
  %91 = fadd double %90, 1.234500e+04
  %92 = tail call double @llvm.fmuladd.f64(double %91, double 9.142370e+05, double -1.300000e+01)
  %93 = fadd double %92, 1.234500e+04
  %94 = tail call double @llvm.fmuladd.f64(double %93, double 9.142370e+05, double -1.300000e+01)
  %95 = fadd double %85, %94
  %96 = add nuw nsw i64 %15, 8
  %97 = getelementptr inbounds double, ptr %0, i64 %96
  %98 = load double, ptr %97, align 8, !tbaa !17
  %99 = fadd double %98, 1.234500e+04
  %100 = tail call double @llvm.fmuladd.f64(double %99, double 9.142370e+05, double -1.300000e+01)
  %101 = fadd double %100, 1.234500e+04
  %102 = tail call double @llvm.fmuladd.f64(double %101, double 9.142370e+05, double -1.300000e+01)
  %103 = fadd double %102, 1.234500e+04
  %104 = tail call double @llvm.fmuladd.f64(double %103, double 9.142370e+05, double -1.300000e+01)
  %105 = fadd double %95, %104
  %106 = add nuw nsw i64 %15, 9
  %107 = getelementptr inbounds double, ptr %0, i64 %106
  %108 = load double, ptr %107, align 8, !tbaa !17
  %109 = fadd double %108, 1.234500e+04
  %110 = tail call double @llvm.fmuladd.f64(double %109, double 9.142370e+05, double -1.300000e+01)
  %111 = fadd double %110, 1.234500e+04
  %112 = tail call double @llvm.fmuladd.f64(double %111, double 9.142370e+05, double -1.300000e+01)
  %113 = fadd double %112, 1.234500e+04
  %114 = tail call double @llvm.fmuladd.f64(double %113, double 9.142370e+05, double -1.300000e+01)
  %115 = fadd double %105, %114
  %116 = add nuw nsw i64 %15, 10
  %117 = getelementptr inbounds double, ptr %0, i64 %116
  %118 = load double, ptr %117, align 8, !tbaa !17
  %119 = fadd double %118, 1.234500e+04
  %120 = tail call double @llvm.fmuladd.f64(double %119, double 9.142370e+05, double -1.300000e+01)
  %121 = fadd double %120, 1.234500e+04
  %122 = tail call double @llvm.fmuladd.f64(double %121, double 9.142370e+05, double -1.300000e+01)
  %123 = fadd double %122, 1.234500e+04
  %124 = tail call double @llvm.fmuladd.f64(double %123, double 9.142370e+05, double -1.300000e+01)
  %125 = fadd double %115, %124
  %126 = add nuw nsw i64 %15, 11
  %127 = getelementptr inbounds double, ptr %0, i64 %126
  %128 = load double, ptr %127, align 8, !tbaa !17
  %129 = fadd double %128, 1.234500e+04
  %130 = tail call double @llvm.fmuladd.f64(double %129, double 9.142370e+05, double -1.300000e+01)
  %131 = fadd double %130, 1.234500e+04
  %132 = tail call double @llvm.fmuladd.f64(double %131, double 9.142370e+05, double -1.300000e+01)
  %133 = fadd double %132, 1.234500e+04
  %134 = tail call double @llvm.fmuladd.f64(double %133, double 9.142370e+05, double -1.300000e+01)
  %135 = fadd double %125, %134
  %136 = add nuw nsw i64 %15, 12
  %137 = getelementptr inbounds double, ptr %0, i64 %136
  %138 = load double, ptr %137, align 8, !tbaa !17
  %139 = fadd double %138, 1.234500e+04
  %140 = tail call double @llvm.fmuladd.f64(double %139, double 9.142370e+05, double -1.300000e+01)
  %141 = fadd double %140, 1.234500e+04
  %142 = tail call double @llvm.fmuladd.f64(double %141, double 9.142370e+05, double -1.300000e+01)
  %143 = fadd double %142, 1.234500e+04
  %144 = tail call double @llvm.fmuladd.f64(double %143, double 9.142370e+05, double -1.300000e+01)
  %145 = fadd double %135, %144
  %146 = add nuw nsw i64 %15, 13
  %147 = getelementptr inbounds double, ptr %0, i64 %146
  %148 = load double, ptr %147, align 8, !tbaa !17
  %149 = fadd double %148, 1.234500e+04
  %150 = tail call double @llvm.fmuladd.f64(double %149, double 9.142370e+05, double -1.300000e+01)
  %151 = fadd double %150, 1.234500e+04
  %152 = tail call double @llvm.fmuladd.f64(double %151, double 9.142370e+05, double -1.300000e+01)
  %153 = fadd double %152, 1.234500e+04
  %154 = tail call double @llvm.fmuladd.f64(double %153, double 9.142370e+05, double -1.300000e+01)
  %155 = fadd double %145, %154
  %156 = add nuw nsw i64 %15, 14
  %157 = icmp slt i64 %156, %10
  br i1 %157, label %14, label %158

158:                                              ; preds = %14
  %.lcssa1 = phi double [ %155, %14 ]
  %.lcssa = phi i64 [ %156, %14 ]
  %159 = trunc i64 %.lcssa to i32
  br label %160

160:                                              ; preds = %158, %12
  %161 = phi double [ 0.000000e+00, %12 ], [ %.lcssa1, %158 ]
  %162 = phi i32 [ 0, %12 ], [ %159, %158 ]
  %163 = icmp slt i32 %162, %1
  br i1 %163, label %164, label %180

164:                                              ; preds = %160
  %165 = zext i32 %162 to i64
  br label %166

166:                                              ; preds = %166, %164
  %167 = phi i64 [ %165, %164 ], [ %178, %166 ]
  %168 = phi double [ %161, %164 ], [ %177, %166 ]
  %169 = getelementptr inbounds double, ptr %0, i64 %167
  %170 = load double, ptr %169, align 8, !tbaa !17
  %171 = fadd double %170, 1.234500e+04
  %172 = tail call double @llvm.fmuladd.f64(double %171, double 9.142370e+05, double -1.300000e+01)
  %173 = fadd double %172, 1.234500e+04
  %174 = tail call double @llvm.fmuladd.f64(double %173, double 9.142370e+05, double -1.300000e+01)
  %175 = fadd double %174, 1.234500e+04
  %176 = tail call double @llvm.fmuladd.f64(double %175, double 9.142370e+05, double -1.300000e+01)
  %177 = fadd double %168, %176
  %178 = add nuw nsw i64 %167, 1
  %179 = icmp eq i64 %178, %11
  br i1 %179, label %180, label %166

180:                                              ; preds = %166, %160
  %181 = phi double [ %161, %160 ], [ %177, %166 ]
  %182 = load double, ptr @init_value, align 8, !tbaa !17
  %183 = fadd double %182, 1.234500e+04
  %184 = tail call double @llvm.fmuladd.f64(double %183, double 9.142370e+05, double -1.300000e+01)
  %185 = fadd double %184, 1.234500e+04
  %186 = tail call double @llvm.fmuladd.f64(double %185, double 9.142370e+05, double -1.300000e+01)
  %187 = fadd double %186, 1.234500e+04
  %188 = tail call double @llvm.fmuladd.f64(double %187, double 9.142370e+05, double -1.300000e+01)
  %189 = fmul double %188, 8.000000e+03
  %190 = fsub double %181, %189
  %191 = tail call double @llvm.fabs.f64(double %181)
  %192 = fcmp ogt double %191, 1.000000e-08
  %193 = select i1 %192, double %181, double 1.000000e+00
  %194 = fdiv double %190, %193
  %195 = tail call double @llvm.fabs.f64(double %194)
  %196 = fcmp olt double %195, 0x3EB0C6F7A0B5ED8D
  br i1 %196, label %200, label %197

197:                                              ; preds = %180
  %198 = load i32, ptr @current_test, align 4, !tbaa !11
  %199 = tail call i32 (ptr, ...) @printf(ptr noundef nonnull dereferenceable(1) @.str.19, i32 noundef %198) #12
  br label %200

200:                                              ; preds = %197, %180
  %201 = add nuw nsw i32 %13, 1
  %202 = load i32, ptr @iterations, align 4, !tbaa !11
  %203 = icmp slt i32 %201, %202
  br i1 %203, label %12, label %204, !llvm.loop !61

204:                                              ; preds = %200, %3
  %205 = tail call i64 @clock() #15
  store i64 %205, ptr @end_time, align 8, !tbaa !23
  %206 = load i64, ptr @start_time, align 8, !tbaa !23
  %207 = sub nsw i64 %205, %206
  %208 = sitofp i64 %207 to double
  %209 = fdiv double %208, 1.000000e+06
  tail call void @_Z13record_resultdPKc(double noundef %209, ptr noundef %2) #12
  ret void
}

; Function Attrs: mustprogress optsize uwtable
define internal void @_Z28test_goto_loop_unroll_factorILi15EdEvPKT0_iPKc(ptr noundef %0, i32 noundef %1, ptr noundef %2) #6 comdat {
  %4 = tail call i64 @clock() #15
  store i64 %4, ptr @start_time, align 8, !tbaa !23
  %5 = load i32, ptr @iterations, align 4, !tbaa !11
  %6 = icmp sgt i32 %5, 0
  br i1 %6, label %7, label %214

7:                                                ; preds = %3
  %8 = icmp sgt i32 %1, 14
  %9 = add nsw i32 %1, -14
  %10 = sext i32 %9 to i64
  %11 = zext i32 %1 to i64
  br label %12

12:                                               ; preds = %210, %7
  %13 = phi i32 [ 0, %7 ], [ %211, %210 ]
  br i1 %8, label %14, label %170

14:                                               ; preds = %14, %12
  %15 = phi i64 [ %166, %14 ], [ 0, %12 ]
  %16 = phi double [ %165, %14 ], [ 0.000000e+00, %12 ]
  %17 = getelementptr inbounds double, ptr %0, i64 %15
  %18 = load double, ptr %17, align 8, !tbaa !17
  %19 = fadd double %18, 1.234500e+04
  %20 = tail call double @llvm.fmuladd.f64(double %19, double 9.142370e+05, double -1.300000e+01)
  %21 = fadd double %20, 1.234500e+04
  %22 = tail call double @llvm.fmuladd.f64(double %21, double 9.142370e+05, double -1.300000e+01)
  %23 = fadd double %22, 1.234500e+04
  %24 = tail call double @llvm.fmuladd.f64(double %23, double 9.142370e+05, double -1.300000e+01)
  %25 = fadd double %16, %24
  %26 = add nuw nsw i64 %15, 1
  %27 = getelementptr inbounds double, ptr %0, i64 %26
  %28 = load double, ptr %27, align 8, !tbaa !17
  %29 = fadd double %28, 1.234500e+04
  %30 = tail call double @llvm.fmuladd.f64(double %29, double 9.142370e+05, double -1.300000e+01)
  %31 = fadd double %30, 1.234500e+04
  %32 = tail call double @llvm.fmuladd.f64(double %31, double 9.142370e+05, double -1.300000e+01)
  %33 = fadd double %32, 1.234500e+04
  %34 = tail call double @llvm.fmuladd.f64(double %33, double 9.142370e+05, double -1.300000e+01)
  %35 = fadd double %25, %34
  %36 = add nuw nsw i64 %15, 2
  %37 = getelementptr inbounds double, ptr %0, i64 %36
  %38 = load double, ptr %37, align 8, !tbaa !17
  %39 = fadd double %38, 1.234500e+04
  %40 = tail call double @llvm.fmuladd.f64(double %39, double 9.142370e+05, double -1.300000e+01)
  %41 = fadd double %40, 1.234500e+04
  %42 = tail call double @llvm.fmuladd.f64(double %41, double 9.142370e+05, double -1.300000e+01)
  %43 = fadd double %42, 1.234500e+04
  %44 = tail call double @llvm.fmuladd.f64(double %43, double 9.142370e+05, double -1.300000e+01)
  %45 = fadd double %35, %44
  %46 = add nuw nsw i64 %15, 3
  %47 = getelementptr inbounds double, ptr %0, i64 %46
  %48 = load double, ptr %47, align 8, !tbaa !17
  %49 = fadd double %48, 1.234500e+04
  %50 = tail call double @llvm.fmuladd.f64(double %49, double 9.142370e+05, double -1.300000e+01)
  %51 = fadd double %50, 1.234500e+04
  %52 = tail call double @llvm.fmuladd.f64(double %51, double 9.142370e+05, double -1.300000e+01)
  %53 = fadd double %52, 1.234500e+04
  %54 = tail call double @llvm.fmuladd.f64(double %53, double 9.142370e+05, double -1.300000e+01)
  %55 = fadd double %45, %54
  %56 = add nuw nsw i64 %15, 4
  %57 = getelementptr inbounds double, ptr %0, i64 %56
  %58 = load double, ptr %57, align 8, !tbaa !17
  %59 = fadd double %58, 1.234500e+04
  %60 = tail call double @llvm.fmuladd.f64(double %59, double 9.142370e+05, double -1.300000e+01)
  %61 = fadd double %60, 1.234500e+04
  %62 = tail call double @llvm.fmuladd.f64(double %61, double 9.142370e+05, double -1.300000e+01)
  %63 = fadd double %62, 1.234500e+04
  %64 = tail call double @llvm.fmuladd.f64(double %63, double 9.142370e+05, double -1.300000e+01)
  %65 = fadd double %55, %64
  %66 = add nuw nsw i64 %15, 5
  %67 = getelementptr inbounds double, ptr %0, i64 %66
  %68 = load double, ptr %67, align 8, !tbaa !17
  %69 = fadd double %68, 1.234500e+04
  %70 = tail call double @llvm.fmuladd.f64(double %69, double 9.142370e+05, double -1.300000e+01)
  %71 = fadd double %70, 1.234500e+04
  %72 = tail call double @llvm.fmuladd.f64(double %71, double 9.142370e+05, double -1.300000e+01)
  %73 = fadd double %72, 1.234500e+04
  %74 = tail call double @llvm.fmuladd.f64(double %73, double 9.142370e+05, double -1.300000e+01)
  %75 = fadd double %65, %74
  %76 = add nuw nsw i64 %15, 6
  %77 = getelementptr inbounds double, ptr %0, i64 %76
  %78 = load double, ptr %77, align 8, !tbaa !17
  %79 = fadd double %78, 1.234500e+04
  %80 = tail call double @llvm.fmuladd.f64(double %79, double 9.142370e+05, double -1.300000e+01)
  %81 = fadd double %80, 1.234500e+04
  %82 = tail call double @llvm.fmuladd.f64(double %81, double 9.142370e+05, double -1.300000e+01)
  %83 = fadd double %82, 1.234500e+04
  %84 = tail call double @llvm.fmuladd.f64(double %83, double 9.142370e+05, double -1.300000e+01)
  %85 = fadd double %75, %84
  %86 = add nuw nsw i64 %15, 7
  %87 = getelementptr inbounds double, ptr %0, i64 %86
  %88 = load double, ptr %87, align 8, !tbaa !17
  %89 = fadd double %88, 1.234500e+04
  %90 = tail call double @llvm.fmuladd.f64(double %89, double 9.142370e+05, double -1.300000e+01)
  %91 = fadd double %90, 1.234500e+04
  %92 = tail call double @llvm.fmuladd.f64(double %91, double 9.142370e+05, double -1.300000e+01)
  %93 = fadd double %92, 1.234500e+04
  %94 = tail call double @llvm.fmuladd.f64(double %93, double 9.142370e+05, double -1.300000e+01)
  %95 = fadd double %85, %94
  %96 = add nuw nsw i64 %15, 8
  %97 = getelementptr inbounds double, ptr %0, i64 %96
  %98 = load double, ptr %97, align 8, !tbaa !17
  %99 = fadd double %98, 1.234500e+04
  %100 = tail call double @llvm.fmuladd.f64(double %99, double 9.142370e+05, double -1.300000e+01)
  %101 = fadd double %100, 1.234500e+04
  %102 = tail call double @llvm.fmuladd.f64(double %101, double 9.142370e+05, double -1.300000e+01)
  %103 = fadd double %102, 1.234500e+04
  %104 = tail call double @llvm.fmuladd.f64(double %103, double 9.142370e+05, double -1.300000e+01)
