; ModuleID = '/src/llvm-test-suite/build/MultiSource/Benchmarks/PAQ8p/paq8p.e.bc'
source_filename = "ld-temp.o"
target datalayout = "e-m:e-p270:32:32-p271:32:32-p272:64:64-i64:64-f80:128-n8:16:32:64-S128"
target triple = "x86_64-unknown-linux-gnu"

%class.ProgramChecker = type { i32, i32, i64 }
%class.Random = type <{ %class.Array, i32, [4 x i8] }>
%class.Array = type { i32, i32, ptr, ptr }
%class.Buf = type { %class.Array }
%class.SmallStationaryContextMap = type { %class.Array, i32, ptr }
%class.APM1 = type { i32, i32, %class.Array }
%class.ContextMap = type <{ i32, [4 x i8], %class.Array, %class.Array, %class.Array, %class.Array, %class.Array, ptr, i32, [4 x i8] }>
%class.Mixer = type { i32, i32, i32, %class.Array, %class.Array, %class.Array, i32, i32, i32, %class.Array, ptr }
%class.APM = type { %class.APM1 }
%class.RunContextMap = type { %class.Random, ptr }
%"class.ContextMap::E" = type { [7 x i16], i8, [7 x [7 x i8]] }
%struct.HUF = type { i32, i32, i32 }
%struct.DMCNode = type { [2 x i32], i8, [3 x i8] }
%class.Encoder = type { %class.Predictor, i32, ptr, i32, i32, i32, ptr }
%class.Predictor = type { i32 }

$_ZN6RandomC2Ev = comdat any

$_ZN6RandomD2Ev = comdat any

$_ZN3BufD2Ev = comdat any

$_ZN4IlogD2Ev = comdat any

$_ZN7StretchD2Ev = comdat any

$_ZN5ArrayIsLi0EED2Ev = comdat any

$_ZN5ArrayIsLi0EE6createEi = comdat any

$_ZN5ArrayIhLi0EE6createEi = comdat any

$_ZN5ArrayIjLi0EED2Ev = comdat any

$_ZN5ArrayIjLi0EE6createEi = comdat any

$_ZN5ArrayIhLi0EED2Ev = comdat any

$_ZN5ArrayIiLi0EED2Ev = comdat any

$_ZN5ArrayIsLi16EED2Ev = comdat any

$_ZN5ArrayIsLi16EE6createEi = comdat any

$_ZN5ArrayIiLi0EE6createEi = comdat any

$_ZN5ArrayItLi0EE6createEi = comdat any

$_ZN5ArrayItLi0EED2Ev = comdat any

$_ZN5ArrayIN10ContextMap1EELi64EE6createEi = comdat any

$_ZN5ArrayIPhLi0EE6createEi = comdat any

$_ZN5ArrayIPhLi0EED2Ev = comdat any

$_ZN5ArrayIN10ContextMap1EELi64EED2Ev = comdat any

$_ZN8StateMap1pEii = comdat any

$_ZN25SmallStationaryContextMapC2Ei = comdat any

$_ZN25SmallStationaryContextMapD2Ev = comdat any

$_ZN25SmallStationaryContextMap3mixER5Mixeri = comdat any

$_ZN10ContextMap3mixER5Mixer = comdat any

$_Z2i4i = comdat any

$_ZN5ArrayI3HUFLi0EE6createEi = comdat any

$_ZN5ArrayI3HUFLi0EED2Ev = comdat any

$_ZN6IntBufD2Ev = comdat any

$_ZN5ArrayIhLi64EE6createEi = comdat any

$_ZN2BHILi9EED2Ev = comdat any

$_ZN8StateMapD2Ev = comdat any

$_ZN5Mixer6updateEv = comdat any

$_ZN5Mixer1pEv = comdat any

$_ZN3APM1pEiii = comdat any

$_ZN5ArrayIhLi64EED2Ev = comdat any

$_Z1Xii = comdat any

$_ZN5ArrayI7DMCNodeLi0EE6createEi = comdat any

$_ZN5ArrayI7DMCNodeLi0EED2Ev = comdat any

$_ZN13RunContextMapC2Ei = comdat any

$_ZN13RunContextMapD2Ev = comdat any

$_ZN13RunContextMap3setEj = comdat any

$_ZN13RunContextMap1pEv = comdat any

$_ZN4APM1D2Ev = comdat any

$_ZN4APM11pEiii = comdat any

$_ZN7Encoder10decompressEv = comdat any

$_ZN7Encoder4codeEi = comdat any

$_ZN7Encoder8compressEi = comdat any

$_ZN6StringC2EPKc = comdat any

$_ZN5ArrayIcLi0EE6createEi = comdat any

$_ZN6StringpLEPKc = comdat any

$_ZN5ArrayIcLi0EED2Ev = comdat any

$_ZN5ArrayIcLi0EE9push_backERKc = comdat any

$_ZN5ArrayIcLi0EE6resizeEi = comdat any

$_ZN5ArrayIPcLi0EE6createEi = comdat any

$_ZN5ArrayIlLi0EE6createEi = comdat any

$_ZN5ArrayIPcLi0EE6resizeEi = comdat any

$_ZN5ArrayIlLi0EE6resizeEi = comdat any

$_ZN5ArrayIhLi0EE6resizeEi = comdat any

$_ZN6StringaSEPKc = comdat any

$_ZZN2BHILi4EEixEjE3tmp = comdat any

$_ZZN2BHILi9EEixEjE3tmp = comdat any

@llvm.global_ctors = appending global [1 x { i32, ptr, ptr }] [{ i32, ptr, ptr } { i32 65535, ptr @_GLOBAL__sub_I_paq8p.cpp, ptr null }]
@_ZTIPKc = external constant ptr
@programChecker = internal global %class.ProgramChecker zeroinitializer, align 8
@rnd = internal global %class.Random zeroinitializer, align 8
@__dso_handle = external hidden global i8
@pos = internal global i32 0, align 4
@level = internal global i32 5, align 4
@y = internal global i32 0, align 4
@c0 = internal global i32 1, align 4
@c4 = internal global i32 0, align 4
@bpos = internal global i32 0, align 4
@buf = internal global %class.Buf zeroinitializer, align 8
@ilog = internal global %class.Buf zeroinitializer, align 8
@_ZZ6squashiE1t = internal unnamed_addr constant [33 x i32] [i32 1, i32 2, i32 3, i32 6, i32 10, i32 16, i32 27, i32 45, i32 73, i32 120, i32 194, i32 310, i32 488, i32 747, i32 1101, i32 1546, i32 2047, i32 2549, i32 2994, i32 3348, i32 3607, i32 3785, i32 3901, i32 3975, i32 4022, i32 4050, i32 4068, i32 4079, i32 4085, i32 4089, i32 4092, i32 4093, i32 4094], align 16
@stretch = internal global %class.Buf zeroinitializer, align 8
@_ZL11State_table = internal unnamed_addr constant [256 x [4 x i8]] [[4 x i8] c"\01\02\00\00", [4 x i8] c"\03\05\01\00", [4 x i8] c"\04\06\00\01", [4 x i8] c"\07\0A\02\00", [4 x i8] c"\08\0C\01\01", [4 x i8] c"\09\0D\01\01", [4 x i8] c"\0B\0E\00\02", [4 x i8] c"\0F\13\03\00", [4 x i8] c"\10\17\02\01", [4 x i8] c"\11\18\02\01", [4 x i8] c"\12\19\02\01", [4 x i8] c"\14\1B\01\02", [4 x i8] c"\15\1C\01\02", [4 x i8] c"\16\1D\01\02", [4 x i8] c"\1A\1E\00\03", [4 x i8] c"\1F!\04\00", [4 x i8] c" #\03\01", [4 x i8] c" #\03\01", [4 x i8] c" #\03\01", [4 x i8] c" #\03\01", [4 x i8] c"\22%\02\02", [4 x i8] c"\22%\02\02", [4 x i8] c"\22%\02\02", [4 x i8] c"\22%\02\02", [4 x i8] c"\22%\02\02", [4 x i8] c"\22%\02\02", [4 x i8] c"$'\01\03", [4 x i8] c"$'\01\03", [4 x i8] c"$'\01\03", [4 x i8] c"$'\01\03", [4 x i8] c"&(\00\04", [4 x i8] c")+\05\00", [4 x i8] c"*-\04\01", [4 x i8] c"*-\04\01", [4 x i8] c",/\03\02", [4 x i8] c",/\03\02", [4 x i8] c".1\02\03", [4 x i8] c".1\02\03", [4 x i8] c"03\01\04", [4 x i8] c"03\01\04", [4 x i8] c"24\00\05", [4 x i8] c"5+\06\00", [4 x i8] c"69\05\01", [4 x i8] c"69\05\01", [4 x i8] c"8;\04\02", [4 x i8] c"8;\04\02", [4 x i8] c":=\03\03", [4 x i8] c":=\03\03", [4 x i8] c"<?\02\04", [4 x i8] c"<?\02\04", [4 x i8] c">A\01\05", [4 x i8] c">A\01\05", [4 x i8] c"2B\00\06", [4 x i8] c"C7\07\00", [4 x i8] c"D9\06\01", [4 x i8] c"D9\06\01", [4 x i8] c"FI\05\02", [4 x i8] c"FI\05\02", [4 x i8] c"HK\04\03", [4 x i8] c"HK\04\03", [4 x i8] c"JM\03\04", [4 x i8] c"JM\03\04", [4 x i8] c"LO\02\05", [4 x i8] c"LO\02\05", [4 x i8] c">Q\01\06", [4 x i8] c">Q\01\06", [4 x i8] c"@R\00\07", [4 x i8] c"SE\08\00", [4 x i8] c"TG\07\01", [4 x i8] c"TG\07\01", [4 x i8] c"VI\06\02", [4 x i8] c"VI\06\02", [4 x i8] c",;\05\03", [4 x i8] c",;\05\03", [4 x i8] c":=\04\04", [4 x i8] c":=\04\04", [4 x i8] c"<1\03\05", [4 x i8] c"<1\03\05", [4 x i8] c"LY\02\06", [4 x i8] c"LY\02\06", [4 x i8] c"N[\01\07", [4 x i8] c"N[\01\07", [4 x i8] c"P\\\00\08", [4 x i8] c"]E\09\00", [4 x i8] c"^W\08\01", [4 x i8] c"^W\08\01", [4 x i8] c"`-\07\02", [4 x i8] c"`-\07\02", [4 x i8] c"0c\02\07", [4 x i8] c"0c\02\07", [4 x i8] c"Xe\01\08", [4 x i8] c"Xe\01\08", [4 x i8] c"Pf\00\09", [4 x i8] c"gE\0A\00", [4 x i8] c"hW\09\01", [4 x i8] c"hW\09\01", [4 x i8] c"j9\08\02", [4 x i8] c"j9\08\02", [4 x i8] c">m\02\08", [4 x i8] c">m\02\08", [4 x i8] c"Xo\01\09", [4 x i8] c"Xo\01\09", [4 x i8] c"Pp\00\0A", [4 x i8] c"qU\0B\00", [4 x i8] c"rW\0A\01", [4 x i8] c"rW\0A\01", [4 x i8] c"t9\09\02", [4 x i8] c"t9\09\02", [4 x i8] c">w\02\09", [4 x i8] c">w\02\09", [4 x i8] c"Xy\01\0A", [4 x i8] c"Xy\01\0A", [4 x i8] c"Zz\00\0B", [4 x i8] c"{U\0C\00", [4 x i8] c"|a\0B\01", [4 x i8] c"|a\0B\01", [4 x i8] c"~9\0A\02", [4 x i8] c"~9\0A\02", [4 x i8] c">\81\02\0A", [4 x i8] c">\81\02\0A", [4 x i8] c"b\83\01\0B", [4 x i8] c"b\83\01\0B", [4 x i8] c"Z\84\00\0C", [4 x i8] c"\85U\0D\00", [4 x i8] c"\86a\0C\01", [4 x i8] c"\86a\0C\01", [4 x i8] c"\889\0B\02", [4 x i8] c"\889\0B\02", [4 x i8] c">\8B\02\0B", [4 x i8] c">\8B\02\0B", [4 x i8] c"b\8D\01\0C", [4 x i8] c"b\8D\01\0C", [4 x i8] c"Z\8E\00\0D", [4 x i8] c"\8F_\0E\00", [4 x i8] c"\90a\0D\01", [4 x i8] c"\90a\0D\01", [4 x i8] c"D9\0C\02", [4 x i8] c"D9\0C\02", [4 x i8] c">Q\02\0C", [4 x i8] c">Q\02\0C", [4 x i8] c"b\93\01\0D", [4 x i8] c"b\93\01\0D", [4 x i8] c"d\94\00\0E", [4 x i8] c"\95_\0F\00", [4 x i8] c"\96k\0E\01", [4 x i8] c"\96k\0E\01", [4 x i8] c"l\97\01\0E", [4 x i8] c"l\97\01\0E", [4 x i8] c"d\98\00\0F", [4 x i8] c"\99_\10\00", [4 x i8] c"\9Ak\0F\01", [4 x i8] c"l\9B\01\0F", [4 x i8] c"d\9C\00\10", [4 x i8] c"\9D_\11\00", [4 x i8] c"\9Ek\10\01", [4 x i8] c"l\9F\01\10", [4 x i8] c"d\A0\00\11", [4 x i8] c"\A1i\12\00", [4 x i8] c"\A2k\11\01", [4 x i8] c"l\A3\01\11", [4 x i8] c"n\A4\00\12", [4 x i8] c"\A5i\13\00", [4 x i8] c"\A6u\12\01", [4 x i8] c"v\A7\01\12", [4 x i8] c"n\A8\00\13", [4 x i8] c"\A9i\14\00", [4 x i8] c"\AAu\13\01", [4 x i8] c"v\AB\01\13", [4 x i8] c"n\AC\00\14", [4 x i8] c"\ADi\15\00", [4 x i8] c"\AEu\14\01", [4 x i8] c"v\AF\01\14", [4 x i8] c"n\B0\00\15", [4 x i8] c"\B1i\16\00", [4 x i8] c"\B2u\15\01", [4 x i8] c"v\B3\01\15", [4 x i8] c"n\B4\00\16", [4 x i8] c"\B5s\17\00", [4 x i8] c"\B6u\16\01", [4 x i8] c"v\B7\01\16", [4 x i8] c"x\B8\00\17", [4 x i8] c"\B9s\18\00", [4 x i8] c"\BA\7F\17\01", [4 x i8] c"\80\BB\01\17", [4 x i8] c"x\BC\00\18", [4 x i8] c"\BDs\19\00", [4 x i8] c"\BE\7F\18\01", [4 x i8] c"\80\BF\01\18", [4 x i8] c"x\C0\00\19", [4 x i8] c"\C1s\1A\00", [4 x i8] c"\C2\7F\19\01", [4 x i8] c"\80\C3\01\19", [4 x i8] c"x\C4\00\1A", [4 x i8] c"\C5s\1B\00", [4 x i8] c"\C6\7F\1A\01", [4 x i8] c"\80\C7\01\1A", [4 x i8] c"x\C8\00\1B", [4 x i8] c"\C9s\1C\00", [4 x i8] c"\CA\7F\1B\01", [4 x i8] c"\80\CB\01\1B", [4 x i8] c"x\CC\00\1C", [4 x i8] c"\CDs\1D\00", [4 x i8] c"\CE\7F\1C\01", [4 x i8] c"\80\CF\01\1C", [4 x i8] c"x\D0\00\1D", [4 x i8] c"\D1}\1E\00", [4 x i8] c"\D2\7F\1D\01", [4 x i8] c"\80\D3\01\1D", [4 x i8] c"\82\D4\00\1E", [4 x i8] c"\D5}\1F\00", [4 x i8] c"\D6\89\1E\01", [4 x i8] c"\8A\D7\01\1E", [4 x i8] c"\82\D8\00\1F", [4 x i8] c"\D9} \00", [4 x i8] c"\DA\89\1F\01", [4 x i8] c"\8A\DB\01\1F", [4 x i8] c"\82\DC\00 ", [4 x i8] c"\DD}!\00", [4 x i8] c"\DE\89 \01", [4 x i8] c"\8A\DF\01 ", [4 x i8] c"\82\E0\00!", [4 x i8] c"\E1}\22\00", [4 x i8] c"\E2\89!\01", [4 x i8] c"\8A\E3\01!", [4 x i8] c"\82\E4\00\22", [4 x i8] c"\E5}#\00", [4 x i8] c"\E6\89\22\01", [4 x i8] c"\8A\E7\01\22", [4 x i8] c"\82\E8\00#", [4 x i8] c"\E9}$\00", [4 x i8] c"\EA\89#\01", [4 x i8] c"\8A\EB\01#", [4 x i8] c"\82\EC\00$", [4 x i8] c"\ED}%\00", [4 x i8] c"\EE\89$\01", [4 x i8] c"\8A\EF\01$", [4 x i8] c"\82\F0\00%", [4 x i8] c"\F1}&\00", [4 x i8] c"\F2\89%\01", [4 x i8] c"\8A\F3\01%", [4 x i8] c"\82\F4\00&", [4 x i8] c"\F5\87'\00", [4 x i8] c"\F6\89&\01", [4 x i8] c"\8A\F7\01&", [4 x i8] c"\8C\F8\00'", [4 x i8] c"\F9\87(\00", [4 x i8] c"\FAE'\01", [4 x i8] c"P\FB\01'", [4 x i8] c"\8C\FC\00(", [4 x i8] c"\F9\87)\00", [4 x i8] c"\FAE(\01", [4 x i8] c"P\FB\01(", [4 x i8] c"\8C\FC\00)", [4 x i8] zeroinitializer, [4 x i8] zeroinitializer, [4 x i8] zeroinitializer], align 16
@_ZZ10matchModelR5MixerE1t = internal global %class.Array zeroinitializer, align 8
@_ZGVZ10matchModelR5MixerE1t = internal global i64 0, align 8
@_ZZ10matchModelR5MixerE1h = internal unnamed_addr global i32 0, align 4
@_ZZ10matchModelR5MixerE3ptr = internal unnamed_addr global i32 0, align 4
@_ZZ10matchModelR5MixerE3len = internal unnamed_addr global i32 0, align 4
@_ZZ10matchModelR5MixerE6result = internal unnamed_addr global i32 0, align 4
@_ZZ10matchModelR5MixerE4scm1 = internal global %class.SmallStationaryContextMap zeroinitializer, align 8
@_ZGVZ10matchModelR5MixerE4scm1 = internal global i64 0, align 8
@_ZZ8picModelR5MixerE2r0 = internal unnamed_addr global i32 0, align 4
@_ZZ8picModelR5MixerE2r1 = internal unnamed_addr global i32 0, align 4
@_ZZ8picModelR5MixerE2r2 = internal unnamed_addr global i32 0, align 4
@_ZZ8picModelR5MixerE2r3 = internal unnamed_addr global i32 0, align 4
@_ZZ8picModelR5MixerE1t = internal global %class.Array zeroinitializer, align 8
@_ZGVZ8picModelR5MixerE1t = internal global i64 0, align 8
@_ZZ8picModelR5MixerE3cxt = internal unnamed_addr global [3 x i32] zeroinitializer, align 4
@_ZZ8picModelR5MixerE2sm = internal global [3 x %class.APM1] zeroinitializer, align 16
@_ZGVZ8picModelR5MixerE2sm = internal global i64 0, align 8
@_ZZ9wordModelR5MixerE5word0 = internal unnamed_addr global i32 0, align 4
@_ZZ9wordModelR5MixerE5word1 = internal unnamed_addr global i32 0, align 4
@_ZZ9wordModelR5MixerE5word2 = internal unnamed_addr global i32 0, align 4
@_ZZ9wordModelR5MixerE5word3 = internal unnamed_addr global i32 0, align 4
@_ZZ9wordModelR5MixerE5word4 = internal unnamed_addr global i32 0, align 4
@_ZZ9wordModelR5MixerE5word5 = internal unnamed_addr global i32 0, align 4
@_ZZ9wordModelR5MixerE5text0 = internal unnamed_addr global i32 0, align 4
@_ZZ9wordModelR5MixerE2cm = internal global %class.ContextMap zeroinitializer, align 8
@_ZGVZ9wordModelR5MixerE2cm = internal global i64 0, align 8
@_ZZ9wordModelR5MixerE3nl1 = internal unnamed_addr global i32 -3, align 4
@_ZZ9wordModelR5MixerE2nl = internal unnamed_addr global i32 -2, align 4
@_ZZ11recordModelR5MixerE5cpos1 = internal unnamed_addr global [256 x i32] zeroinitializer, align 16
@_ZZ11recordModelR5MixerE5cpos2 = internal unnamed_addr global [256 x i32] zeroinitializer, align 16
@_ZZ11recordModelR5MixerE5cpos3 = internal unnamed_addr global [256 x i32] zeroinitializer, align 16
@_ZZ11recordModelR5MixerE5cpos4 = internal unnamed_addr global [256 x i32] zeroinitializer, align 16
@_ZZ11recordModelR5MixerE5wpos1 = internal unnamed_addr global [65536 x i32] zeroinitializer, align 16
@_ZZ11recordModelR5MixerE4rlen = internal unnamed_addr global i32 2, align 4
@_ZZ11recordModelR5MixerE5rlen1 = internal unnamed_addr global i32 3, align 4
@_ZZ11recordModelR5MixerE5rlen2 = internal unnamed_addr global i32 4, align 4
@_ZZ11recordModelR5MixerE7rcount1 = internal unnamed_addr global i32 0, align 4
@_ZZ11recordModelR5MixerE7rcount2 = internal unnamed_addr global i32 0, align 4
@_ZZ11recordModelR5MixerE2cm = internal global %class.ContextMap zeroinitializer, align 8
@_ZGVZ11recordModelR5MixerE2cm = internal global i64 0, align 8
@_ZZ11recordModelR5MixerE2cn = internal global %class.ContextMap zeroinitializer, align 8
@_ZGVZ11recordModelR5MixerE2cn = internal global i64 0, align 8
@_ZZ11recordModelR5MixerE2co = internal global %class.ContextMap zeroinitializer, align 8
@_ZGVZ11recordModelR5MixerE2co = internal global i64 0, align 8
@_ZZ11recordModelR5MixerE2cp = internal global %class.ContextMap zeroinitializer, align 8
@_ZGVZ11recordModelR5MixerE2cp = internal global i64 0, align 8
@_ZZ11sparseModelR5MixeriiE2cm = internal global %class.ContextMap zeroinitializer, align 8
@_ZGVZ11sparseModelR5MixeriiE2cm = internal global i64 0, align 8
@_ZZ11sparseModelR5MixeriiE4mask = internal unnamed_addr global i32 0, align 4
@_ZZ13distanceModelR5MixerE2cr = internal global %class.ContextMap zeroinitializer, align 8
@_ZGVZ13distanceModelR5MixerE2cr = internal global i64 0, align 8
@_ZZ13distanceModelR5MixerE5pos00 = internal unnamed_addr global i32 0, align 4
@_ZZ13distanceModelR5MixerE5pos20 = internal unnamed_addr global i32 0, align 4
@_ZZ13distanceModelR5MixerE5posnl = internal unnamed_addr global i32 0, align 4
@_ZZ8bmpModelR5MixerE1w = internal unnamed_addr global i32 0, align 4
@_ZZ8bmpModelR5MixerE3eoi = internal unnamed_addr global i32 0, align 4
@_ZZ8bmpModelR5MixerE4tiff = internal unnamed_addr global i32 0, align 4
@_ZZ8bmpModelR5MixerE4scm1 = internal global %class.SmallStationaryContextMap zeroinitializer, align 8
@_ZGVZ8bmpModelR5MixerE4scm1 = internal global i64 0, align 8
@_ZZ8bmpModelR5MixerE4scm2 = internal global %class.SmallStationaryContextMap zeroinitializer, align 8
@_ZGVZ8bmpModelR5MixerE4scm2 = internal global i64 0, align 8
@_ZZ8bmpModelR5MixerE4scm3 = internal global %class.SmallStationaryContextMap zeroinitializer, align 8
@_ZGVZ8bmpModelR5MixerE4scm3 = internal global i64 0, align 8
@_ZZ8bmpModelR5MixerE4scm4 = internal global %class.SmallStationaryContextMap zeroinitializer, align 8
@_ZGVZ8bmpModelR5MixerE4scm4 = internal global i64 0, align 8
@_ZZ8bmpModelR5MixerE4scm5 = internal global %class.SmallStationaryContextMap zeroinitializer, align 8
@_ZGVZ8bmpModelR5MixerE4scm5 = internal global i64 0, align 8
@_ZZ8bmpModelR5MixerE4scm6 = internal global %class.SmallStationaryContextMap zeroinitializer, align 8
@_ZGVZ8bmpModelR5MixerE4scm6 = internal global i64 0, align 8
@_ZZ8bmpModelR5MixerE4scm7 = internal global %class.SmallStationaryContextMap zeroinitializer, align 8
@_ZGVZ8bmpModelR5MixerE4scm7 = internal global i64 0, align 8
@_ZZ8bmpModelR5MixerE4scm8 = internal global %class.SmallStationaryContextMap zeroinitializer, align 8
@_ZGVZ8bmpModelR5MixerE4scm8 = internal global i64 0, align 8
@_ZZ8bmpModelR5MixerE4scm9 = internal global %class.SmallStationaryContextMap zeroinitializer, align 8
@_ZGVZ8bmpModelR5MixerE4scm9 = internal global i64 0, align 8
@_ZZ8bmpModelR5MixerE5scm10 = internal global %class.SmallStationaryContextMap zeroinitializer, align 8
@_ZGVZ8bmpModelR5MixerE5scm10 = internal global i64 0, align 8
@_ZZ8bmpModelR5MixerE2cm = internal global %class.ContextMap zeroinitializer, align 8
@_ZGVZ8bmpModelR5MixerE2cm = internal global i64 0, align 8
@.str = private unnamed_addr constant [11 x i8] c"BMP %dx%d \00", align 1
@.str.5 = private unnamed_addr constant [15 x i8] c"TIFF %dx%dx%d \00", align 1
@_ZZ9model8bitR5MixeriE4scm1 = internal global %class.SmallStationaryContextMap zeroinitializer, align 8
@_ZGVZ9model8bitR5MixeriE4scm1 = internal global i64 0, align 8
@_ZZ9model8bitR5MixeriE4scm2 = internal global %class.SmallStationaryContextMap zeroinitializer, align 8
@_ZGVZ9model8bitR5MixeriE4scm2 = internal global i64 0, align 8
@_ZZ9model8bitR5MixeriE4scm3 = internal global %class.SmallStationaryContextMap zeroinitializer, align 8
@_ZGVZ9model8bitR5MixeriE4scm3 = internal global i64 0, align 8
@_ZZ9model8bitR5MixeriE4scm4 = internal global %class.SmallStationaryContextMap zeroinitializer, align 8
@_ZGVZ9model8bitR5MixeriE4scm4 = internal global i64 0, align 8
@_ZZ9model8bitR5MixeriE4scm5 = internal global %class.SmallStationaryContextMap zeroinitializer, align 8
@_ZGVZ9model8bitR5MixeriE4scm5 = internal global i64 0, align 8
@_ZZ9model8bitR5MixeriE4scm6 = internal global %class.SmallStationaryContextMap zeroinitializer, align 8
@_ZGVZ9model8bitR5MixeriE4scm6 = internal global i64 0, align 8
@_ZZ9model8bitR5MixeriE4scm7 = internal global %class.SmallStationaryContextMap zeroinitializer, align 8
@_ZGVZ9model8bitR5MixeriE4scm7 = internal global i64 0, align 8
@_ZZ9model8bitR5MixeriE2cm = internal global %class.ContextMap zeroinitializer, align 8
@_ZGVZ9model8bitR5MixeriE2cm = internal global i64 0, align 8
@_ZZ8pgmModelR5MixerE1w = internal unnamed_addr global i32 0, align 4
@_ZZ8pgmModelR5MixerE3eoi = internal unnamed_addr global i32 0, align 4
@_ZZ8pgmModelR5MixerE3pgm = internal unnamed_addr global i32 0, align 4
@_ZZ8pgmModelR5MixerE7pgm_hdr = internal unnamed_addr global [3 x i32] zeroinitializer, align 4
@_ZZ8pgmModelR5MixerE7pgm_ptr = internal unnamed_addr global i32 0, align 4
@.str.6 = private unnamed_addr constant [10 x i8] c"PGM %dx%d\00", align 1
@_ZZ8pgmModelR5MixerE3col = internal unnamed_addr global i32 0, align 4
@_ZZ9bmpModel8R5MixerE1h = internal unnamed_addr global i32 0, align 4
@_ZZ9bmpModel8R5MixerE1w = internal unnamed_addr global i32 0, align 4
@_ZZ9bmpModel8R5MixerE3eoi = internal unnamed_addr global i32 0, align 4
@_ZZ9bmpModel8R5MixerE3col = internal unnamed_addr global i32 0, align 4
@_ZZ9bmpModel8R5MixerE4ibmp = internal unnamed_addr global i32 0, align 4
@_ZZ9bmpModel8R5MixerE2w1 = internal unnamed_addr global i32 0, align 4
@.str.7 = private unnamed_addr constant [17 x i8] c"BMP(8-bit) %dx%d\00", align 1
@_ZZ9rgbModel8R5MixerE1w = internal unnamed_addr global i32 0, align 4
@_ZZ9rgbModel8R5MixerE3eoi = internal unnamed_addr global i32 0, align 4
@_ZZ9rgbModel8R5MixerE3col = internal unnamed_addr global i32 0, align 4
@.str.8 = private unnamed_addr constant [17 x i8] c"RGB(8-bit) %dx%d\00", align 1
@.str.11 = private unnamed_addr constant [2 x i8] c"\0A\00", align 1
@_ZZ9jpegModelR5MixerE4jpeg = internal unnamed_addr global i32 0, align 4
@_ZZ9jpegModelR5MixerE9next_jpeg = internal unnamed_addr global i32 0, align 4
@_ZZ9jpegModelR5MixerE3app = internal unnamed_addr global i32 0, align 4
@_ZZ9jpegModelR5MixerE3sof = internal unnamed_addr global i32 0, align 4
@_ZZ9jpegModelR5MixerE3sos = internal unnamed_addr global i32 0, align 4
@_ZZ9jpegModelR5MixerE4data = internal unnamed_addr global i32 0, align 4
@_ZZ9jpegModelR5MixerE2ht = internal global %class.Array zeroinitializer, align 8
@_ZGVZ9jpegModelR5MixerE2ht = internal global i64 0, align 8
@_ZZ9jpegModelR5MixerE6htsize = internal unnamed_addr global i32 0, align 4
@_ZZ9jpegModelR5MixerE8huffcode = internal unnamed_addr global i32 0, align 4
@_ZZ9jpegModelR5MixerE8huffbits = internal unnamed_addr global i32 0, align 4
@_ZZ9jpegModelR5MixerE8huffsize = internal unnamed_addr global i32 0, align 4
@_ZZ9jpegModelR5MixerE2rs = internal unnamed_addr global i32 -1, align 4
@_ZZ9jpegModelR5MixerE6mcupos = internal unnamed_addr global i32 0, align 4
@_ZZ9jpegModelR5MixerE3huf = internal global %class.Array zeroinitializer, align 8
@_ZGVZ9jpegModelR5MixerE3huf = internal global i64 0, align 8
@_ZZ9jpegModelR5MixerE7mcusize = internal unnamed_addr global i32 0, align 4
@_ZZ9jpegModelR5MixerE6hufsel = internal unnamed_addr global [2 x [10 x i32]] zeroinitializer, align 16
@_ZZ9jpegModelR5MixerE4hbuf = internal global %class.Array zeroinitializer, align 8
@_ZGVZ9jpegModelR5MixerE4hbuf = internal global i64 0, align 8
@_ZZ9jpegModelR5MixerE5color = internal global %class.Array zeroinitializer, align 8
@_ZGVZ9jpegModelR5MixerE5color = internal global i64 0, align 8
@_ZZ9jpegModelR5MixerE4pred = internal global %class.Array zeroinitializer, align 8
@_ZGVZ9jpegModelR5MixerE4pred = internal global i64 0, align 8
@_ZZ9jpegModelR5MixerE5width = internal unnamed_addr global i32 0, align 4
@_ZZ9jpegModelR5MixerE3row = internal unnamed_addr global i32 0, align 4
@_ZZ9jpegModelR5MixerE6column = internal unnamed_addr global i32 0, align 4
@_ZZ9jpegModelR5MixerE4cbuf = internal global %class.Buf zeroinitializer, align 8
@_ZGVZ9jpegModelR5MixerE4cbuf = internal global i64 0, align 8
@_ZZ9jpegModelR5MixerE4cpos = internal unnamed_addr global i32 0, align 4
@_ZZ9jpegModelR5MixerE3rs1 = internal unnamed_addr global i32 0, align 4
@_ZZ9jpegModelR5MixerE4ssum = internal unnamed_addr global i32 0, align 4
@_ZZ9jpegModelR5MixerE5ssum1 = internal unnamed_addr global i32 0, align 4
@_ZZ9jpegModelR5MixerE5ssum2 = internal unnamed_addr global i32 0, align 4
@_ZZ9jpegModelR5MixerE5ssum3 = internal unnamed_addr global i32 0, align 4
@_ZZ9jpegModelR5MixerE5cbuf2 = internal global %class.Buf zeroinitializer, align 8
@_ZGVZ9jpegModelR5MixerE5cbuf2 = internal global i64 0, align 8
@_ZZ9jpegModelR5MixerE8adv_pred = internal global %class.Array zeroinitializer, align 8
@_ZGVZ9jpegModelR5MixerE8adv_pred = internal global i64 0, align 8
@_ZZ9jpegModelR5MixerE4sumu = internal global %class.Array zeroinitializer, align 8
@_ZGVZ9jpegModelR5MixerE4sumu = internal global i64 0, align 8
@_ZZ9jpegModelR5MixerE4sumv = internal global %class.Array zeroinitializer, align 8
@_ZGVZ9jpegModelR5MixerE4sumv = internal global i64 0, align 8
@_ZZ9jpegModelR5MixerE2ls = internal global %class.Array zeroinitializer, align 8
@_ZGVZ9jpegModelR5MixerE2ls = internal global i64 0, align 8
@_ZZ9jpegModelR5MixerE3lcp = internal global %class.Array zeroinitializer, align 8
@_ZGVZ9jpegModelR5MixerE3lcp = internal global i64 0, align 8
@_ZZ9jpegModelR5MixerE4zpos = internal global %class.Array zeroinitializer, align 8
@_ZGVZ9jpegModelR5MixerE4zpos = internal global i64 0, align 8
@_ZZ9jpegModelR5MixerE9dqt_state = internal unnamed_addr global i32 -1, align 4
@_ZZ9jpegModelR5MixerE7dqt_end = internal unnamed_addr global i32 0, align 4
@_ZZ9jpegModelR5MixerE4qnum = internal unnamed_addr global i32 0, align 4
@_ZZ9jpegModelR5MixerE4qtab = internal global %class.Array zeroinitializer, align 8
@_ZGVZ9jpegModelR5MixerE4qtab = internal global i64 0, align 8
@_ZZ9jpegModelR5MixerE4qmap = internal global %class.Array zeroinitializer, align 8
@_ZGVZ9jpegModelR5MixerE4qmap = internal global i64 0, align 8
@_ZZ9jpegModelR5MixerE3zzu = internal unnamed_addr constant [64 x i8] c"\00\01\00\00\01\02\03\02\01\00\00\01\02\03\04\05\04\03\02\01\00\00\01\02\03\04\05\06\07\06\05\04\03\02\01\00\01\02\03\04\05\06\07\07\06\05\04\03\02\03\04\05\06\07\07\06\05\04\05\06\07\07\06\07", align 16
@_ZZ9jpegModelR5MixerE3zzv = internal unnamed_addr constant [64 x i8] c"\00\00\01\02\01\00\00\01\02\03\04\03\02\01\00\00\01\02\03\04\05\06\05\04\03\02\01\00\00\01\02\03\04\05\06\07\07\06\05\04\03\02\01\02\03\04\05\06\07\07\06\05\04\03\04\05\06\07\07\06\05\06\07\07", align 16
@.str.12 = private unnamed_addr constant [12 x i8] c"JPEG %dx%d \00", align 1
@_ZZ9jpegModelR5MixerE2we = internal unnamed_addr constant [8 x i32] [i32 181, i32 282, i32 353, i32 456, i32 568, i32 671, i32 742, i32 767], align 16
@_ZZ9jpegModelR5MixerE5sumu2 = internal unnamed_addr global [8 x i32] zeroinitializer, align 16
@_ZZ9jpegModelR5MixerE5sumv2 = internal unnamed_addr global [8 x i32] zeroinitializer, align 16
@_ZZ9jpegModelR5MixerE5sumu3 = internal unnamed_addr global [8 x i32] zeroinitializer, align 16
@_ZZ9jpegModelR5MixerE5sumv3 = internal unnamed_addr global [8 x i32] zeroinitializer, align 16
@_ZZ9jpegModelR5MixerE2kx = internal global [32 x i32] zeroinitializer, align 16
@_ZZ9jpegModelR5MixerE1t = internal global %class.Random zeroinitializer, align 8
@_ZGVZ9jpegModelR5MixerE1t = internal global i64 0, align 8
@_ZZ9jpegModelR5MixerE3cxt = internal global %class.Array zeroinitializer, align 8
@_ZGVZ9jpegModelR5MixerE3cxt = internal global i64 0, align 8
@_ZZ9jpegModelR5MixerE2cp = internal global %class.Array zeroinitializer, align 8
@_ZGVZ9jpegModelR5MixerE2cp = internal global i64 0, align 8
@_ZZ9jpegModelR5MixerE2sm = internal global [28 x %class.APM1] zeroinitializer, align 16
@_ZGVZ9jpegModelR5MixerE2sm = internal global i64 0, align 8
@_ZZ9jpegModelR5MixerE2m1 = internal global %class.Mixer zeroinitializer, align 8
@_ZGVZ9jpegModelR5MixerE2m1 = internal global i64 0, align 8
@_ZZ9jpegModelR5MixerE2a1 = internal global %class.APM zeroinitializer, align 8
@_ZGVZ9jpegModelR5MixerE2a1 = internal global i64 0, align 8
@_ZZ9jpegModelR5MixerE2a2 = internal global %class.APM zeroinitializer, align 8
@_ZGVZ9jpegModelR5MixerE2a2 = internal global i64 0, align 8
@_ZZ9jpegModelR5MixerE7hbcount = internal unnamed_addr global i32 2, align 4
@_ZZ8wavModelR5MixerE8channels = internal unnamed_addr global i32 0, align 4
@_ZZ8wavModelR5MixerE4bits = internal unnamed_addr global i32 0, align 4
@_ZZ8wavModelR5MixerE5bytes = internal unnamed_addr global i32 0, align 4
@_ZZ8wavModelR5MixerE3eof = internal unnamed_addr global i32 0, align 4
@_ZZ8wavModelR5MixerE1s = internal unnamed_addr global i32 0, align 4
@_ZZ8wavModelR5MixerE1w = internal unnamed_addr global i32 0, align 4
@_ZZ8wavModelR5MixerE1K = internal unnamed_addr global i32 0, align 4
@_ZGVZ8wavModelR5MixerE1K = internal global i64 0, align 8
@_ZZ8wavModelR5MixerE2pr = internal unnamed_addr global [4 x [2 x i32]] zeroinitializer, align 16
@_ZZ8wavModelR5MixerE1n = internal unnamed_addr global [2 x i32] zeroinitializer, align 4
@_ZZ8wavModelR5MixerE7counter = internal unnamed_addr global [2 x i32] zeroinitializer, align 4
@_ZZ8wavModelR5MixerE4scm1 = internal global %class.SmallStationaryContextMap zeroinitializer, align 8
@_ZGVZ8wavModelR5MixerE4scm1 = internal global i64 0, align 8
@_ZZ8wavModelR5MixerE4scm2 = internal global %class.SmallStationaryContextMap zeroinitializer, align 8
@_ZGVZ8wavModelR5MixerE4scm2 = internal global i64 0, align 8
@_ZZ8wavModelR5MixerE4scm3 = internal global %class.SmallStationaryContextMap zeroinitializer, align 8
@_ZGVZ8wavModelR5MixerE4scm3 = internal global i64 0, align 8
@_ZZ8wavModelR5MixerE4scm4 = internal global %class.SmallStationaryContextMap zeroinitializer, align 8
@_ZGVZ8wavModelR5MixerE4scm4 = internal global i64 0, align 8
@_ZZ8wavModelR5MixerE4scm5 = internal global %class.SmallStationaryContextMap zeroinitializer, align 8
@_ZGVZ8wavModelR5MixerE4scm5 = internal global i64 0, align 8
@_ZZ8wavModelR5MixerE4scm6 = internal global %class.SmallStationaryContextMap zeroinitializer, align 8
@_ZGVZ8wavModelR5MixerE4scm6 = internal global i64 0, align 8
@_ZZ8wavModelR5MixerE4scm7 = internal global %class.SmallStationaryContextMap zeroinitializer, align 8
@_ZGVZ8wavModelR5MixerE4scm7 = internal global i64 0, align 8
@_ZZ8wavModelR5MixerE4scm8 = internal global %class.SmallStationaryContextMap zeroinitializer, align 8
@_ZGVZ8wavModelR5MixerE4scm8 = internal global i64 0, align 8
@_ZZ8wavModelR5MixerE2cm = internal global %class.ContextMap zeroinitializer, align 8
@_ZGVZ8wavModelR5MixerE2cm = internal global i64 0, align 8
@_ZL1S = internal unnamed_addr global i32 0, align 4
@_ZL1D = internal unnamed_addr global i1 false, align 4
@_ZL5wmode = internal unnamed_addr global i32 0, align 4
@.str.14 = private unnamed_addr constant [12 x i8] c"WAV %ibits/\00", align 1
@.str.15 = private unnamed_addr constant [6 x i8] c"mono \00", align 1
@.str.16 = private unnamed_addr constant [8 x i8] c"stereo \00", align 1
@_ZZ8exeModelR5MixerE2cm = internal global %class.ContextMap zeroinitializer, align 8
@_ZGVZ8exeModelR5MixerE2cm = internal global i64 0, align 8
@_ZZ13indirectModelR5MixerE2cm = internal global %class.ContextMap zeroinitializer, align 8
@_ZGVZ13indirectModelR5MixerE2cm = internal global i64 0, align 8
@_ZZ13indirectModelR5MixerE2t1 = internal unnamed_addr global [256 x i32] zeroinitializer, align 16
@_ZZ13indirectModelR5MixerE2t2 = internal unnamed_addr global [65536 x i16] zeroinitializer, align 16
@_ZZ8dmcModelR5MixerE3top = internal unnamed_addr global i32 0, align 4
@_ZZ8dmcModelR5MixerE4curr = internal unnamed_addr global i32 0, align 4
@_ZZ8dmcModelR5MixerE1t = internal global %class.Array zeroinitializer, align 8
@_ZGVZ8dmcModelR5MixerE1t = internal global i64 0, align 8
@_ZZ8dmcModelR5MixerE2sm = internal global %class.APM1 zeroinitializer, align 8
@_ZGVZ8dmcModelR5MixerE2sm = internal global i64 0, align 8
@_ZZ8dmcModelR5MixerE9threshold = internal unnamed_addr global i32 256, align 4
@_ZZ13contextModel2vE2cm = internal global %class.ContextMap zeroinitializer, align 8
@_ZGVZ13contextModel2vE2cm = internal global i64 0, align 8
@_ZZ13contextModel2vE4rcm7 = internal global %class.RunContextMap zeroinitializer, align 8
@_ZGVZ13contextModel2vE4rcm7 = internal global i64 0, align 8
@_ZZ13contextModel2vE4rcm9 = internal global %class.RunContextMap zeroinitializer, align 8
@_ZGVZ13contextModel2vE4rcm9 = internal global i64 0, align 8
@_ZZ13contextModel2vE5rcm10 = internal global %class.RunContextMap zeroinitializer, align 8
@_ZGVZ13contextModel2vE5rcm10 = internal global i64 0, align 8
@_ZZ13contextModel2vE1m = internal global %class.Mixer zeroinitializer, align 8
@_ZGVZ13contextModel2vE1m = internal global i64 0, align 8
@_ZZ13contextModel2vE3cxt = internal unnamed_addr global [16 x i32] zeroinitializer, align 16
@_ZZ13contextModel2vE8filetype = internal unnamed_addr global i32 0, align 4
@_ZZ13contextModel2vE4size = internal unnamed_addr global i32 0, align 4
@_ZZ13contextModel2vE3col = internal unnamed_addr global i32 0, align 4
@_ZZ13contextModel2vE3col_0 = internal unnamed_addr global i32 0, align 4
@_ZZN9Predictor6updateEvE1a = internal global %class.APM1 zeroinitializer, align 8
@_ZGVZN9Predictor6updateEvE1a = internal global i64 0, align 8
@_ZZN9Predictor6updateEvE2a1 = internal global %class.APM1 zeroinitializer, align 8
@_ZGVZN9Predictor6updateEvE2a1 = internal global i64 0, align 8
@_ZZN9Predictor6updateEvE2a2 = internal global %class.APM1 zeroinitializer, align 8
@_ZGVZN9Predictor6updateEvE2a2 = internal global i64 0, align 8
@_ZZN9Predictor6updateEvE2a3 = internal global %class.APM1 zeroinitializer, align 8
@_ZGVZN9Predictor6updateEvE2a3 = internal global i64 0, align 8
@_ZZN9Predictor6updateEvE2a4 = internal global %class.APM1 zeroinitializer, align 8
@_ZGVZN9Predictor6updateEvE2a4 = internal global i64 0, align 8
@_ZZN9Predictor6updateEvE2a5 = internal global %class.APM1 zeroinitializer, align 8
@_ZGVZN9Predictor6updateEvE2a5 = internal global i64 0, align 8
@_ZZN9Predictor6updateEvE2a6 = internal global %class.APM1 zeroinitializer, align 8
@_ZGVZN9Predictor6updateEvE2a6 = internal global i64 0, align 8
@_ZL2dt = internal unnamed_addr global [1024 x i32] zeroinitializer, align 16
@.str.17 = private unnamed_addr constant [9 x i8] c"%c%c%c%c\00", align 1
@.str.18 = private unnamed_addr constant [22 x i8] c"encode_exe read error\00", align 1
@_ZZ10decode_exeR7EncoderE6offset = internal unnamed_addr global i32 0, align 4
@_ZZ10decode_exeR7EncoderE1q = internal unnamed_addr global i32 0, align 4
@_ZZ10decode_exeR7EncoderE4size = internal unnamed_addr global i32 0, align 4
@_ZZ10decode_exeR7EncoderE5begin = internal unnamed_addr global i32 0, align 4
@_ZZ10decode_exeR7EncoderE1c = internal unnamed_addr global [5 x i8] zeroinitializer, align 4
@.str.19 = private unnamed_addr constant [11 x i8] c"%c%c%c%c%c\00", align 1
@_ZZ6decodeR7EncoderE4type = internal unnamed_addr global i32 0, align 4
@_ZZ6decodeR7EncoderE3len = internal unnamed_addr global i32 0, align 4
@.str.20 = private unnamed_addr constant [17 x i8] c"%12d\08\08\08\08\08\08\08\08\08\08\08\08\00", align 1
@stdout = external local_unnamed_addr global ptr, align 8
@.str.21 = private unnamed_addr constant [3 x i8] c"rb\00", align 1
@.str.22 = private unnamed_addr constant [11 x i8] c"%s %ld -> \00", align 1
@.str.23 = private unnamed_addr constant [8 x i8] c"tmpfile\00", align 1
@.str.24 = private unnamed_addr constant [58 x i8] c"Transform fails at %ld, input=%d decoded=%d, skipping...\0A\00", align 1
@.str.25 = private unnamed_addr constant [8 x i8] c"%-12ld\0A\00", align 1
@.str.26 = private unnamed_addr constant [21 x i8] c"Comparing %s %ld -> \00", align 1
@.str.27 = private unnamed_addr constant [34 x i8] c"differ at %d: file=%d archive=%d\0A\00", align 1
@.str.30 = private unnamed_addr constant [3 x i8] c"wb\00", align 1
@.str.32 = private unnamed_addr constant [22 x i8] c"Extracting %s %ld -> \00", align 1
@.str.34 = private unnamed_addr constant [20 x i8] c"Skipping %s %ld -> \00", align 1
@_ZZ7getlineP8_IO_FILEE1s = internal global %class.Buf zeroinitializer, align 8
@_ZGVZ7getlineP8_IO_FILEE1s = internal global i64 0, align 8
@.str.36 = private unnamed_addr constant [1 x i8] zeroinitializer, align 1
@_ZZ7putsizeR6StringS0_PKciE3blk = internal global [24 x i8] zeroinitializer, align 16
@.str.37 = private unnamed_addr constant [5 x i8] c"%ld\09\00", align 1
@.str.38 = private unnamed_addr constant [3 x i8] c"\0D\0A\00", align 1
@.str.39 = private unnamed_addr constant [39 x i8] c"Valid options are -0 through -9 or -d\0A\00", align 1
@.str.40 = private unnamed_addr constant [645 x i8] c"paq8p archiver (C) 2008, Matt Mahoney et al.\0AFree under GPL, http://www.gnu.org/licenses/gpl.txt\0A\0ATo compress:\0A  paq8p -level file               (compresses to file.paq8p)\0A  paq8p -level archive files...   (creates archive.paq8p)\0A  paq8p file                      (level -%d, pause when done)\0Alevel: -0 = store, -1 -2 -3 = faster (uses 35, 48, 59 MB)\0A-4 -5 -6 -7 -8 = smaller (uses 133, 233, 435, 837, 1643 MB)\0A\0ATo extract or compare:\0A  paq8p -d dir1/archive.paq8p      (extract to dir1)\0A  paq8p -d dir1/archive.paq8p dir2 (extract to dir2)\0A  paq8p archive.paq8p              (extract, pause when done)\0A\0ATo view contents: more < archive.paq8p\0A\0A\00", align 1
@.str.41 = private unnamed_addr constant [2 x i8] c".\00", align 1
@.str.42 = private unnamed_addr constant [28 x i8] c"%s: not found, skipping...\0A\00", align 1
@.str.43 = private unnamed_addr constant [21 x i8] c"Nothing to compress\0A\00", align 1
@.str.44 = private unnamed_addr constant [4 x i8] c"wb+\00", align 1
@.str.45 = private unnamed_addr constant [15 x i8] c"paq8p -%d\0D\0A%s\1A\00", align 1
@.str.46 = private unnamed_addr constant [37 x i8] c"Creating archive with %d file(s)...\0A\00", align 1
@.str.47 = private unnamed_addr constant [4 x i8] c"rb+\00", align 1
@.str.48 = private unnamed_addr constant [8 x i8] c"paq8p -\00", align 1
@.str.49 = private unnamed_addr constant [19 x i8] c"%s: not a %s file\0A\00", align 1
@.str.50 = private unnamed_addr constant [6 x i8] c"paq8p\00", align 1
@.str.51 = private unnamed_addr constant [40 x i8] c"Extracting %d file(s) from archive -%d\0A\00", align 1
@.str.52 = private unnamed_addr constant [29 x i8] c"%s: header corrupted at %ld\0A\00", align 1
@.str.53 = private unnamed_addr constant [12 x i8] c"%ld -> %ld\0A\00", align 1
@.str.54 = private unnamed_addr constant [2 x i8] c"/\00", align 1
@.str.57 = private unnamed_addr constant [14 x i8] c"fork() failed\00", align 1
@.str.58 = private unnamed_addr constant [3 x i8] c"-d\00", align 1
@.str.59 = private unnamed_addr constant [14 x i8] c"Out of memory\00", align 1
@_ZZN2BHILi4EEixEjE3tmp = internal global [4 x i8] zeroinitializer, comdat, align 1
@_ZZN2BHILi9EEixEjE3tmp = internal global [9 x i8] zeroinitializer, comdat, align 1
@str = private unnamed_addr constant [14 x i8] c"not extracted\00", align 1
@str.60 = private unnamed_addr constant [13 x i8] c"done        \00", align 1
@str.61 = private unnamed_addr constant [13 x i8] c"identical   \00", align 1
@str.62 = private unnamed_addr constant [15 x i8] c"file is longer\00", align 1
@str.63 = private unnamed_addr constant [49 x i8] c"\0AClose this window or press ENTER to continue...\00", align 1

; Function Attrs: optsize uwtable
define internal void @_GLOBAL__sub_I_paq8p.cpp() #0 section ".text.startup" {
  store i32 0, ptr @programChecker, align 8, !tbaa !7
  store i32 0, ptr getelementptr inbounds (%class.ProgramChecker, ptr @programChecker, i64 0, i32 1), align 4, !tbaa !13
  %1 = tail call i64 @clock() #31
  store i64 %1, ptr getelementptr inbounds (%class.ProgramChecker, ptr @programChecker, i64 0, i32 2), align 8, !tbaa !14
  tail call void @_ZN6RandomC2Ev(ptr noundef nonnull align 8 dereferenceable(28) @rnd) #32
  %2 = tail call i32 @__cxa_atexit(ptr nonnull @_ZN6RandomD2Ev, ptr nonnull @rnd, ptr nonnull @__dso_handle) #33
  tail call void @llvm.memset.p0.i64(ptr noundef nonnull align 8 dereferenceable(24) @buf, i8 0, i64 24, i1 false)
  %3 = tail call i32 @__cxa_atexit(ptr nonnull @_ZN3BufD2Ev, ptr nonnull @buf, ptr nonnull @__dso_handle) #33
  tail call void @_ZN4IlogC2Ev(ptr noundef nonnull align 8 dereferenceable(24) @ilog) #32
  %4 = tail call i32 @__cxa_atexit(ptr nonnull @_ZN4IlogD2Ev, ptr nonnull @ilog, ptr nonnull @__dso_handle) #33
  tail call void @_ZN7StretchC2Ev(ptr noundef nonnull align 8 dereferenceable(24) @stretch) #32
  %5 = tail call i32 @__cxa_atexit(ptr nonnull @_ZN7StretchD2Ev, ptr nonnull @stretch, ptr nonnull @__dso_handle) #33
  ret void
}

; Function Attrs: nounwind optsize
declare i64 @clock() local_unnamed_addr #1

; Function Attrs: optsize uwtable
define internal void @_ZN6RandomC2Ev(ptr noundef nonnull align 8 dereferenceable(28) %0) unnamed_addr #0 comdat align 2 personality ptr @__gxx_personality_v0 {
  tail call void @_ZN5ArrayIjLi0EE6createEi(ptr noundef nonnull align 8 dereferenceable(24) %0, i32 noundef 64) #32
  %2 = getelementptr inbounds %class.Array, ptr %0, i64 0, i32 3
  %3 = load ptr, ptr %2, align 8, !tbaa !15
  store i32 123456789, ptr %3, align 4, !tbaa !18
  %4 = getelementptr inbounds i32, ptr %3, i64 1
  store i32 987654321, ptr %4, align 4, !tbaa !18
  br label %7

5:                                                ; preds = %7
  %6 = getelementptr inbounds %class.Random, ptr %0, i64 0, i32 1
  store i32 0, ptr %6, align 8, !tbaa !19
  ret void

7:                                                ; preds = %7, %1
  %8 = phi i32 [ 987654321, %1 ], [ %16, %7 ]
  %9 = phi i64 [ 0, %1 ], [ %10, %7 ]
  %10 = add nuw nsw i64 %9, 1
  %11 = mul i32 %8, 11
  %12 = getelementptr inbounds i32, ptr %3, i64 %9
  %13 = load i32, ptr %12, align 4, !tbaa !18
  %14 = mul i32 %13, 23
  %15 = lshr i32 %14, 4
  %16 = add i32 %15, %11
  %17 = add nuw nsw i64 %9, 2
  %18 = getelementptr inbounds i32, ptr %3, i64 %17
  store i32 %16, ptr %18, align 4, !tbaa !18
  %19 = icmp eq i64 %10, 62
  br i1 %19, label %5, label %7, !llvm.loop !21
}

; Function Attrs: inlinehint nounwind optsize uwtable
define internal void @_ZN6RandomD2Ev(ptr noundef nonnull align 8 dereferenceable(28) %0) unnamed_addr #2 comdat align 2 {
  tail call void @_ZN5ArrayIjLi0EED2Ev(ptr noundef nonnull align 8 dereferenceable(24) %0) #31
  ret void
}

; Function Attrs: nofree nounwind
declare i32 @__cxa_atexit(ptr, ptr, ptr) local_unnamed_addr #3

; Function Attrs: nocallback nofree nounwind willreturn memory(argmem: write)
declare void @llvm.memset.p0.i64(ptr nocapture writeonly, i8, i64, i1 immarg) #4

; Function Attrs: inlinehint nounwind optsize uwtable
define internal void @_ZN3BufD2Ev(ptr noundef nonnull align 8 dereferenceable(24) %0) unnamed_addr #2 comdat align 2 {
  %2 = load i32, ptr %0, align 8, !tbaa !23
  %3 = load i32, ptr @programChecker, align 8, !tbaa !7
  %4 = sub i32 %3, %2
  store i32 %4, ptr @programChecker, align 8, !tbaa !7
  %5 = load i32, ptr getelementptr inbounds (%class.ProgramChecker, ptr @programChecker, i64 0, i32 1), align 4, !tbaa !13
  %6 = icmp sgt i32 %4, %5
  br i1 %6, label %7, label %8

7:                                                ; preds = %1
  store i32 %4, ptr getelementptr inbounds (%class.ProgramChecker, ptr @programChecker, i64 0, i32 1), align 4, !tbaa !13
  br label %8

8:                                                ; preds = %7, %1
  %9 = getelementptr inbounds %class.Array, ptr %0, i64 0, i32 2
  %10 = load ptr, ptr %9, align 8, !tbaa !25
  tail call void @free(ptr noundef %10) #31
  ret void
}

; Function Attrs: optsize uwtable
define internal void @_ZN4IlogC2Ev(ptr noundef nonnull align 8 dereferenceable(24) %0) unnamed_addr #0 align 2 personality ptr @__gxx_personality_v0 {
  tail call void @_ZN5ArrayIhLi0EE6createEi(ptr noundef nonnull align 8 dereferenceable(24) %0, i32 noundef 65536) #32
  %2 = getelementptr inbounds %class.Array, ptr %0, i64 0, i32 3
  br label %4

3:                                                ; preds = %4
  ret void

4:                                                ; preds = %4, %1
  %5 = phi i64 [ 2, %1 ], [ %16, %4 ]
  %6 = phi i32 [ 14155776, %1 ], [ %11, %4 ]
  %7 = trunc i64 %5 to i32
  %8 = shl i32 %7, 1
  %9 = add i32 %8, -1
  %10 = udiv i32 774541002, %9
  %11 = add i32 %10, %6
  %12 = lshr i32 %11, 24
  %13 = trunc i32 %12 to i8
  %14 = load ptr, ptr %2, align 8, !tbaa !26
  %15 = getelementptr inbounds i8, ptr %14, i64 %5
  store i8 %13, ptr %15, align 1, !tbaa !27
  %16 = add nuw nsw i64 %5, 1
  %17 = icmp eq i64 %16, 65536
  br i1 %17, label %3, label %4, !llvm.loop !28
}

; Function Attrs: inlinehint nounwind optsize uwtable
define internal void @_ZN4IlogD2Ev(ptr noundef nonnull align 8 dereferenceable(24) %0) unnamed_addr #2 comdat align 2 {
  %2 = load i32, ptr %0, align 8, !tbaa !23
  %3 = load i32, ptr @programChecker, align 8, !tbaa !7
  %4 = sub i32 %3, %2
  store i32 %4, ptr @programChecker, align 8, !tbaa !7
  %5 = load i32, ptr getelementptr inbounds (%class.ProgramChecker, ptr @programChecker, i64 0, i32 1), align 4, !tbaa !13
  %6 = icmp sgt i32 %4, %5
  br i1 %6, label %7, label %8

7:                                                ; preds = %1
  store i32 %4, ptr getelementptr inbounds (%class.ProgramChecker, ptr @programChecker, i64 0, i32 1), align 4, !tbaa !13
  br label %8

8:                                                ; preds = %7, %1
  %9 = getelementptr inbounds %class.Array, ptr %0, i64 0, i32 2
  %10 = load ptr, ptr %9, align 8, !tbaa !25
  tail call void @free(ptr noundef %10) #31
  ret void
}

; Function Attrs: optsize uwtable
define internal void @_ZN7StretchC2Ev(ptr noundef nonnull align 8 dereferenceable(24) %0) unnamed_addr #0 align 2 personality ptr @__gxx_personality_v0 {
  tail call void @_ZN5ArrayIsLi0EE6createEi(ptr noundef nonnull align 8 dereferenceable(24) %0, i32 noundef 4096) #32
  %2 = getelementptr inbounds %class.Array, ptr %0, i64 0, i32 3
  %3 = load ptr, ptr %2, align 8
  br label %6

4:                                                ; preds = %18
  %5 = getelementptr inbounds i16, ptr %3, i64 4095
  store i16 2047, ptr %5, align 2, !tbaa !29
  ret void

6:                                                ; preds = %18, %1
  %7 = phi i32 [ 0, %1 ], [ %19, %18 ]
  %8 = phi i32 [ -2047, %1 ], [ %20, %18 ]
  %9 = tail call noundef i32 @_Z6squashi(i32 noundef %8) #32, !range !31
  %10 = icmp sgt i32 %7, %9
  br i1 %10, label %11, label %13

11:                                               ; preds = %6
  %12 = add nsw i32 %9, 1
  br label %18

13:                                               ; preds = %6
  %14 = trunc i32 %8 to i16
  %15 = sext i32 %7 to i64
  %16 = add nsw i32 %9, 1
  %17 = sext i32 %16 to i64
  br label %22

18:                                               ; preds = %22, %11
  %19 = phi i32 [ %12, %11 ], [ %16, %22 ]
  %20 = add nsw i32 %8, 1
  %21 = icmp eq i32 %20, 2048
  br i1 %21, label %4, label %6, !llvm.loop !32

22:                                               ; preds = %22, %13
  %23 = phi i64 [ %15, %13 ], [ %25, %22 ]
  %24 = getelementptr inbounds i16, ptr %3, i64 %23
  store i16 %14, ptr %24, align 2, !tbaa !29
  %25 = add nsw i64 %23, 1
  %26 = icmp eq i64 %25, %17
  br i1 %26, label %18, label %22, !llvm.loop !33
}

; Function Attrs: inlinehint nounwind optsize uwtable
define internal void @_ZN7StretchD2Ev(ptr noundef nonnull align 8 dereferenceable(24) %0) unnamed_addr #2 comdat align 2 {
  tail call void @_ZN5ArrayIsLi0EED2Ev(ptr noundef nonnull align 8 dereferenceable(24) %0) #31
  ret void
}

; Function Attrs: nounwind optsize uwtable
define internal void @_ZN5ArrayIsLi0EED2Ev(ptr noundef nonnull align 8 dereferenceable(24) %0) unnamed_addr #5 comdat align 2 {
  %2 = load i32, ptr %0, align 8, !tbaa !34
  %3 = load i32, ptr @programChecker, align 8, !tbaa !7
  %4 = shl i32 %2, 1
  %5 = sub i32 %3, %4
  store i32 %5, ptr @programChecker, align 8, !tbaa !7
  %6 = load i32, ptr getelementptr inbounds (%class.ProgramChecker, ptr @programChecker, i64 0, i32 1), align 4, !tbaa !13
  %7 = icmp sgt i32 %5, %6
  br i1 %7, label %8, label %9

8:                                                ; preds = %1
  store i32 %5, ptr getelementptr inbounds (%class.ProgramChecker, ptr @programChecker, i64 0, i32 1), align 4, !tbaa !13
  br label %9

9:                                                ; preds = %8, %1
  %10 = getelementptr inbounds %class.Array, ptr %0, i64 0, i32 2
  %11 = load ptr, ptr %10, align 8, !tbaa !36
  tail call void @free(ptr noundef %11) #31
  ret void
}

; Function Attrs: mustprogress nounwind optsize willreturn allockind("free") memory(argmem: readwrite, inaccessiblemem: readwrite)
declare void @free(ptr allocptr nocapture noundef) local_unnamed_addr #6

declare i32 @__gxx_personality_v0(...)

; Function Attrs: mustprogress optsize uwtable
define internal void @_ZN5ArrayIsLi0EE6createEi(ptr noundef nonnull align 8 dereferenceable(24) %0, i32 noundef %1) #7 comdat align 2 {
  %3 = getelementptr inbounds %class.Array, ptr %0, i64 0, i32 1
  store i32 %1, ptr %3, align 4, !tbaa !37
  store i32 %1, ptr %0, align 8, !tbaa !34
  %4 = icmp slt i32 %1, 1
  br i1 %4, label %5, label %7

5:                                                ; preds = %2
  %6 = getelementptr inbounds %class.Array, ptr %0, i64 0, i32 2
  tail call void @llvm.memset.p0.i64(ptr noundef nonnull align 8 dereferenceable(16) %6, i8 0, i64 16, i1 false)
  br label %23

7:                                                ; preds = %2
  %8 = shl nuw i32 %1, 1
  %9 = load i32, ptr @programChecker, align 8, !tbaa !7
  %10 = add nsw i32 %9, %8
  store i32 %10, ptr @programChecker, align 8, !tbaa !7
  %11 = load i32, ptr getelementptr inbounds (%class.ProgramChecker, ptr @programChecker, i64 0, i32 1), align 4, !tbaa !13
  %12 = icmp sgt i32 %10, %11
  br i1 %12, label %13, label %14

13:                                               ; preds = %7
  store i32 %10, ptr getelementptr inbounds (%class.ProgramChecker, ptr @programChecker, i64 0, i32 1), align 4, !tbaa !13
  br label %14

14:                                               ; preds = %13, %7
  %15 = sext i32 %8 to i64
  %16 = tail call noalias ptr @calloc(i64 noundef %15, i64 noundef 1) #34
  %17 = getelementptr inbounds %class.Array, ptr %0, i64 0, i32 2
  store ptr %16, ptr %17, align 8, !tbaa !36
  %18 = icmp eq ptr %16, null
  br i1 %18, label %19, label %21

19:                                               ; preds = %14
  %20 = tail call ptr @__cxa_allocate_exception(i64 8) #33
  store ptr @.str.59, ptr %20, align 16, !tbaa !38
  tail call void @__cxa_throw(ptr nonnull %20, ptr nonnull @_ZTIPKc, ptr null) #35
  unreachable

21:                                               ; preds = %14
  %22 = getelementptr inbounds %class.Array, ptr %0, i64 0, i32 3
  store ptr %16, ptr %22, align 8, !tbaa !39
  br label %23

23:                                               ; preds = %21, %5
  ret void
}

; Function Attrs: mustprogress nofree norecurse nosync nounwind optsize willreturn memory(none) uwtable
define internal noundef i32 @_Z6squashi(i32 noundef %0) #8 {
  %2 = icmp sgt i32 %0, 2047
  br i1 %2, label %22, label %3

3:                                                ; preds = %1
  %4 = icmp slt i32 %0, -2047
  br i1 %4, label %22, label %5

5:                                                ; preds = %3
  %6 = and i32 %0, 127
  %7 = ashr i32 %0, 7
  %8 = add nsw i32 %7, 16
  %9 = zext i32 %8 to i64
  %10 = getelementptr inbounds [33 x i32], ptr @_ZZ6squashiE1t, i64 0, i64 %9
  %11 = load i32, ptr %10, align 4, !tbaa !18
  %12 = sub nuw nsw i32 128, %6
  %13 = mul nsw i32 %11, %12
  %14 = add nsw i32 %7, 17
  %15 = zext i32 %14 to i64
  %16 = getelementptr inbounds [33 x i32], ptr @_ZZ6squashiE1t, i64 0, i64 %15
  %17 = load i32, ptr %16, align 4, !tbaa !18
  %18 = mul nsw i32 %17, %6
  %19 = add i32 %13, 64
  %20 = add i32 %19, %18
  %21 = ashr i32 %20, 7
  br label %22

22:                                               ; preds = %5, %3, %1
  %23 = phi i32 [ %21, %5 ], [ 4095, %1 ], [ 0, %3 ]
  ret i32 %23
}

; Function Attrs: mustprogress nofree nounwind optsize willreturn allockind("alloc,zeroed") allocsize(0,1) memory(inaccessiblemem: readwrite)
declare noalias noundef ptr @calloc(i64 noundef, i64 noundef) local_unnamed_addr #9

declare ptr @__cxa_allocate_exception(i64) local_unnamed_addr

declare void @__cxa_throw(ptr, ptr, ptr) local_unnamed_addr

; Function Attrs: mustprogress optsize uwtable
define internal void @_ZN5ArrayIhLi0EE6createEi(ptr noundef nonnull align 8 dereferenceable(24) %0, i32 noundef %1) #7 comdat align 2 {
  %3 = getelementptr inbounds %class.Array, ptr %0, i64 0, i32 1
  store i32 %1, ptr %3, align 4, !tbaa !40
  store i32 %1, ptr %0, align 8, !tbaa !23
  %4 = icmp slt i32 %1, 1
  br i1 %4, label %5, label %7

5:                                                ; preds = %2
  %6 = getelementptr inbounds %class.Array, ptr %0, i64 0, i32 2
  tail call void @llvm.memset.p0.i64(ptr noundef nonnull align 8 dereferenceable(16) %6, i8 0, i64 16, i1 false)
  br label %22

7:                                                ; preds = %2
  %8 = zext i32 %1 to i64
  %9 = load i32, ptr @programChecker, align 8, !tbaa !7
  %10 = add nsw i32 %9, %1
  store i32 %10, ptr @programChecker, align 8, !tbaa !7
  %11 = load i32, ptr getelementptr inbounds (%class.ProgramChecker, ptr @programChecker, i64 0, i32 1), align 4, !tbaa !13
  %12 = icmp sgt i32 %10, %11
  br i1 %12, label %13, label %14

13:                                               ; preds = %7
  store i32 %10, ptr getelementptr inbounds (%class.ProgramChecker, ptr @programChecker, i64 0, i32 1), align 4, !tbaa !13
  br label %14

14:                                               ; preds = %13, %7
  %15 = tail call noalias ptr @calloc(i64 noundef %8, i64 noundef 1) #34
  %16 = getelementptr inbounds %class.Array, ptr %0, i64 0, i32 2
  store ptr %15, ptr %16, align 8, !tbaa !25
  %17 = icmp eq ptr %15, null
  br i1 %17, label %18, label %20

18:                                               ; preds = %14
  %19 = tail call ptr @__cxa_allocate_exception(i64 8) #33
  store ptr @.str.59, ptr %19, align 16, !tbaa !38
  tail call void @__cxa_throw(ptr nonnull %19, ptr nonnull @_ZTIPKc, ptr null) #35
  unreachable

20:                                               ; preds = %14
  %21 = getelementptr inbounds %class.Array, ptr %0, i64 0, i32 3
  store ptr %15, ptr %21, align 8, !tbaa !26
  br label %22

22:                                               ; preds = %20, %5
  ret void
}

; Function Attrs: nounwind optsize uwtable
define internal void @_ZN5ArrayIjLi0EED2Ev(ptr noundef nonnull align 8 dereferenceable(24) %0) unnamed_addr #5 comdat align 2 {
  %2 = load i32, ptr %0, align 8, !tbaa !41
  %3 = load i32, ptr @programChecker, align 8, !tbaa !7
  %4 = shl i32 %2, 2
  %5 = sub i32 %3, %4
  store i32 %5, ptr @programChecker, align 8, !tbaa !7
  %6 = load i32, ptr getelementptr inbounds (%class.ProgramChecker, ptr @programChecker, i64 0, i32 1), align 4, !tbaa !13
  %7 = icmp sgt i32 %5, %6
  br i1 %7, label %8, label %9

8:                                                ; preds = %1
  store i32 %5, ptr getelementptr inbounds (%class.ProgramChecker, ptr @programChecker, i64 0, i32 1), align 4, !tbaa !13
  br label %9

9:                                                ; preds = %8, %1
  %10 = getelementptr inbounds %class.Array, ptr %0, i64 0, i32 2
  %11 = load ptr, ptr %10, align 8, !tbaa !42
  tail call void @free(ptr noundef %11) #31
  ret void
}

; Function Attrs: mustprogress optsize uwtable
define internal void @_ZN5ArrayIjLi0EE6createEi(ptr noundef nonnull align 8 dereferenceable(24) %0, i32 noundef %1) #7 comdat align 2 {
  %3 = getelementptr inbounds %class.Array, ptr %0, i64 0, i32 1
  store i32 %1, ptr %3, align 4, !tbaa !43
  store i32 %1, ptr %0, align 8, !tbaa !41
  %4 = icmp slt i32 %1, 1
  br i1 %4, label %5, label %7

5:                                                ; preds = %2
  %6 = getelementptr inbounds %class.Array, ptr %0, i64 0, i32 2
  tail call void @llvm.memset.p0.i64(ptr noundef nonnull align 8 dereferenceable(16) %6, i8 0, i64 16, i1 false)
  br label %23

7:                                                ; preds = %2
  %8 = shl i32 %1, 2
  %9 = load i32, ptr @programChecker, align 8, !tbaa !7
  %10 = add nsw i32 %9, %8
  store i32 %10, ptr @programChecker, align 8, !tbaa !7
  %11 = load i32, ptr getelementptr inbounds (%class.ProgramChecker, ptr @programChecker, i64 0, i32 1), align 4, !tbaa !13
  %12 = icmp sgt i32 %10, %11
  br i1 %12, label %13, label %14

13:                                               ; preds = %7
  store i32 %10, ptr getelementptr inbounds (%class.ProgramChecker, ptr @programChecker, i64 0, i32 1), align 4, !tbaa !13
  br label %14

14:                                               ; preds = %13, %7
  %15 = sext i32 %8 to i64
  %16 = tail call noalias ptr @calloc(i64 noundef %15, i64 noundef 1) #34
  %17 = getelementptr inbounds %class.Array, ptr %0, i64 0, i32 2
  store ptr %16, ptr %17, align 8, !tbaa !42
  %18 = icmp eq ptr %16, null
  br i1 %18, label %19, label %21

19:                                               ; preds = %14
  %20 = tail call ptr @__cxa_allocate_exception(i64 8) #33
  store ptr @.str.59, ptr %20, align 16, !tbaa !38
  tail call void @__cxa_throw(ptr nonnull %20, ptr nonnull @_ZTIPKc, ptr null) #35
  unreachable

21:                                               ; preds = %14
  %22 = getelementptr inbounds %class.Array, ptr %0, i64 0, i32 3
  store ptr %16, ptr %22, align 8, !tbaa !15
  br label %23

23:                                               ; preds = %21, %5
  ret void
}

; Function Attrs: mustprogress noreturn optsize uwtable
define internal void @_Z4quitPKc(ptr noundef %0) #10 {
  %2 = tail call ptr @__cxa_allocate_exception(i64 8) #33
  store ptr %0, ptr %2, align 16, !tbaa !38
  tail call void @__cxa_throw(ptr nonnull %2, ptr nonnull @_ZTIPKc, ptr null) #35
  unreachable
}

; Function Attrs: mustprogress nofree norecurse nosync nounwind optsize willreturn memory(read, inaccessiblemem: none) uwtable
define internal noundef i32 @_Z6equalsPKcS0_(ptr nocapture noundef readonly %0, ptr nocapture noundef readonly %1) #11 {
  br label %3

3:                                                ; preds = %11, %2
  %4 = phi ptr [ %0, %2 ], [ %23, %11 ]
  %5 = phi ptr [ %1, %2 ], [ %24, %11 ]
  %6 = load i8, ptr %4, align 1, !tbaa !27
  %7 = icmp eq i8 %6, 0
  %8 = load i8, ptr %5, align 1, !tbaa !27
  %9 = icmp eq i8 %8, 0
  %10 = select i1 %7, i1 true, i1 %9
  br i1 %10, label %25, label %11

11:                                               ; preds = %3
  %12 = sext i8 %6 to i32
  %13 = add i8 %6, -65
  %14 = icmp ult i8 %13, 26
  %15 = add nuw nsw i32 %12, 32
  %16 = select i1 %14, i32 %15, i32 %12
  %17 = sext i8 %8 to i32
  %18 = add i8 %8, -65
  %19 = icmp ult i8 %18, 26
  %20 = add nuw nsw i32 %17, 32
  %21 = select i1 %19, i32 %20, i32 %17
  %22 = icmp eq i32 %16, %21
  %23 = getelementptr inbounds i8, ptr %4, i64 1
  %24 = getelementptr inbounds i8, ptr %5, i64 1
  br i1 %22, label %3, label %28

25:                                               ; preds = %3
  %.lcssa2 = phi i8 [ %6, %3 ]
  %.lcssa = phi i8 [ %8, %3 ]
  %26 = icmp eq i8 %.lcssa2, %.lcssa
  %27 = zext i1 %26 to i32
  br label %28

28:                                               ; preds = %25, %11
  %29 = phi i32 [ %27, %25 ], [ 0, %11 ]
  ret i32 %29
}

; Function Attrs: nounwind optsize uwtable
define internal void @_ZN5ArrayIhLi0EED2Ev(ptr noundef nonnull align 8 dereferenceable(24) %0) unnamed_addr #5 comdat align 2 {
  %2 = load i32, ptr %0, align 8, !tbaa !23
  %3 = load i32, ptr @programChecker, align 8, !tbaa !7
  %4 = sub i32 %3, %2
  store i32 %4, ptr @programChecker, align 8, !tbaa !7
  %5 = load i32, ptr getelementptr inbounds (%class.ProgramChecker, ptr @programChecker, i64 0, i32 1), align 4, !tbaa !13
  %6 = icmp sgt i32 %4, %5
  br i1 %6, label %7, label %8

7:                                                ; preds = %1
  store i32 %4, ptr getelementptr inbounds (%class.ProgramChecker, ptr @programChecker, i64 0, i32 1), align 4, !tbaa !13
  br label %8

8:                                                ; preds = %7, %1
  %9 = getelementptr inbounds %class.Array, ptr %0, i64 0, i32 2
  %10 = load ptr, ptr %9, align 8, !tbaa !25
  tail call void @free(ptr noundef %10) #31
  ret void
}

; Function Attrs: nounwind optsize uwtable
define internal void @_ZN5MixerD2Ev(ptr noundef nonnull align 8 dereferenceable(136) %0) unnamed_addr #5 align 2 {
  %2 = getelementptr inbounds %class.Mixer, ptr %0, i64 0, i32 10
  %3 = load ptr, ptr %2, align 8, !tbaa !44
  %4 = icmp eq ptr %3, null
  br i1 %4, label %6, label %5

5:                                                ; preds = %1
  tail call void @_ZN5MixerD2Ev(ptr noundef nonnull align 8 dereferenceable(136) %3) #31
  tail call void @_ZdlPv(ptr noundef nonnull %3) #36
  br label %6

6:                                                ; preds = %5, %1
  %7 = getelementptr inbounds %class.Mixer, ptr %0, i64 0, i32 9
  tail call void @_ZN5ArrayIiLi0EED2Ev(ptr noundef nonnull align 8 dereferenceable(24) %7) #31
  %8 = getelementptr inbounds %class.Mixer, ptr %0, i64 0, i32 5
  tail call void @_ZN5ArrayIiLi0EED2Ev(ptr noundef nonnull align 8 dereferenceable(24) %8) #31
  %9 = getelementptr inbounds %class.Mixer, ptr %0, i64 0, i32 4
  tail call void @_ZN5ArrayIsLi16EED2Ev(ptr noundef nonnull align 8 dereferenceable(24) %9) #31
  %10 = getelementptr inbounds %class.Mixer, ptr %0, i64 0, i32 3
  tail call void @_ZN5ArrayIsLi16EED2Ev(ptr noundef nonnull align 8 dereferenceable(24) %10) #31
  ret void
}

; Function Attrs: nobuiltin nounwind optsize
declare void @_ZdlPv(ptr noundef) local_unnamed_addr #12

; Function Attrs: nounwind optsize uwtable
define internal void @_ZN5ArrayIiLi0EED2Ev(ptr noundef nonnull align 8 dereferenceable(24) %0) unnamed_addr #5 comdat align 2 {
  %2 = load i32, ptr %0, align 8, !tbaa !48
  %3 = load i32, ptr @programChecker, align 8, !tbaa !7
  %4 = shl i32 %2, 2
  %5 = sub i32 %3, %4
  store i32 %5, ptr @programChecker, align 8, !tbaa !7
  %6 = load i32, ptr getelementptr inbounds (%class.ProgramChecker, ptr @programChecker, i64 0, i32 1), align 4, !tbaa !13
  %7 = icmp sgt i32 %5, %6
  br i1 %7, label %8, label %9

8:                                                ; preds = %1
  store i32 %5, ptr getelementptr inbounds (%class.ProgramChecker, ptr @programChecker, i64 0, i32 1), align 4, !tbaa !13
  br label %9

9:                                                ; preds = %8, %1
  %10 = getelementptr inbounds %class.Array, ptr %0, i64 0, i32 2
  %11 = load ptr, ptr %10, align 8, !tbaa !49
  tail call void @free(ptr noundef %11) #31
  ret void
}

; Function Attrs: nounwind optsize uwtable
define internal void @_ZN5ArrayIsLi16EED2Ev(ptr noundef nonnull align 8 dereferenceable(24) %0) unnamed_addr #5 comdat align 2 {
  %2 = load i32, ptr %0, align 8, !tbaa !50
  %3 = shl i32 %2, 1
  %4 = load i32, ptr @programChecker, align 8, !tbaa !7
  %5 = sub i32 %4, %3
  %6 = add i32 %5, -16
  store i32 %6, ptr @programChecker, align 8, !tbaa !7
  %7 = load i32, ptr getelementptr inbounds (%class.ProgramChecker, ptr @programChecker, i64 0, i32 1), align 4, !tbaa !13
  %8 = icmp sgt i32 %6, %7
  br i1 %8, label %9, label %10

9:                                                ; preds = %1
  store i32 %6, ptr getelementptr inbounds (%class.ProgramChecker, ptr @programChecker, i64 0, i32 1), align 4, !tbaa !13
  br label %10

10:                                               ; preds = %9, %1
  %11 = getelementptr inbounds %class.Array, ptr %0, i64 0, i32 2
  %12 = load ptr, ptr %11, align 8, !tbaa !51
  tail call void @free(ptr noundef %12) #31
  ret void
}

; Function Attrs: optsize uwtable
define internal void @_ZN5MixerC2Eiiii(ptr noundef nonnull align 8 dereferenceable(136) %0, i32 noundef %1, i32 noundef %2, i32 noundef %3, i32 noundef %4) unnamed_addr #0 align 2 personality ptr @__gxx_personality_v0 {
  %6 = add nsw i32 %1, 7
  %7 = and i32 %6, -8
  store i32 %7, ptr %0, align 8, !tbaa !52
  %8 = getelementptr inbounds %class.Mixer, ptr %0, i64 0, i32 1
  store i32 %2, ptr %8, align 4, !tbaa !53
  %9 = getelementptr inbounds %class.Mixer, ptr %0, i64 0, i32 2
  store i32 %3, ptr %9, align 8, !tbaa !54
  %10 = getelementptr inbounds %class.Mixer, ptr %0, i64 0, i32 3
  tail call void @_ZN5ArrayIsLi16EE6createEi(ptr noundef nonnull align 8 dereferenceable(24) %10, i32 noundef %7) #32
  %11 = getelementptr inbounds %class.Mixer, ptr %0, i64 0, i32 4
  %12 = load i32, ptr %0, align 8, !tbaa !52
  %13 = load i32, ptr %8, align 4, !tbaa !53
  %14 = mul nsw i32 %13, %12
  invoke void @_ZN5ArrayIsLi16EE6createEi(ptr noundef nonnull align 8 dereferenceable(24) %11, i32 noundef %14) #32
          to label %15 unwind label %100

15:                                               ; preds = %5
  %16 = getelementptr inbounds %class.Mixer, ptr %0, i64 0, i32 5
  %17 = load i32, ptr %9, align 8, !tbaa !54
  invoke void @_ZN5ArrayIiLi0EE6createEi(ptr noundef nonnull align 8 dereferenceable(24) %16, i32 noundef %17) #32
          to label %18 unwind label %102

18:                                               ; preds = %15
  %19 = getelementptr inbounds %class.Mixer, ptr %0, i64 0, i32 6
  store i32 0, ptr %19, align 8, !tbaa !55
  %20 = getelementptr inbounds %class.Mixer, ptr %0, i64 0, i32 7
  store i32 0, ptr %20, align 4, !tbaa !56
  %21 = getelementptr inbounds %class.Mixer, ptr %0, i64 0, i32 8
  store i32 0, ptr %21, align 8, !tbaa !57
  %22 = getelementptr inbounds %class.Mixer, ptr %0, i64 0, i32 9
  %23 = load i32, ptr %9, align 8, !tbaa !54
  invoke void @_ZN5ArrayIiLi0EE6createEi(ptr noundef nonnull align 8 dereferenceable(24) %22, i32 noundef %23) #32
          to label %24 unwind label %104

24:                                               ; preds = %18
  %25 = getelementptr inbounds %class.Mixer, ptr %0, i64 0, i32 10
  store ptr null, ptr %25, align 8, !tbaa !44
  %26 = load i32, ptr %9, align 8, !tbaa !54
  %27 = icmp sgt i32 %26, 0
  br i1 %27, label %28, label %31

28:                                               ; preds = %24
  %29 = getelementptr inbounds %class.Mixer, ptr %0, i64 0, i32 9, i32 3
  %30 = load ptr, ptr %29, align 8, !tbaa !58
  br label %93

31:                                               ; preds = %93, %24
  %32 = phi i32 [ %26, %24 ], [ %97, %93 ]
  %33 = load i32, ptr %0, align 8, !tbaa !52
  %34 = load i32, ptr %8, align 4, !tbaa !53
  %35 = mul nsw i32 %34, %33
  %36 = icmp sgt i32 %35, 0
  br i1 %36, label %37, label %108

37:                                               ; preds = %31
  %38 = trunc i32 %4 to i16
  %39 = getelementptr inbounds %class.Mixer, ptr %0, i64 0, i32 4, i32 3
  %40 = load ptr, ptr %39, align 8, !tbaa !59
  %41 = zext i32 %35 to i64
  %42 = add nuw nsw i64 %41, 7
  %43 = and i64 %42, 8589934584
  %44 = add nsw i64 %41, -1
  %45 = insertelement <8 x i64> poison, i64 %44, i64 0
  %46 = shufflevector <8 x i64> %45, <8 x i64> poison, <8 x i32> zeroinitializer
  br label %47

47:                                               ; preds = %89, %37
  %48 = phi i64 [ 0, %37 ], [ %90, %89 ]
  %49 = phi <8 x i64> [ <i64 0, i64 1, i64 2, i64 3, i64 4, i64 5, i64 6, i64 7>, %37 ], [ %91, %89 ]
  %50 = icmp ule <8 x i64> %49, %46
  %51 = extractelement <8 x i1> %50, i64 0
  br i1 %51, label %52, label %54

52:                                               ; preds = %47
  %53 = getelementptr inbounds i16, ptr %40, i64 %48
  store i16 %38, ptr %53, align 2, !tbaa !29
  br label %54

54:                                               ; preds = %52, %47
  %55 = extractelement <8 x i1> %50, i64 1
  br i1 %55, label %56, label %59

56:                                               ; preds = %54
  %57 = or i64 %48, 1
  %58 = getelementptr inbounds i16, ptr %40, i64 %57
  store i16 %38, ptr %58, align 2, !tbaa !29
  br label %59

59:                                               ; preds = %56, %54
  %60 = extractelement <8 x i1> %50, i64 2
  br i1 %60, label %61, label %64

61:                                               ; preds = %59
  %62 = or i64 %48, 2
  %63 = getelementptr inbounds i16, ptr %40, i64 %62
  store i16 %38, ptr %63, align 2, !tbaa !29
  br label %64

64:                                               ; preds = %61, %59
  %65 = extractelement <8 x i1> %50, i64 3
  br i1 %65, label %66, label %69

66:                                               ; preds = %64
  %67 = or i64 %48, 3
  %68 = getelementptr inbounds i16, ptr %40, i64 %67
  store i16 %38, ptr %68, align 2, !tbaa !29
  br label %69

69:                                               ; preds = %66, %64
  %70 = extractelement <8 x i1> %50, i64 4
  br i1 %70, label %71, label %74

71:                                               ; preds = %69
  %72 = or i64 %48, 4
  %73 = getelementptr inbounds i16, ptr %40, i64 %72
  store i16 %38, ptr %73, align 2, !tbaa !29
  br label %74

74:                                               ; preds = %71, %69
  %75 = extractelement <8 x i1> %50, i64 5
  br i1 %75, label %76, label %79

76:                                               ; preds = %74
  %77 = or i64 %48, 5
  %78 = getelementptr inbounds i16, ptr %40, i64 %77
  store i16 %38, ptr %78, align 2, !tbaa !29
  br label %79

79:                                               ; preds = %76, %74
  %80 = extractelement <8 x i1> %50, i64 6
  br i1 %80, label %81, label %84

81:                                               ; preds = %79
  %82 = or i64 %48, 6
  %83 = getelementptr inbounds i16, ptr %40, i64 %82
  store i16 %38, ptr %83, align 2, !tbaa !29
  br label %84

84:                                               ; preds = %81, %79
  %85 = extractelement <8 x i1> %50, i64 7
  br i1 %85, label %86, label %89

86:                                               ; preds = %84
  %87 = or i64 %48, 7
  %88 = getelementptr inbounds i16, ptr %40, i64 %87
  store i16 %38, ptr %88, align 2, !tbaa !29
  br label %89

89:                                               ; preds = %86, %84
  %90 = add i64 %48, 8
  %91 = add <8 x i64> %49, <i64 8, i64 8, i64 8, i64 8, i64 8, i64 8, i64 8, i64 8>
  %92 = icmp eq i64 %90, %43
  br i1 %92, label %108, label %47, !llvm.loop !60

93:                                               ; preds = %93, %28
  %94 = phi i64 [ 0, %28 ], [ %96, %93 ]
  %95 = getelementptr inbounds i32, ptr %30, i64 %94
  store i32 2048, ptr %95, align 4, !tbaa !18
  %96 = add nuw nsw i64 %94, 1
  %97 = load i32, ptr %9, align 8, !tbaa !54
  %98 = sext i32 %97 to i64
  %99 = icmp slt i64 %96, %98
  br i1 %99, label %93, label %31, !llvm.loop !63

100:                                              ; preds = %5
  %101 = landingpad { ptr, i32 }
          cleanup
  br label %123

102:                                              ; preds = %15
  %103 = landingpad { ptr, i32 }
          cleanup
  br label %121

104:                                              ; preds = %18
  %105 = landingpad { ptr, i32 }
          cleanup
  br label %119

106:                                              ; preds = %110
  %107 = landingpad { ptr, i32 }
          cleanup
  br label %117

108:                                              ; preds = %89, %31
  %109 = icmp sgt i32 %32, 1
  br i1 %109, label %110, label %116

110:                                              ; preds = %108
  %111 = invoke noalias noundef nonnull dereferenceable(136) ptr @_Znwm(i64 noundef 136) #37
          to label %112 unwind label %106

112:                                              ; preds = %110
  invoke void @_ZN5MixerC2Eiiii(ptr noundef nonnull align 8 dereferenceable(136) %111, i32 noundef %32, i32 noundef 1, i32 noundef 1, i32 noundef 32767) #32
          to label %113 unwind label %114

113:                                              ; preds = %112
  store ptr %111, ptr %25, align 8, !tbaa !44
  br label %116

114:                                              ; preds = %112
  %115 = landingpad { ptr, i32 }
          cleanup
  tail call void @_ZdlPv(ptr noundef nonnull %111) #36
  br label %117

116:                                              ; preds = %113, %108
  ret void

117:                                              ; preds = %114, %106
  %118 = phi { ptr, i32 } [ %115, %114 ], [ %107, %106 ]
  tail call void @_ZN5ArrayIiLi0EED2Ev(ptr noundef nonnull align 8 dereferenceable(24) %22) #31
  br label %119

119:                                              ; preds = %117, %104
  %120 = phi { ptr, i32 } [ %118, %117 ], [ %105, %104 ]
  tail call void @_ZN5ArrayIiLi0EED2Ev(ptr noundef nonnull align 8 dereferenceable(24) %16) #31
  br label %121

121:                                              ; preds = %119, %102
  %122 = phi { ptr, i32 } [ %120, %119 ], [ %103, %102 ]
  tail call void @_ZN5ArrayIsLi16EED2Ev(ptr noundef nonnull align 8 dereferenceable(24) %11) #31
  br label %123

123:                                              ; preds = %121, %100
  %124 = phi { ptr, i32 } [ %122, %121 ], [ %101, %100 ]
  tail call void @_ZN5ArrayIsLi16EED2Ev(ptr noundef nonnull align 8 dereferenceable(24) %10) #31
  resume { ptr, i32 } %124
}

; Function Attrs: mustprogress optsize uwtable
define internal void @_ZN5ArrayIsLi16EE6createEi(ptr noundef nonnull align 8 dereferenceable(24) %0, i32 noundef %1) #7 comdat align 2 {
  %3 = getelementptr inbounds %class.Array, ptr %0, i64 0, i32 1
  store i32 %1, ptr %3, align 4, !tbaa !64
  store i32 %1, ptr %0, align 8, !tbaa !50
  %4 = icmp slt i32 %1, 1
  br i1 %4, label %5, label %7

5:                                                ; preds = %2
  %6 = getelementptr inbounds %class.Array, ptr %0, i64 0, i32 2
  tail call void @llvm.memset.p0.i64(ptr noundef nonnull align 8 dereferenceable(16) %6, i8 0, i64 16, i1 false)
  br label %29

7:                                                ; preds = %2
  %8 = shl nuw i32 %1, 1
  %9 = add i32 %8, 16
  %10 = load i32, ptr @programChecker, align 8, !tbaa !7
  %11 = add nsw i32 %10, %9
  store i32 %11, ptr @programChecker, align 8, !tbaa !7
  %12 = load i32, ptr getelementptr inbounds (%class.ProgramChecker, ptr @programChecker, i64 0, i32 1), align 4, !tbaa !13
  %13 = icmp sgt i32 %11, %12
  br i1 %13, label %14, label %15

14:                                               ; preds = %7
  store i32 %11, ptr getelementptr inbounds (%class.ProgramChecker, ptr @programChecker, i64 0, i32 1), align 4, !tbaa !13
  br label %15

15:                                               ; preds = %14, %7
  %16 = sext i32 %9 to i64
  %17 = tail call noalias ptr @calloc(i64 noundef %16, i64 noundef 1) #34
  %18 = getelementptr inbounds %class.Array, ptr %0, i64 0, i32 2
  store ptr %17, ptr %18, align 8, !tbaa !51
  %19 = icmp eq ptr %17, null
  br i1 %19, label %20, label %22

20:                                               ; preds = %15
  %21 = tail call ptr @__cxa_allocate_exception(i64 8) #33
  store ptr @.str.59, ptr %21, align 16, !tbaa !38
  tail call void @__cxa_throw(ptr nonnull %21, ptr nonnull @_ZTIPKc, ptr null) #35
  unreachable

22:                                               ; preds = %15
  %23 = getelementptr inbounds i8, ptr %17, i64 16
  %24 = ptrtoint ptr %17 to i64
  %25 = and i64 %24, 15
  %26 = sub nsw i64 0, %25
  %27 = getelementptr inbounds i8, ptr %23, i64 %26
  %28 = getelementptr inbounds %class.Array, ptr %0, i64 0, i32 3
  store ptr %27, ptr %28, align 8, !tbaa !59
  br label %29

29:                                               ; preds = %22, %5
  ret void
}

; Function Attrs: mustprogress optsize uwtable
define internal void @_ZN5ArrayIiLi0EE6createEi(ptr noundef nonnull align 8 dereferenceable(24) %0, i32 noundef %1) #7 comdat align 2 {
  %3 = getelementptr inbounds %class.Array, ptr %0, i64 0, i32 1
  store i32 %1, ptr %3, align 4, !tbaa !65
  store i32 %1, ptr %0, align 8, !tbaa !48
  %4 = icmp slt i32 %1, 1
  br i1 %4, label %5, label %7

5:                                                ; preds = %2
  %6 = getelementptr inbounds %class.Array, ptr %0, i64 0, i32 2
  tail call void @llvm.memset.p0.i64(ptr noundef nonnull align 8 dereferenceable(16) %6, i8 0, i64 16, i1 false)
  br label %23

7:                                                ; preds = %2
  %8 = shl i32 %1, 2
  %9 = load i32, ptr @programChecker, align 8, !tbaa !7
  %10 = add nsw i32 %9, %8
  store i32 %10, ptr @programChecker, align 8, !tbaa !7
  %11 = load i32, ptr getelementptr inbounds (%class.ProgramChecker, ptr @programChecker, i64 0, i32 1), align 4, !tbaa !13
  %12 = icmp sgt i32 %10, %11
  br i1 %12, label %13, label %14

13:                                               ; preds = %7
  store i32 %10, ptr getelementptr inbounds (%class.ProgramChecker, ptr @programChecker, i64 0, i32 1), align 4, !tbaa !13
  br label %14

14:                                               ; preds = %13, %7
  %15 = sext i32 %8 to i64
  %16 = tail call noalias ptr @calloc(i64 noundef %15, i64 noundef 1) #34
  %17 = getelementptr inbounds %class.Array, ptr %0, i64 0, i32 2
  store ptr %16, ptr %17, align 8, !tbaa !49
  %18 = icmp eq ptr %16, null
  br i1 %18, label %19, label %21

19:                                               ; preds = %14
  %20 = tail call ptr @__cxa_allocate_exception(i64 8) #33
  store ptr @.str.59, ptr %20, align 16, !tbaa !38
  tail call void @__cxa_throw(ptr nonnull %20, ptr nonnull @_ZTIPKc, ptr null) #35
  unreachable

21:                                               ; preds = %14
  %22 = getelementptr inbounds %class.Array, ptr %0, i64 0, i32 3
  store ptr %16, ptr %22, align 8, !tbaa !58
  br label %23

23:                                               ; preds = %21, %5
  ret void
}

; Function Attrs: nobuiltin optsize allocsize(0)
declare noundef nonnull ptr @_Znwm(i64 noundef) local_unnamed_addr #13

; Function Attrs: optsize uwtable
define internal void @_ZN4APM1C2Ei(ptr noundef nonnull align 8 dereferenceable(32) %0, i32 noundef %1) unnamed_addr #0 align 2 personality ptr @__gxx_personality_v0 {
  store i32 0, ptr %0, align 8, !tbaa !66
  %3 = getelementptr inbounds %class.APM1, ptr %0, i64 0, i32 1
  store i32 %1, ptr %3, align 4, !tbaa !69
  %4 = getelementptr inbounds %class.APM1, ptr %0, i64 0, i32 2
  %5 = mul nsw i32 %1, 33
  tail call void @_ZN5ArrayItLi0EE6createEi(ptr noundef nonnull align 8 dereferenceable(24) %4, i32 noundef %5) #32
  %6 = load i32, ptr %3, align 4, !tbaa !69
  %7 = icmp sgt i32 %6, 0
  br i1 %7, label %8, label %18

8:                                                ; preds = %2
  %9 = getelementptr inbounds %class.APM1, ptr %0, i64 0, i32 2, i32 3
  %10 = load ptr, ptr %9, align 8, !tbaa !70
  %11 = zext i32 %6 to i64
  br label %12

12:                                               ; preds = %19, %8
  %13 = phi i64 [ 0, %8 ], [ %20, %19 ]
  %14 = icmp eq i64 %13, 0
  %15 = mul i64 %13, 33
  %16 = load ptr, ptr %9, align 8
  %17 = and i64 %15, 4294967295
  br label %22

18:                                               ; preds = %19, %2
  ret void

19:                                               ; preds = %34
  %20 = add nuw nsw i64 %13, 1
  %21 = icmp eq i64 %20, %11
  br i1 %21, label %18, label %12, !llvm.loop !71

22:                                               ; preds = %34, %12
  %23 = phi i64 [ 0, %12 ], [ %39, %34 ]
  br i1 %14, label %24, label %30

24:                                               ; preds = %22
  %25 = trunc i64 %23 to i32
  %26 = shl i32 %25, 7
  %27 = add i32 %26, -2048
  %28 = tail call noundef i32 @_Z6squashi(i32 noundef %27) #32, !range !31
  %29 = shl nsw i32 %28, 4
  br label %34

30:                                               ; preds = %22
  %31 = getelementptr inbounds i16, ptr %16, i64 %23
  %32 = load i16, ptr %31, align 2, !tbaa !29
  %33 = zext i16 %32 to i32
  br label %34

34:                                               ; preds = %30, %24
  %35 = phi i32 [ %29, %24 ], [ %33, %30 ]
  %36 = trunc i32 %35 to i16
  %37 = add nuw nsw i64 %23, %17
  %38 = getelementptr inbounds i16, ptr %10, i64 %37
  store i16 %36, ptr %38, align 2, !tbaa !29
  %39 = add nuw nsw i64 %23, 1
  %40 = icmp eq i64 %39, 33
  br i1 %40, label %19, label %22, !llvm.loop !72
}

; Function Attrs: mustprogress optsize uwtable
define internal void @_ZN5ArrayItLi0EE6createEi(ptr noundef nonnull align 8 dereferenceable(24) %0, i32 noundef %1) #7 comdat align 2 {
  %3 = getelementptr inbounds %class.Array, ptr %0, i64 0, i32 1
  store i32 %1, ptr %3, align 4, !tbaa !73
  store i32 %1, ptr %0, align 8, !tbaa !74
  %4 = icmp slt i32 %1, 1
  br i1 %4, label %5, label %7

5:                                                ; preds = %2
  %6 = getelementptr inbounds %class.Array, ptr %0, i64 0, i32 2
  tail call void @llvm.memset.p0.i64(ptr noundef nonnull align 8 dereferenceable(16) %6, i8 0, i64 16, i1 false)
  br label %23

7:                                                ; preds = %2
  %8 = shl nuw i32 %1, 1
  %9 = load i32, ptr @programChecker, align 8, !tbaa !7
  %10 = add nsw i32 %9, %8
  store i32 %10, ptr @programChecker, align 8, !tbaa !7
  %11 = load i32, ptr getelementptr inbounds (%class.ProgramChecker, ptr @programChecker, i64 0, i32 1), align 4, !tbaa !13
  %12 = icmp sgt i32 %10, %11
  br i1 %12, label %13, label %14

13:                                               ; preds = %7
  store i32 %10, ptr getelementptr inbounds (%class.ProgramChecker, ptr @programChecker, i64 0, i32 1), align 4, !tbaa !13
  br label %14

14:                                               ; preds = %13, %7
  %15 = sext i32 %8 to i64
  %16 = tail call noalias ptr @calloc(i64 noundef %15, i64 noundef 1) #34
  %17 = getelementptr inbounds %class.Array, ptr %0, i64 0, i32 2
  store ptr %16, ptr %17, align 8, !tbaa !75
  %18 = icmp eq ptr %16, null
  br i1 %18, label %19, label %21

19:                                               ; preds = %14
  %20 = tail call ptr @__cxa_allocate_exception(i64 8) #33
  store ptr @.str.59, ptr %20, align 16, !tbaa !38
  tail call void @__cxa_throw(ptr nonnull %20, ptr nonnull @_ZTIPKc, ptr null) #35
  unreachable

21:                                               ; preds = %14
  %22 = getelementptr inbounds %class.Array, ptr %0, i64 0, i32 3
  store ptr %16, ptr %22, align 8, !tbaa !70
  br label %23

23:                                               ; preds = %21, %5
  ret void
}

; Function Attrs: nounwind optsize uwtable
define internal void @_ZN5ArrayItLi0EED2Ev(ptr noundef nonnull align 8 dereferenceable(24) %0) unnamed_addr #5 comdat align 2 {
  %2 = load i32, ptr %0, align 8, !tbaa !74
  %3 = load i32, ptr @programChecker, align 8, !tbaa !7
  %4 = shl i32 %2, 1
  %5 = sub i32 %3, %4
  store i32 %5, ptr @programChecker, align 8, !tbaa !7
  %6 = load i32, ptr getelementptr inbounds (%class.ProgramChecker, ptr @programChecker, i64 0, i32 1), align 4, !tbaa !13
  %7 = icmp sgt i32 %5, %6
  br i1 %7, label %8, label %9

8:                                                ; preds = %1
  store i32 %5, ptr getelementptr inbounds (%class.ProgramChecker, ptr @programChecker, i64 0, i32 1), align 4, !tbaa !13
  br label %9

9:                                                ; preds = %8, %1
  %10 = getelementptr inbounds %class.Array, ptr %0, i64 0, i32 2
  %11 = load ptr, ptr %10, align 8, !tbaa !75
  tail call void @free(ptr noundef %11) #31
  ret void
}

; Function Attrs: optsize uwtable
define internal void @_ZN8StateMapC2Ei(ptr noundef nonnull align 8 dereferenceable(32) %0, i32 noundef %1) unnamed_addr #0 align 2 personality ptr @__gxx_personality_v0 {
  store i32 %1, ptr %0, align 8, !tbaa !76
  %3 = getelementptr inbounds %class.APM1, ptr %0, i64 0, i32 1
  store i32 0, ptr %3, align 4, !tbaa !78
  %4 = getelementptr inbounds %class.APM1, ptr %0, i64 0, i32 2
  tail call void @_ZN5ArrayIjLi0EE6createEi(ptr noundef nonnull align 8 dereferenceable(24) %4, i32 noundef %1) #32
  %5 = load i32, ptr %0, align 8, !tbaa !76
  %6 = icmp sgt i32 %5, 0
  br i1 %6, label %7, label %10

7:                                                ; preds = %2
  %8 = getelementptr inbounds %class.APM1, ptr %0, i64 0, i32 2, i32 3
  %9 = load ptr, ptr %8, align 8, !tbaa !15
  br label %11

10:                                               ; preds = %11, %2
  ret void

11:                                               ; preds = %11, %7
  %12 = phi i64 [ 0, %7 ], [ %14, %11 ]
  %13 = getelementptr inbounds i32, ptr %9, i64 %12
  store i32 -2147483648, ptr %13, align 4, !tbaa !18
  %14 = add nuw nsw i64 %12, 1
  %15 = load i32, ptr %0, align 8, !tbaa !76
  %16 = sext i32 %15 to i64
  %17 = icmp slt i64 %14, %16
  br i1 %17, label %11, label %10, !llvm.loop !79
}

; Function Attrs: optsize uwtable
define internal void @_ZN3APMC2Ei(ptr noundef nonnull align 8 dereferenceable(32) %0, i32 noundef %1) unnamed_addr #0 align 2 personality ptr @__gxx_personality_v0 {
  %3 = mul nsw i32 %1, 24
  tail call void @_ZN8StateMapC2Ei(ptr noundef nonnull align 8 dereferenceable(32) %0, i32 noundef %3) #32
  %4 = load i32, ptr %0, align 8, !tbaa !76
  %5 = icmp sgt i32 %4, 0
  br i1 %5, label %6, label %9

6:                                                ; preds = %2
  %7 = getelementptr inbounds %class.APM1, ptr %0, i64 0, i32 2, i32 3
  %8 = load ptr, ptr %7, align 8, !tbaa !15
  br label %10

9:                                                ; preds = %10, %2
  ret void

10:                                               ; preds = %10, %6
  %11 = phi i64 [ 0, %6 ], [ %22, %10 ]
  %12 = trunc i64 %11 to i32
  %13 = urem i32 %12, 24
  %14 = shl nuw nsw i32 %13, 13
  %15 = or i32 %14, 4096
  %16 = udiv i32 %15, 48
  %17 = add nsw i32 %16, -2048
  %18 = tail call noundef i32 @_Z6squashi(i32 noundef %17) #32, !range !31
  %19 = shl i32 %18, 20
  %20 = or i32 %19, 6
  %21 = getelementptr inbounds i32, ptr %8, i64 %11
  store i32 %20, ptr %21, align 4, !tbaa !18
  %22 = add nuw nsw i64 %11, 1
  %23 = load i32, ptr %0, align 8, !tbaa !76
  %24 = sext i32 %23 to i64
  %25 = icmp slt i64 %22, %24
  br i1 %25, label %10, label %9, !llvm.loop !80
}

; Function Attrs: optsize uwtable
define internal void @_ZN10ContextMapC2Eii(ptr noundef nonnull align 8 dereferenceable(140) %0, i32 noundef %1, i32 noundef %2) unnamed_addr #0 align 2 personality ptr @__gxx_personality_v0 {
  store i32 %2, ptr %0, align 8, !tbaa !81
  %4 = getelementptr inbounds %class.ContextMap, ptr %0, i64 0, i32 2
  %5 = ashr i32 %1, 6
  tail call void @_ZN5ArrayIN10ContextMap1EELi64EE6createEi(ptr noundef nonnull align 8 dereferenceable(24) %4, i32 noundef %5) #32
  %6 = getelementptr inbounds %class.ContextMap, ptr %0, i64 0, i32 3
  invoke void @_ZN5ArrayIPhLi0EE6createEi(ptr noundef nonnull align 8 dereferenceable(24) %6, i32 noundef %2) #32
          to label %7 unwind label %45

7:                                                ; preds = %3
  %8 = getelementptr inbounds %class.ContextMap, ptr %0, i64 0, i32 4
  invoke void @_ZN5ArrayIPhLi0EE6createEi(ptr noundef nonnull align 8 dereferenceable(24) %8, i32 noundef %2) #32
          to label %9 unwind label %47

9:                                                ; preds = %7
  %10 = getelementptr inbounds %class.ContextMap, ptr %0, i64 0, i32 5
  invoke void @_ZN5ArrayIjLi0EE6createEi(ptr noundef nonnull align 8 dereferenceable(24) %10, i32 noundef %2) #32
          to label %11 unwind label %49

11:                                               ; preds = %9
  %12 = getelementptr inbounds %class.ContextMap, ptr %0, i64 0, i32 6
  invoke void @_ZN5ArrayIPhLi0EE6createEi(ptr noundef nonnull align 8 dereferenceable(24) %12, i32 noundef %2) #32
          to label %13 unwind label %51

13:                                               ; preds = %11
  %14 = getelementptr inbounds %class.ContextMap, ptr %0, i64 0, i32 8
  store i32 0, ptr %14, align 8, !tbaa !85
  %15 = load i32, ptr %0, align 8, !tbaa !81
  %16 = sext i32 %15 to i64
  %17 = icmp slt i32 %15, 0
  %18 = shl nsw i64 %16, 5
  %19 = or i64 %18, 8
  %20 = select i1 %17, i64 -1, i64 %19
  %21 = invoke noalias noundef nonnull ptr @_Znam(i64 noundef %20) #37
          to label %22 unwind label %53

22:                                               ; preds = %13
  store i64 %16, ptr %21, align 16
  %23 = getelementptr inbounds i8, ptr %21, i64 8
  %24 = icmp eq i32 %15, 0
  br i1 %24, label %25, label %27

25:                                               ; preds = %22
  %26 = getelementptr inbounds %class.ContextMap, ptr %0, i64 0, i32 7
  store ptr %23, ptr %26, align 8, !tbaa !86
  br label %44

27:                                               ; preds = %22
  %28 = getelementptr inbounds %class.APM1, ptr %23, i64 %16
  br label %29

29:                                               ; preds = %31, %27
  %30 = phi ptr [ %23, %27 ], [ %32, %31 ]
  invoke void @_ZN8StateMapC2Ei(ptr noundef nonnull align 8 dereferenceable(32) %30, i32 noundef 256) #32
          to label %31 unwind label %55

31:                                               ; preds = %29
  %32 = getelementptr inbounds %class.APM1, ptr %30, i64 1
  %33 = icmp eq ptr %32, %28
  br i1 %33, label %34, label %29

34:                                               ; preds = %31
  %35 = load i32, ptr %0, align 8, !tbaa !81
  %36 = getelementptr inbounds %class.ContextMap, ptr %0, i64 0, i32 7
  store ptr %23, ptr %36, align 8, !tbaa !86
  %37 = icmp sgt i32 %35, 0
  br i1 %37, label %38, label %44

38:                                               ; preds = %34
  %39 = getelementptr inbounds %class.ContextMap, ptr %0, i64 0, i32 2, i32 3
  %40 = getelementptr inbounds %class.ContextMap, ptr %0, i64 0, i32 3, i32 3
  %41 = getelementptr inbounds %class.ContextMap, ptr %0, i64 0, i32 4, i32 3
  %42 = getelementptr inbounds %class.ContextMap, ptr %0, i64 0, i32 6, i32 3
  %43 = zext i32 %35 to i64
  br label %64

44:                                               ; preds = %64, %34, %25
  ret void

45:                                               ; preds = %3
  %46 = landingpad { ptr, i32 }
          cleanup
  br label %88

47:                                               ; preds = %7
  %48 = landingpad { ptr, i32 }
          cleanup
  br label %86

49:                                               ; preds = %9
  %50 = landingpad { ptr, i32 }
          cleanup
  br label %84

51:                                               ; preds = %11
  %52 = landingpad { ptr, i32 }
          cleanup
  br label %82

53:                                               ; preds = %13
  %54 = landingpad { ptr, i32 }
          cleanup
  br label %80

55:                                               ; preds = %29
  %.lcssa = phi ptr [ %30, %29 ]
  %56 = landingpad { ptr, i32 }
          cleanup
  %57 = icmp eq ptr %23, %.lcssa
  br i1 %57, label %63, label %58

58:                                               ; preds = %58, %55
  %59 = phi ptr [ %60, %58 ], [ %.lcssa, %55 ]
  %60 = getelementptr inbounds %class.APM1, ptr %59, i64 -1
  %61 = getelementptr %class.APM1, ptr %59, i64 -1, i32 2
  tail call void @_ZN5ArrayIjLi0EED2Ev(ptr noundef nonnull align 8 dereferenceable(24) %61) #31
  %62 = icmp eq ptr %60, %23
  br i1 %62, label %63, label %58

63:                                               ; preds = %58, %55
  tail call void @_ZdaPv(ptr noundef nonnull %21) #36
  br label %80

64:                                               ; preds = %64, %38
  %65 = phi i64 [ 0, %38 ], [ %78, %64 ]
  %66 = load ptr, ptr %39, align 8, !tbaa !87
  %67 = getelementptr inbounds %"class.ContextMap::E", ptr %66, i64 0, i32 2
  %68 = load ptr, ptr %40, align 8, !tbaa !88
  %69 = getelementptr inbounds ptr, ptr %68, i64 %65
  store ptr %67, ptr %69, align 8, !tbaa !38
  %70 = load ptr, ptr %41, align 8, !tbaa !88
  %71 = getelementptr inbounds ptr, ptr %70, i64 %65
  store ptr %67, ptr %71, align 8, !tbaa !38
  %72 = load ptr, ptr %40, align 8, !tbaa !88
  %73 = getelementptr inbounds ptr, ptr %72, i64 %65
  %74 = load ptr, ptr %73, align 8, !tbaa !38
  %75 = getelementptr inbounds i8, ptr %74, i64 3
  %76 = load ptr, ptr %42, align 8, !tbaa !88
  %77 = getelementptr inbounds ptr, ptr %76, i64 %65
  store ptr %75, ptr %77, align 8, !tbaa !38
  %78 = add nuw nsw i64 %65, 1
  %79 = icmp eq i64 %78, %43
  br i1 %79, label %44, label %64, !llvm.loop !89

80:                                               ; preds = %63, %53
  %81 = phi { ptr, i32 } [ %56, %63 ], [ %54, %53 ]
  tail call void @_ZN5ArrayIPhLi0EED2Ev(ptr noundef nonnull align 8 dereferenceable(24) %12) #31
  br label %82

82:                                               ; preds = %80, %51
  %83 = phi { ptr, i32 } [ %81, %80 ], [ %52, %51 ]
  tail call void @_ZN5ArrayIjLi0EED2Ev(ptr noundef nonnull align 8 dereferenceable(24) %10) #31
  br label %84

84:                                               ; preds = %82, %49
  %85 = phi { ptr, i32 } [ %83, %82 ], [ %50, %49 ]
  tail call void @_ZN5ArrayIPhLi0EED2Ev(ptr noundef nonnull align 8 dereferenceable(24) %8) #31
  br label %86

86:                                               ; preds = %84, %47
  %87 = phi { ptr, i32 } [ %85, %84 ], [ %48, %47 ]
  tail call void @_ZN5ArrayIPhLi0EED2Ev(ptr noundef nonnull align 8 dereferenceable(24) %6) #31
  br label %88

88:                                               ; preds = %86, %45
  %89 = phi { ptr, i32 } [ %87, %86 ], [ %46, %45 ]
  tail call void @_ZN5ArrayIN10ContextMap1EELi64EED2Ev(ptr noundef nonnull align 8 dereferenceable(24) %4) #31
  resume { ptr, i32 } %89
}

; Function Attrs: mustprogress optsize uwtable
define internal void @_ZN5ArrayIN10ContextMap1EELi64EE6createEi(ptr noundef nonnull align 8 dereferenceable(24) %0, i32 noundef %1) #7 comdat align 2 {
  %3 = getelementptr inbounds %class.Array, ptr %0, i64 0, i32 1
  store i32 %1, ptr %3, align 4, !tbaa !90
  store i32 %1, ptr %0, align 8, !tbaa !91
  %4 = icmp slt i32 %1, 1
  br i1 %4, label %5, label %7

5:                                                ; preds = %2
  %6 = getelementptr inbounds %class.Array, ptr %0, i64 0, i32 2
  tail call void @llvm.memset.p0.i64(ptr noundef nonnull align 8 dereferenceable(16) %6, i8 0, i64 16, i1 false)
  br label %29

7:                                                ; preds = %2
  %8 = shl i32 %1, 6
  %9 = add i32 %8, 64
  %10 = load i32, ptr @programChecker, align 8, !tbaa !7
  %11 = add nsw i32 %10, %9
  store i32 %11, ptr @programChecker, align 8, !tbaa !7
  %12 = load i32, ptr getelementptr inbounds (%class.ProgramChecker, ptr @programChecker, i64 0, i32 1), align 4, !tbaa !13
  %13 = icmp sgt i32 %11, %12
  br i1 %13, label %14, label %15

14:                                               ; preds = %7
  store i32 %11, ptr getelementptr inbounds (%class.ProgramChecker, ptr @programChecker, i64 0, i32 1), align 4, !tbaa !13
  br label %15

15:                                               ; preds = %14, %7
  %16 = sext i32 %9 to i64
  %17 = tail call noalias ptr @calloc(i64 noundef %16, i64 noundef 1) #34
  %18 = getelementptr inbounds %class.Array, ptr %0, i64 0, i32 2
  store ptr %17, ptr %18, align 8, !tbaa !92
  %19 = icmp eq ptr %17, null
  br i1 %19, label %20, label %22

20:                                               ; preds = %15
  %21 = tail call ptr @__cxa_allocate_exception(i64 8) #33
  store ptr @.str.59, ptr %21, align 16, !tbaa !38
  tail call void @__cxa_throw(ptr nonnull %21, ptr nonnull @_ZTIPKc, ptr null) #35
  unreachable

22:                                               ; preds = %15
  %23 = getelementptr inbounds i8, ptr %17, i64 64
  %24 = ptrtoint ptr %17 to i64
  %25 = and i64 %24, 63
  %26 = sub nsw i64 0, %25
  %27 = getelementptr inbounds i8, ptr %23, i64 %26
  %28 = getelementptr inbounds %class.Array, ptr %0, i64 0, i32 3
  store ptr %27, ptr %28, align 8, !tbaa !87
  br label %29

29:                                               ; preds = %22, %5
  ret void
}

; Function Attrs: mustprogress optsize uwtable
define internal void @_ZN5ArrayIPhLi0EE6createEi(ptr noundef nonnull align 8 dereferenceable(24) %0, i32 noundef %1) #7 comdat align 2 {
  %3 = getelementptr inbounds %class.Array, ptr %0, i64 0, i32 1
  store i32 %1, ptr %3, align 4, !tbaa !93
  store i32 %1, ptr %0, align 8, !tbaa !94
  %4 = icmp slt i32 %1, 1
  br i1 %4, label %5, label %7

5:                                                ; preds = %2
  %6 = getelementptr inbounds %class.Array, ptr %0, i64 0, i32 2
  tail call void @llvm.memset.p0.i64(ptr noundef nonnull align 8 dereferenceable(16) %6, i8 0, i64 16, i1 false)
  br label %23

7:                                                ; preds = %2
  %8 = shl i32 %1, 3
  %9 = load i32, ptr @programChecker, align 8, !tbaa !7
  %10 = add nsw i32 %9, %8
  store i32 %10, ptr @programChecker, align 8, !tbaa !7
  %11 = load i32, ptr getelementptr inbounds (%class.ProgramChecker, ptr @programChecker, i64 0, i32 1), align 4, !tbaa !13
  %12 = icmp sgt i32 %10, %11
  br i1 %12, label %13, label %14

13:                                               ; preds = %7
  store i32 %10, ptr getelementptr inbounds (%class.ProgramChecker, ptr @programChecker, i64 0, i32 1), align 4, !tbaa !13
  br label %14

14:                                               ; preds = %13, %7
  %15 = sext i32 %8 to i64
  %16 = tail call noalias ptr @calloc(i64 noundef %15, i64 noundef 1) #34
  %17 = getelementptr inbounds %class.Array, ptr %0, i64 0, i32 2
  store ptr %16, ptr %17, align 8, !tbaa !95
  %18 = icmp eq ptr %16, null
  br i1 %18, label %19, label %21

19:                                               ; preds = %14
  %20 = tail call ptr @__cxa_allocate_exception(i64 8) #33
  store ptr @.str.59, ptr %20, align 16, !tbaa !38
  tail call void @__cxa_throw(ptr nonnull %20, ptr nonnull @_ZTIPKc, ptr null) #35
  unreachable

21:                                               ; preds = %14
  %22 = getelementptr inbounds %class.Array, ptr %0, i64 0, i32 3
  store ptr %16, ptr %22, align 8, !tbaa !88
  br label %23

23:                                               ; preds = %21, %5
  ret void
}

; Function Attrs: nobuiltin optsize allocsize(0)
declare noundef nonnull ptr @_Znam(i64 noundef) local_unnamed_addr #13

; Function Attrs: nobuiltin nounwind optsize
declare void @_ZdaPv(ptr noundef) local_unnamed_addr #12

; Function Attrs: nounwind optsize uwtable
define internal void @_ZN5ArrayIPhLi0EED2Ev(ptr noundef nonnull align 8 dereferenceable(24) %0) unnamed_addr #5 comdat align 2 {
  %2 = load i32, ptr %0, align 8, !tbaa !94
  %3 = load i32, ptr @programChecker, align 8, !tbaa !7
  %4 = shl i32 %2, 3
  %5 = sub i32 %3, %4
  store i32 %5, ptr @programChecker, align 8, !tbaa !7
  %6 = load i32, ptr getelementptr inbounds (%class.ProgramChecker, ptr @programChecker, i64 0, i32 1), align 4, !tbaa !13
  %7 = icmp sgt i32 %5, %6
  br i1 %7, label %8, label %9

8:                                                ; preds = %1
  store i32 %5, ptr getelementptr inbounds (%class.ProgramChecker, ptr @programChecker, i64 0, i32 1), align 4, !tbaa !13
  br label %9

9:                                                ; preds = %8, %1
  %10 = getelementptr inbounds %class.Array, ptr %0, i64 0, i32 2
  %11 = load ptr, ptr %10, align 8, !tbaa !95
  tail call void @free(ptr noundef %11) #31
  ret void
}

; Function Attrs: nounwind optsize uwtable
define internal void @_ZN5ArrayIN10ContextMap1EELi64EED2Ev(ptr noundef nonnull align 8 dereferenceable(24) %0) unnamed_addr #5 comdat align 2 {
  %2 = load i32, ptr %0, align 8, !tbaa !91
  %3 = shl i32 %2, 6
  %4 = load i32, ptr @programChecker, align 8, !tbaa !7
  %5 = sub i32 %4, %3
  %6 = add i32 %5, -64
  store i32 %6, ptr @programChecker, align 8, !tbaa !7
  %7 = load i32, ptr getelementptr inbounds (%class.ProgramChecker, ptr @programChecker, i64 0, i32 1), align 4, !tbaa !13
  %8 = icmp sgt i32 %6, %7
  br i1 %8, label %9, label %10

9:                                                ; preds = %1
  store i32 %6, ptr getelementptr inbounds (%class.ProgramChecker, ptr @programChecker, i64 0, i32 1), align 4, !tbaa !13
  br label %10

10:                                               ; preds = %9, %1
  %11 = getelementptr inbounds %class.Array, ptr %0, i64 0, i32 2
  %12 = load ptr, ptr %11, align 8, !tbaa !92
  tail call void @free(ptr noundef %12) #31
  ret void
}

; Function Attrs: nounwind optsize uwtable
define internal void @_ZN10ContextMapD2Ev(ptr noundef nonnull align 8 dereferenceable(140) %0) unnamed_addr #5 align 2 {
  %2 = getelementptr inbounds %class.ContextMap, ptr %0, i64 0, i32 7
  %3 = load ptr, ptr %2, align 8, !tbaa !86
  %4 = icmp eq ptr %3, null
  br i1 %4, label %17, label %5

5:                                                ; preds = %1
  %6 = getelementptr inbounds i8, ptr %3, i64 -8
  %7 = load i64, ptr %6, align 8
  %8 = icmp eq i64 %7, 0
  br i1 %8, label %16, label %9

9:                                                ; preds = %5
  %10 = getelementptr inbounds %class.APM1, ptr %3, i64 %7
  br label %11

11:                                               ; preds = %11, %9
  %12 = phi ptr [ %13, %11 ], [ %10, %9 ]
  %13 = getelementptr inbounds %class.APM1, ptr %12, i64 -1
  %14 = getelementptr %class.APM1, ptr %12, i64 -1, i32 2
  tail call void @_ZN5ArrayIjLi0EED2Ev(ptr noundef nonnull align 8 dereferenceable(24) %14) #31
  %15 = icmp eq ptr %13, %3
  br i1 %15, label %16, label %11

16:                                               ; preds = %11, %5
  tail call void @_ZdaPv(ptr noundef nonnull %6) #36
  br label %17

17:                                               ; preds = %16, %1
  %18 = getelementptr inbounds %class.ContextMap, ptr %0, i64 0, i32 6
  tail call void @_ZN5ArrayIPhLi0EED2Ev(ptr noundef nonnull align 8 dereferenceable(24) %18) #31
  %19 = getelementptr inbounds %class.ContextMap, ptr %0, i64 0, i32 5
  tail call void @_ZN5ArrayIjLi0EED2Ev(ptr noundef nonnull align 8 dereferenceable(24) %19) #31
  %20 = getelementptr inbounds %class.ContextMap, ptr %0, i64 0, i32 4
  tail call void @_ZN5ArrayIPhLi0EED2Ev(ptr noundef nonnull align 8 dereferenceable(24) %20) #31
  %21 = getelementptr inbounds %class.ContextMap, ptr %0, i64 0, i32 3
  tail call void @_ZN5ArrayIPhLi0EED2Ev(ptr noundef nonnull align 8 dereferenceable(24) %21) #31
  %22 = getelementptr inbounds %class.ContextMap, ptr %0, i64 0, i32 2
  tail call void @_ZN5ArrayIN10ContextMap1EELi64EED2Ev(ptr noundef nonnull align 8 dereferenceable(24) %22) #31
  ret void
}

; Function Attrs: mustprogress optsize uwtable
define internal noundef i32 @_ZN10ContextMap4mix1ER5Mixeriiii(ptr nocapture noundef nonnull align 8 dereferenceable(140) %0, ptr nocapture noundef nonnull align 8 dereferenceable(136) %1, i32 noundef %2, i32 noundef %3, i32 noundef %4, i32 noundef %5) #7 align 2 {
  %7 = getelementptr inbounds %class.ContextMap, ptr %0, i64 0, i32 8
  %8 = load i32, ptr %7, align 8, !tbaa !85
  %9 = icmp sgt i32 %8, 0
  br i1 %9, label %10, label %28

10:                                               ; preds = %6
  %11 = getelementptr inbounds %class.ContextMap, ptr %0, i64 0, i32 3, i32 3
  %12 = sext i32 %5 to i64
  %13 = getelementptr inbounds %class.ContextMap, ptr %0, i64 0, i32 6, i32 3
  %14 = getelementptr inbounds %class.ContextMap, ptr %0, i64 0, i32 2
  %15 = getelementptr inbounds %class.ContextMap, ptr %0, i64 0, i32 5, i32 3
  %16 = getelementptr inbounds %class.ContextMap, ptr %0, i64 0, i32 2, i32 3
  %17 = getelementptr inbounds %class.ContextMap, ptr %0, i64 0, i32 4, i32 3
  %18 = and i32 %2, 3
  %19 = zext i32 %18 to i64
  %20 = and i32 %2, 1
  %21 = zext i32 %20 to i64
  %22 = trunc i32 %4 to i8
  %23 = sub nsw i32 8, %3
  %24 = getelementptr inbounds %class.Mixer, ptr %1, i64 0, i32 8
  %25 = getelementptr inbounds %class.Mixer, ptr %1, i64 0, i32 3, i32 3
  %26 = sub nsw i32 7, %3
  %27 = getelementptr inbounds %class.ContextMap, ptr %0, i64 0, i32 7
  br label %31

28:                                               ; preds = %583, %6
  %29 = phi i32 [ 0, %6 ], [ %584, %583 ]
  %30 = icmp eq i32 %3, 7
  br i1 %30, label %589, label %590

31:                                               ; preds = %583, %10
  %32 = phi i64 [ 0, %10 ], [ %585, %583 ]
  %33 = phi i32 [ 0, %10 ], [ %584, %583 ]
  %34 = load ptr, ptr %11, align 8, !tbaa !88
  %35 = getelementptr inbounds ptr, ptr %34, i64 %32
  %36 = load ptr, ptr %35, align 8, !tbaa !38
  %37 = icmp eq ptr %36, null
  br i1 %37, label %71, label %38

38:                                               ; preds = %31
  %39 = load i8, ptr %36, align 1, !tbaa !27
  %40 = zext i8 %39 to i64
  %41 = getelementptr inbounds [256 x [4 x i8]], ptr @_ZL11State_table, i64 0, i64 %40, i64 %12
  %42 = load i8, ptr %41, align 1, !tbaa !27
  %43 = icmp ugt i8 %42, -53
  br i1 %43, label %44, label %69

44:                                               ; preds = %38
  %45 = zext i8 %42 to i32
  %46 = load i32, ptr getelementptr inbounds (%class.Random, ptr @rnd, i64 0, i32 1), align 8, !tbaa !19
  %47 = add nsw i32 %46, 1
  store i32 %47, ptr getelementptr inbounds (%class.Random, ptr @rnd, i64 0, i32 1), align 8, !tbaa !19
  %48 = add i32 %46, 41
  %49 = and i32 %48, 63
  %50 = load ptr, ptr getelementptr inbounds (%class.Random, ptr @rnd, i64 0, i32 0, i32 3), align 8, !tbaa !15
  %51 = zext i32 %49 to i64
  %52 = getelementptr inbounds i32, ptr %50, i64 %51
  %53 = load i32, ptr %52, align 4, !tbaa !18
  %54 = add i32 %46, 10
  %55 = and i32 %54, 63
  %56 = zext i32 %55 to i64
  %57 = getelementptr inbounds i32, ptr %50, i64 %56
  %58 = load i32, ptr %57, align 4, !tbaa !18
  %59 = xor i32 %58, %53
  %60 = and i32 %47, 63
  %61 = zext i32 %60 to i64
  %62 = getelementptr inbounds i32, ptr %50, i64 %61
  store i32 %59, ptr %62, align 4, !tbaa !18
  %63 = sub nuw nsw i32 452, %45
  %64 = lshr i32 %63, 3
  %65 = shl i32 %59, %64
  %66 = icmp eq i32 %65, 0
  %67 = add nsw i8 %42, -4
  %68 = select i1 %66, i8 %42, i8 %67
  br label %69

69:                                               ; preds = %44, %38
  %70 = phi i8 [ %42, %38 ], [ %68, %44 ]
  store i8 %70, ptr %36, align 1, !tbaa !27
  br label %71

71:                                               ; preds = %69, %31
  %72 = load i32, ptr @bpos, align 4, !tbaa !18
  %73 = icmp sgt i32 %72, 1
  br i1 %73, label %74, label %80

74:                                               ; preds = %71
  %75 = load ptr, ptr %13, align 8, !tbaa !88
  %76 = getelementptr inbounds ptr, ptr %75, i64 %32
  %77 = load ptr, ptr %76, align 8, !tbaa !38
  %78 = load i8, ptr %77, align 1, !tbaa !27
  %79 = icmp eq i8 %78, 0
  br i1 %79, label %440, label %80

80:                                               ; preds = %74, %71
  switch i32 %72, label %160 [
    i32 1, label %81
    i32 3, label %81
    i32 6, label %81
    i32 4, label %87
    i32 7, label %87
    i32 2, label %93
    i32 5, label %93
  ]

81:                                               ; preds = %80, %80, %80
  %82 = load ptr, ptr %17, align 8, !tbaa !88
  %83 = getelementptr inbounds ptr, ptr %82, i64 %32
  %84 = load ptr, ptr %83, align 8, !tbaa !38
  %85 = getelementptr inbounds i8, ptr %84, i64 1
  %86 = getelementptr inbounds i8, ptr %85, i64 %21
  br label %440

87:                                               ; preds = %80, %80
  %88 = load ptr, ptr %17, align 8, !tbaa !88
  %89 = getelementptr inbounds ptr, ptr %88, i64 %32
  %90 = load ptr, ptr %89, align 8, !tbaa !38
  %91 = getelementptr inbounds i8, ptr %90, i64 3
  %92 = getelementptr inbounds i8, ptr %91, i64 %19
  br label %440

93:                                               ; preds = %80, %80
  %94 = load ptr, ptr %15, align 8, !tbaa !15
  %95 = getelementptr inbounds i32, ptr %94, i64 %32
  %96 = load i32, ptr %95, align 4, !tbaa !18
  %97 = add i32 %96, %2
  %98 = load i32, ptr %14, align 8, !tbaa !91
  %99 = add nsw i32 %98, -1
  %100 = and i32 %99, %97
  %101 = load ptr, ptr %16, align 8, !tbaa !87
  %102 = sext i32 %100 to i64
  %103 = getelementptr inbounds %"class.ContextMap::E", ptr %101, i64 %102
  %104 = lshr i32 %96, 16
  %105 = trunc i32 %104 to i16
  %106 = getelementptr inbounds %"class.ContextMap::E", ptr %101, i64 %102, i32 1
  %107 = load i8, ptr %106, align 2, !tbaa !96
  %108 = and i8 %107, 15
  %109 = zext i8 %108 to i64
  %110 = getelementptr inbounds [7 x i16], ptr %103, i64 0, i64 %109
  %111 = load i16, ptr %110, align 2, !tbaa !29
  %112 = icmp eq i16 %111, %105
  br i1 %112, label %119, label %113

113:                                              ; preds = %93
  %114 = zext i8 %107 to i32
  %115 = and i32 %114, 15
  %116 = lshr i32 %114, 4
  %117 = zext i32 %116 to i64
  %118 = zext i32 %115 to i64
  br label %121

119:                                              ; preds = %93
  %120 = getelementptr inbounds %"class.ContextMap::E", ptr %101, i64 %102, i32 2, i64 %109
  br label %156

121:                                              ; preds = %140, %113
  %122 = phi i64 [ 0, %113 ], [ %143, %140 ]
  %123 = phi i32 [ 0, %113 ], [ %142, %140 ]
  %124 = phi i32 [ 65535, %113 ], [ %141, %140 ]
  %125 = getelementptr inbounds [7 x i16], ptr %103, i64 0, i64 %122
  %126 = load i16, ptr %125, align 2, !tbaa !29
  %127 = icmp eq i16 %126, %105
  br i1 %127, label %145, label %128

128:                                              ; preds = %121
  %129 = getelementptr inbounds %"class.ContextMap::E", ptr %101, i64 %102, i32 2, i64 %122
  %130 = load i8, ptr %129, align 1, !tbaa !27
  %131 = zext i8 %130 to i32
  %132 = icmp sgt i32 %124, %131
  br i1 %132, label %133, label %140

133:                                              ; preds = %128
  %134 = icmp eq i64 %122, %118
  %135 = icmp eq i64 %122, %117
  %136 = or i1 %134, %135
  %137 = select i1 %136, i32 %124, i32 %131
  %138 = trunc i64 %122 to i32
  %139 = select i1 %136, i32 %123, i32 %138
  br label %140

140:                                              ; preds = %133, %128
  %141 = phi i32 [ %124, %128 ], [ %137, %133 ]
  %142 = phi i32 [ %123, %128 ], [ %139, %133 ]
  %143 = add nuw nsw i64 %122, 1
  %144 = icmp eq i64 %143, 7
  br i1 %144, label %150, label %121, !llvm.loop !98

145:                                              ; preds = %121
  %.lcssa = phi i64 [ %122, %121 ]
  %146 = trunc i64 %.lcssa to i8
  %147 = shl i8 %107, 4
  %148 = or i8 %147, %146
  store i8 %148, ptr %106, align 2, !tbaa !96
  %149 = getelementptr inbounds %"class.ContextMap::E", ptr %101, i64 %102, i32 2, i64 %.lcssa
  br label %156

150:                                              ; preds = %140
  %.lcssa2 = phi i32 [ %142, %140 ]
  %151 = trunc i32 %.lcssa2 to i8
  %152 = or i8 %151, -16
  store i8 %152, ptr %106, align 2, !tbaa !96
  %153 = sext i32 %.lcssa2 to i64
  %154 = getelementptr inbounds [7 x i16], ptr %103, i64 0, i64 %153
  store i16 %105, ptr %154, align 2, !tbaa !29
  %155 = getelementptr inbounds %"class.ContextMap::E", ptr %101, i64 %102, i32 2, i64 %153
  tail call void @llvm.memset.p0.i64(ptr noundef nonnull align 1 dereferenceable(7) %155, i8 0, i64 7, i1 false)
  br label %156

156:                                              ; preds = %150, %145, %119
  %157 = phi ptr [ %120, %119 ], [ %155, %150 ], [ %149, %145 ]
  %158 = load ptr, ptr %11, align 8, !tbaa !88
  %159 = getelementptr inbounds ptr, ptr %158, i64 %32
  store ptr %157, ptr %159, align 8, !tbaa !38
  br label %440

160:                                              ; preds = %80
  %161 = load ptr, ptr %15, align 8, !tbaa !15
  %162 = getelementptr inbounds i32, ptr %161, i64 %32
  %163 = load i32, ptr %162, align 4, !tbaa !18
  %164 = add i32 %163, %2
  %165 = load i32, ptr %14, align 8, !tbaa !91
  %166 = add nsw i32 %165, -1
  %167 = and i32 %166, %164
  %168 = load ptr, ptr %16, align 8, !tbaa !87
  %169 = sext i32 %167 to i64
  %170 = getelementptr inbounds %"class.ContextMap::E", ptr %168, i64 %169
  %171 = lshr i32 %163, 16
  %172 = trunc i32 %171 to i16
  %173 = getelementptr inbounds %"class.ContextMap::E", ptr %168, i64 %169, i32 1
  %174 = load i8, ptr %173, align 2, !tbaa !96
  %175 = and i8 %174, 15
  %176 = zext i8 %175 to i64
  %177 = getelementptr inbounds [7 x i16], ptr %170, i64 0, i64 %176
  %178 = load i16, ptr %177, align 2, !tbaa !29
  %179 = icmp eq i16 %178, %172
  br i1 %179, label %186, label %180

180:                                              ; preds = %160
  %181 = zext i8 %174 to i32
  %182 = and i32 %181, 15
  %183 = lshr i32 %181, 4
  %184 = zext i32 %183 to i64
  %185 = zext i32 %182 to i64
  br label %188

186:                                              ; preds = %160
  %187 = getelementptr inbounds %"class.ContextMap::E", ptr %168, i64 %169, i32 2, i64 %176
  br label %223

188:                                              ; preds = %207, %180
  %189 = phi i64 [ 0, %180 ], [ %210, %207 ]
  %190 = phi i32 [ 0, %180 ], [ %209, %207 ]
  %191 = phi i32 [ 65535, %180 ], [ %208, %207 ]
  %192 = getelementptr inbounds [7 x i16], ptr %170, i64 0, i64 %189
  %193 = load i16, ptr %192, align 2, !tbaa !29
  %194 = icmp eq i16 %193, %172
  br i1 %194, label %212, label %195

195:                                              ; preds = %188
  %196 = getelementptr inbounds %"class.ContextMap::E", ptr %168, i64 %169, i32 2, i64 %189
  %197 = load i8, ptr %196, align 1, !tbaa !27
  %198 = zext i8 %197 to i32
  %199 = icmp sgt i32 %191, %198
  br i1 %199, label %200, label %207

200:                                              ; preds = %195
  %201 = icmp eq i64 %189, %185
  %202 = icmp eq i64 %189, %184
  %203 = or i1 %201, %202
  %204 = select i1 %203, i32 %191, i32 %198
  %205 = trunc i64 %189 to i32
  %206 = select i1 %203, i32 %190, i32 %205
  br label %207

207:                                              ; preds = %200, %195
  %208 = phi i32 [ %191, %195 ], [ %204, %200 ]
  %209 = phi i32 [ %190, %195 ], [ %206, %200 ]
  %210 = add nuw nsw i64 %189, 1
  %211 = icmp eq i64 %210, 7
  br i1 %211, label %217, label %188, !llvm.loop !98

212:                                              ; preds = %188
  %.lcssa3 = phi i64 [ %189, %188 ]
  %213 = trunc i64 %.lcssa3 to i8
  %214 = shl i8 %174, 4
  %215 = or i8 %214, %213
  store i8 %215, ptr %173, align 2, !tbaa !96
  %216 = getelementptr inbounds %"class.ContextMap::E", ptr %168, i64 %169, i32 2, i64 %.lcssa3
  br label %223

217:                                              ; preds = %207
  %.lcssa5 = phi i32 [ %209, %207 ]
  %218 = trunc i32 %.lcssa5 to i8
  %219 = or i8 %218, -16
  store i8 %219, ptr %173, align 2, !tbaa !96
  %220 = sext i32 %.lcssa5 to i64
  %221 = getelementptr inbounds [7 x i16], ptr %170, i64 0, i64 %220
  store i16 %172, ptr %221, align 2, !tbaa !29
  %222 = getelementptr inbounds %"class.ContextMap::E", ptr %168, i64 %169, i32 2, i64 %220
  tail call void @llvm.memset.p0.i64(ptr noundef nonnull align 1 dereferenceable(7) %222, i8 0, i64 7, i1 false)
  br label %223

223:                                              ; preds = %217, %212, %186
  %224 = phi ptr [ %187, %186 ], [ %222, %217 ], [ %216, %212 ]
  %225 = load ptr, ptr %11, align 8, !tbaa !88
  %226 = getelementptr inbounds ptr, ptr %225, i64 %32
  store ptr %224, ptr %226, align 8, !tbaa !38
  %227 = load ptr, ptr %17, align 8, !tbaa !88
  %228 = getelementptr inbounds ptr, ptr %227, i64 %32
  store ptr %224, ptr %228, align 8, !tbaa !38
  %229 = load ptr, ptr %17, align 8, !tbaa !88
  %230 = getelementptr inbounds ptr, ptr %229, i64 %32
  %231 = load ptr, ptr %230, align 8, !tbaa !38
  %232 = getelementptr inbounds i8, ptr %231, i64 3
  %233 = load i8, ptr %232, align 1, !tbaa !27
  %234 = icmp eq i8 %233, 2
  br i1 %234, label %235, label %407

235:                                              ; preds = %223
  %236 = getelementptr inbounds i8, ptr %231, i64 4
  %237 = load i8, ptr %236, align 1, !tbaa !27
  %238 = zext i8 %237 to i32
  %239 = or i32 %238, 256
  %240 = load ptr, ptr %15, align 8, !tbaa !15
  %241 = getelementptr inbounds i32, ptr %240, i64 %32
  %242 = load i32, ptr %241, align 4, !tbaa !18
  %243 = lshr i32 %239, 6
  %244 = add i32 %243, %242
  %245 = load i32, ptr %14, align 8, !tbaa !91
  %246 = add nsw i32 %245, -1
  %247 = and i32 %244, %246
  %248 = load ptr, ptr %16, align 8, !tbaa !87
  %249 = sext i32 %247 to i64
  %250 = getelementptr inbounds %"class.ContextMap::E", ptr %248, i64 %249
  %251 = lshr i32 %242, 16
  %252 = trunc i32 %251 to i16
  %253 = getelementptr inbounds %"class.ContextMap::E", ptr %248, i64 %249, i32 1
  %254 = load i8, ptr %253, align 2, !tbaa !96
  %255 = and i8 %254, 15
  %256 = zext i8 %255 to i64
  %257 = getelementptr inbounds [7 x i16], ptr %250, i64 0, i64 %256
  %258 = load i16, ptr %257, align 2, !tbaa !29
  %259 = icmp eq i16 %258, %252
  br i1 %259, label %266, label %260

260:                                              ; preds = %235
  %261 = zext i8 %254 to i32
  %262 = and i32 %261, 15
  %263 = lshr i32 %261, 4
  %264 = zext i32 %263 to i64
  %265 = zext i32 %262 to i64
  br label %268

266:                                              ; preds = %235
  %267 = getelementptr inbounds %"class.ContextMap::E", ptr %248, i64 %249, i32 2, i64 %256
  br label %303

268:                                              ; preds = %287, %260
  %269 = phi i64 [ 0, %260 ], [ %290, %287 ]
  %270 = phi i32 [ 0, %260 ], [ %289, %287 ]
  %271 = phi i32 [ 65535, %260 ], [ %288, %287 ]
  %272 = getelementptr inbounds [7 x i16], ptr %250, i64 0, i64 %269
  %273 = load i16, ptr %272, align 2, !tbaa !29
  %274 = icmp eq i16 %273, %252
  br i1 %274, label %292, label %275

275:                                              ; preds = %268
  %276 = getelementptr inbounds %"class.ContextMap::E", ptr %248, i64 %249, i32 2, i64 %269
  %277 = load i8, ptr %276, align 1, !tbaa !27
  %278 = zext i8 %277 to i32
  %279 = icmp sgt i32 %271, %278
  br i1 %279, label %280, label %287

280:                                              ; preds = %275
  %281 = icmp eq i64 %269, %265
  %282 = icmp eq i64 %269, %264
  %283 = or i1 %281, %282
  %284 = select i1 %283, i32 %271, i32 %278
  %285 = trunc i64 %269 to i32
  %286 = select i1 %283, i32 %270, i32 %285
  br label %287

287:                                              ; preds = %280, %275
  %288 = phi i32 [ %271, %275 ], [ %284, %280 ]
  %289 = phi i32 [ %270, %275 ], [ %286, %280 ]
  %290 = add nuw nsw i64 %269, 1
  %291 = icmp eq i64 %290, 7
  br i1 %291, label %297, label %268, !llvm.loop !98

292:                                              ; preds = %268
  %.lcssa6 = phi i64 [ %269, %268 ]
  %293 = trunc i64 %.lcssa6 to i8
  %294 = shl i8 %254, 4
  %295 = or i8 %294, %293
  store i8 %295, ptr %253, align 2, !tbaa !96
  %296 = getelementptr inbounds %"class.ContextMap::E", ptr %248, i64 %249, i32 2, i64 %.lcssa6
  br label %303

297:                                              ; preds = %287
  %.lcssa8 = phi i32 [ %289, %287 ]
  %298 = trunc i32 %.lcssa8 to i8
  %299 = or i8 %298, -16
  store i8 %299, ptr %253, align 2, !tbaa !96
  %300 = sext i32 %.lcssa8 to i64
  %301 = getelementptr inbounds [7 x i16], ptr %250, i64 0, i64 %300
  store i16 %252, ptr %301, align 2, !tbaa !29
  %302 = getelementptr inbounds %"class.ContextMap::E", ptr %248, i64 %249, i32 2, i64 %300
  tail call void @llvm.memset.p0.i64(ptr noundef nonnull align 1 dereferenceable(7) %302, i8 0, i64 7, i1 false)
  br label %303

303:                                              ; preds = %297, %292, %266
  %304 = phi ptr [ %267, %266 ], [ %302, %297 ], [ %296, %292 ]
  %305 = lshr i32 %238, 5
  %306 = and i32 %305, 1
  %307 = add nuw nsw i32 %306, 1
  %308 = trunc i32 %307 to i8
  store i8 %308, ptr %304, align 1, !tbaa !27
  %309 = lshr i32 %239, 4
  %310 = trunc i32 %309 to i8
  %311 = and i8 %310, 1
  %312 = add nuw nsw i8 %311, 1
  %313 = zext i32 %307 to i64
  %314 = getelementptr inbounds i8, ptr %304, i64 %313
  store i8 %312, ptr %314, align 1, !tbaa !27
  %315 = lshr i32 %239, 3
  %316 = trunc i32 %315 to i8
  %317 = and i8 %316, 1
  %318 = add nuw nsw i8 %317, 1
  %319 = and i32 %309, 3
  %320 = add nuw nsw i32 %319, 3
  %321 = zext i32 %320 to i64
  %322 = getelementptr inbounds i8, ptr %304, i64 %321
  store i8 %318, ptr %322, align 1, !tbaa !27
  %323 = load ptr, ptr %15, align 8, !tbaa !15
  %324 = getelementptr inbounds i32, ptr %323, i64 %32
  %325 = load i32, ptr %324, align 4, !tbaa !18
  %326 = add i32 %325, %315
  %327 = load i32, ptr %14, align 8, !tbaa !91
  %328 = add nsw i32 %327, -1
  %329 = and i32 %328, %326
  %330 = load ptr, ptr %16, align 8, !tbaa !87
  %331 = sext i32 %329 to i64
  %332 = getelementptr inbounds %"class.ContextMap::E", ptr %330, i64 %331
  %333 = lshr i32 %325, 16
  %334 = trunc i32 %333 to i16
  %335 = getelementptr inbounds %"class.ContextMap::E", ptr %330, i64 %331, i32 1
  %336 = load i8, ptr %335, align 2, !tbaa !96
  %337 = and i8 %336, 15
  %338 = zext i8 %337 to i64
  %339 = getelementptr inbounds [7 x i16], ptr %332, i64 0, i64 %338
  %340 = load i16, ptr %339, align 2, !tbaa !29
  %341 = icmp eq i16 %340, %334
  br i1 %341, label %348, label %342

342:                                              ; preds = %303
  %343 = zext i8 %336 to i32
  %344 = and i32 %343, 15
  %345 = lshr i32 %343, 4
  %346 = zext i32 %345 to i64
  %347 = zext i32 %344 to i64
  br label %350

348:                                              ; preds = %303
  %349 = getelementptr inbounds %"class.ContextMap::E", ptr %330, i64 %331, i32 2, i64 %338
  br label %385

350:                                              ; preds = %369, %342
  %351 = phi i64 [ 0, %342 ], [ %372, %369 ]
  %352 = phi i32 [ 0, %342 ], [ %371, %369 ]
  %353 = phi i32 [ 65535, %342 ], [ %370, %369 ]
  %354 = getelementptr inbounds [7 x i16], ptr %332, i64 0, i64 %351
  %355 = load i16, ptr %354, align 2, !tbaa !29
  %356 = icmp eq i16 %355, %334
  br i1 %356, label %374, label %357

357:                                              ; preds = %350
  %358 = getelementptr inbounds %"class.ContextMap::E", ptr %330, i64 %331, i32 2, i64 %351
  %359 = load i8, ptr %358, align 1, !tbaa !27
  %360 = zext i8 %359 to i32
  %361 = icmp sgt i32 %353, %360
  br i1 %361, label %362, label %369

362:                                              ; preds = %357
  %363 = icmp eq i64 %351, %347
  %364 = icmp eq i64 %351, %346
  %365 = or i1 %363, %364
  %366 = select i1 %365, i32 %353, i32 %360
  %367 = trunc i64 %351 to i32
  %368 = select i1 %365, i32 %352, i32 %367
  br label %369

369:                                              ; preds = %362, %357
  %370 = phi i32 [ %353, %357 ], [ %366, %362 ]
  %371 = phi i32 [ %352, %357 ], [ %368, %362 ]
  %372 = add nuw nsw i64 %351, 1
  %373 = icmp eq i64 %372, 7
  br i1 %373, label %379, label %350, !llvm.loop !98

374:                                              ; preds = %350
  %.lcssa9 = phi i64 [ %351, %350 ]
  %375 = trunc i64 %.lcssa9 to i8
  %376 = shl i8 %336, 4
  %377 = or i8 %376, %375
  store i8 %377, ptr %335, align 2, !tbaa !96
  %378 = getelementptr inbounds %"class.ContextMap::E", ptr %330, i64 %331, i32 2, i64 %.lcssa9
  br label %385

379:                                              ; preds = %369
  %.lcssa11 = phi i32 [ %371, %369 ]
  %380 = trunc i32 %.lcssa11 to i8
  %381 = or i8 %380, -16
  store i8 %381, ptr %335, align 2, !tbaa !96
  %382 = sext i32 %.lcssa11 to i64
  %383 = getelementptr inbounds [7 x i16], ptr %332, i64 0, i64 %382
  store i16 %334, ptr %383, align 2, !tbaa !29
  %384 = getelementptr inbounds %"class.ContextMap::E", ptr %330, i64 %331, i32 2, i64 %382
  tail call void @llvm.memset.p0.i64(ptr noundef nonnull align 1 dereferenceable(7) %384, i8 0, i64 7, i1 false)
  br label %385

385:                                              ; preds = %379, %374, %348
  %386 = phi ptr [ %349, %348 ], [ %384, %379 ], [ %378, %374 ]
  %387 = lshr i32 %238, 2
  %388 = and i32 %387, 1
  %389 = add nuw nsw i32 %388, 1
  %390 = trunc i32 %389 to i8
  store i8 %390, ptr %386, align 1, !tbaa !27
  %391 = lshr i32 %239, 1
  %392 = trunc i32 %391 to i8
  %393 = and i8 %392, 1
  %394 = add nuw nsw i8 %393, 1
  %395 = zext i32 %389 to i64
  %396 = getelementptr inbounds i8, ptr %386, i64 %395
  store i8 %394, ptr %396, align 1, !tbaa !27
  %397 = and i8 %237, 1
  %398 = add nuw nsw i8 %397, 1
  %399 = and i32 %391, 3
  %400 = add nuw nsw i32 %399, 3
  %401 = zext i32 %400 to i64
  %402 = getelementptr inbounds i8, ptr %386, i64 %401
  store i8 %398, ptr %402, align 1, !tbaa !27
  %403 = load ptr, ptr %17, align 8, !tbaa !88
  %404 = getelementptr inbounds ptr, ptr %403, i64 %32
  %405 = load ptr, ptr %404, align 8, !tbaa !38
  %406 = getelementptr inbounds i8, ptr %405, i64 6
  store i8 0, ptr %406, align 1, !tbaa !27
  br label %407

407:                                              ; preds = %385, %223
  %408 = load ptr, ptr %13, align 8, !tbaa !88
  %409 = getelementptr inbounds ptr, ptr %408, i64 %32
  %410 = load ptr, ptr %409, align 8, !tbaa !38
  %411 = load i8, ptr %410, align 1, !tbaa !27
  %412 = icmp eq i8 %411, 0
  br i1 %412, label %413, label %418

413:                                              ; preds = %407
  store i8 2, ptr %410, align 1, !tbaa !27
  %414 = load ptr, ptr %13, align 8, !tbaa !88
  %415 = getelementptr inbounds ptr, ptr %414, i64 %32
  %416 = load ptr, ptr %415, align 8, !tbaa !38
  %417 = getelementptr inbounds i8, ptr %416, i64 1
  store i8 %22, ptr %417, align 1, !tbaa !27
  br label %435

418:                                              ; preds = %407
  %419 = getelementptr inbounds i8, ptr %410, i64 1
  %420 = load i8, ptr %419, align 1, !tbaa !27
  %421 = zext i8 %420 to i32
  %422 = icmp eq i32 %421, %4
  br i1 %422, label %428, label %423

423:                                              ; preds = %418
  store i8 1, ptr %410, align 1, !tbaa !27
  %424 = load ptr, ptr %13, align 8, !tbaa !88
  %425 = getelementptr inbounds ptr, ptr %424, i64 %32
  %426 = load ptr, ptr %425, align 8, !tbaa !38
  %427 = getelementptr inbounds i8, ptr %426, i64 1
  store i8 %22, ptr %427, align 1, !tbaa !27
  br label %435

428:                                              ; preds = %418
  %429 = icmp ult i8 %411, -2
  br i1 %429, label %430, label %432

430:                                              ; preds = %428
  %431 = add nuw i8 %411, 2
  store i8 %431, ptr %410, align 1, !tbaa !27
  br label %435

432:                                              ; preds = %428
  %433 = icmp eq i8 %411, -1
  br i1 %433, label %434, label %435

434:                                              ; preds = %432
  store i8 -128, ptr %410, align 1, !tbaa !27
  br label %435

435:                                              ; preds = %434, %432, %430, %423, %413
  %436 = load ptr, ptr %17, align 8, !tbaa !88
  %437 = getelementptr inbounds ptr, ptr %436, i64 %32
  %438 = load ptr, ptr %437, align 8, !tbaa !38
  %439 = getelementptr inbounds i8, ptr %438, i64 3
  br label %440

440:                                              ; preds = %435, %156, %87, %81, %74
  %441 = phi ptr [ %11, %81 ], [ %11, %87 ], [ %17, %156 ], [ %13, %435 ], [ %11, %74 ]
  %442 = phi ptr [ %86, %81 ], [ %92, %87 ], [ %157, %156 ], [ %439, %435 ], [ null, %74 ]
  %443 = load ptr, ptr %441, align 8, !tbaa !88
  %444 = getelementptr inbounds ptr, ptr %443, i64 %32
  store ptr %442, ptr %444, align 8, !tbaa !38
  %445 = load ptr, ptr %13, align 8, !tbaa !88
  %446 = getelementptr inbounds ptr, ptr %445, i64 %32
  %447 = load ptr, ptr %446, align 8, !tbaa !38
  %448 = getelementptr inbounds i8, ptr %447, i64 1
  %449 = load i8, ptr %448, align 1, !tbaa !27
  %450 = zext i8 %449 to i32
  %451 = or i32 %450, 256
  %452 = lshr i32 %451, %23
  %453 = icmp eq i32 %452, %2
  br i1 %453, label %454, label %472

454:                                              ; preds = %440
  %455 = load i8, ptr %447, align 1, !tbaa !27
  %456 = lshr i32 %450, %26
  %457 = shl nuw nsw i32 %456, 1
  %458 = and i32 %457, 2
  %459 = add nuw nsw i32 %458, 65535
  %460 = zext i8 %455 to i64
  %461 = add nuw nsw i64 %460, 1
  %462 = load ptr, ptr getelementptr inbounds (%class.Buf, ptr @ilog, i64 0, i32 0, i32 3), align 8, !tbaa !26
  %463 = getelementptr inbounds i8, ptr %462, i64 %461
  %464 = load i8, ptr %463, align 1, !tbaa !27
  %465 = zext i8 %464 to i32
  %466 = and i8 %455, 1
  %467 = xor i8 %466, 3
  %468 = zext i8 %467 to i32
  %469 = shl nuw nsw i32 %465, %468
  %470 = mul nuw nsw i32 %469, %459
  %471 = trunc i32 %470 to i16
  br label %472

472:                                              ; preds = %454, %440
  %473 = phi i16 [ %471, %454 ], [ 0, %440 ]
  %474 = load i32, ptr %24, align 8, !tbaa !57
  %475 = add nsw i32 %474, 1
  store i32 %475, ptr %24, align 8, !tbaa !57
  %476 = load ptr, ptr %25, align 8, !tbaa !59
  %477 = sext i32 %474 to i64
  %478 = getelementptr inbounds i16, ptr %476, i64 %477
  store i16 %473, ptr %478, align 2, !tbaa !29
  %479 = load ptr, ptr %11, align 8, !tbaa !88
  %480 = getelementptr inbounds ptr, ptr %479, i64 %32
  %481 = load ptr, ptr %480, align 8, !tbaa !38
  %482 = icmp eq ptr %481, null
  br i1 %482, label %538, label %483

483:                                              ; preds = %472
  %484 = load i8, ptr %481, align 1, !tbaa !27
  %485 = zext i8 %484 to i32
  %486 = load ptr, ptr %27, align 8, !tbaa !86
  %487 = getelementptr inbounds %class.APM1, ptr %486, i64 %32
  %488 = tail call noundef i32 @_ZN8StateMap1pEii(ptr noundef nonnull align 8 dereferenceable(32) %487, i32 noundef %485, i32 noundef 1023) #32
  %489 = zext i8 %484 to i64
  %490 = getelementptr inbounds [256 x [4 x i8]], ptr @_ZL11State_table, i64 0, i64 %489, i64 2
  %491 = load i8, ptr %490, align 2, !tbaa !27
  %492 = icmp eq i8 %491, 0
  %493 = sext i1 %492 to i32
  %494 = getelementptr inbounds [256 x [4 x i8]], ptr @_ZL11State_table, i64 0, i64 %489, i64 3
  %495 = load i8, ptr %494, align 1, !tbaa !27
  %496 = icmp eq i8 %495, 0
  %497 = sext i1 %496 to i32
  %498 = load ptr, ptr getelementptr inbounds (%class.Buf, ptr @stretch, i64 0, i32 0, i32 3), align 8, !tbaa !39
  %499 = sext i32 %488 to i64
  %500 = getelementptr inbounds i16, ptr %498, i64 %499
  %501 = load i16, ptr %500, align 2, !tbaa !29
  %502 = ashr i16 %501, 2
  %503 = load i32, ptr %24, align 8, !tbaa !57
  %504 = add nsw i32 %503, 1
  %505 = load ptr, ptr %25, align 8, !tbaa !59
  %506 = sext i32 %503 to i64
  %507 = getelementptr inbounds i16, ptr %505, i64 %506
  store i16 %502, ptr %507, align 2, !tbaa !29
  %508 = ashr i32 %488, 4
  %509 = sub nsw i32 255, %508
  %510 = sub nsw i32 %508, %509
  %511 = trunc i32 %510 to i16
  %512 = add nsw i32 %503, 2
  %513 = sext i32 %504 to i64
  %514 = getelementptr inbounds i16, ptr %505, i64 %513
  store i16 %511, ptr %514, align 2, !tbaa !29
  %515 = sub nsw i32 %497, %493
  %516 = trunc i32 %515 to i16
  %517 = mul nsw i16 %502, %516
  %518 = add nsw i32 %503, 3
  %519 = sext i32 %512 to i64
  %520 = getelementptr inbounds i16, ptr %505, i64 %519
  store i16 %517, ptr %520, align 2, !tbaa !29
  %521 = and i32 %508, %493
  %522 = and i32 %509, %497
  %523 = sub nsw i32 %521, %522
  %524 = trunc i32 %523 to i16
  %525 = add nsw i32 %503, 4
  %526 = sext i32 %518 to i64
  %527 = getelementptr inbounds i16, ptr %505, i64 %526
  store i16 %524, ptr %527, align 2, !tbaa !29
  %528 = and i32 %508, %497
  %529 = and i32 %509, %493
  %530 = sub nsw i32 %528, %529
  %531 = trunc i32 %530 to i16
  %532 = add nsw i32 %503, 5
  store i32 %532, ptr %24, align 8, !tbaa !57
  %533 = sext i32 %525 to i64
  %534 = getelementptr inbounds i16, ptr %505, i64 %533
  store i16 %531, ptr %534, align 2, !tbaa !29
  %535 = icmp ne i8 %484, 0
  %536 = zext i1 %535 to i32
  %537 = add nsw i32 %33, %536
  br label %583

538:                                              ; preds = %472
  %539 = load ptr, ptr %27, align 8, !tbaa !86
  %540 = getelementptr inbounds %class.APM1, ptr %539, i64 %32, i32 1
  %541 = load i32, ptr %540, align 4, !tbaa !78
  %542 = getelementptr inbounds %class.APM1, ptr %539, i64 %32, i32 2, i32 3
  %543 = load ptr, ptr %542, align 8, !tbaa !15
  %544 = sext i32 %541 to i64
  %545 = getelementptr inbounds i32, ptr %543, i64 %544
  %546 = load i32, ptr %545, align 4, !tbaa !18
  %547 = and i32 %546, 1023
  %548 = icmp eq i32 %547, 1023
  %549 = add i32 %546, 1
  %550 = or i32 %546, 1023
  %551 = select i1 %548, i32 %550, i32 %549
  %552 = lshr i32 %546, 10
  %553 = load i32, ptr @y, align 4, !tbaa !18
  %554 = shl i32 %553, 22
  %555 = sub nsw i32 %554, %552
  %556 = ashr i32 %555, 3
  %557 = zext i32 %547 to i64
  %558 = getelementptr inbounds [1024 x i32], ptr @_ZL2dt, i64 0, i64 %557
  %559 = load i32, ptr %558, align 4, !tbaa !18
  %560 = mul nsw i32 %556, %559
  %561 = and i32 %560, -1024
  %562 = add i32 %561, %551
  store i32 %562, ptr %545, align 4, !tbaa !18
  store i32 0, ptr %540, align 4, !tbaa !78
  %563 = load i32, ptr %543, align 4, !tbaa !18
  %564 = lshr i32 %563, 20
  %565 = load ptr, ptr getelementptr inbounds (%class.Buf, ptr @stretch, i64 0, i32 0, i32 3), align 8, !tbaa !39
  %566 = zext i32 %564 to i64
  %567 = getelementptr inbounds i16, ptr %565, i64 %566
  %568 = load i16, ptr %567, align 2, !tbaa !29
  %569 = ashr i16 %568, 2
  %570 = load i32, ptr %24, align 8, !tbaa !57
  %571 = add nsw i32 %570, 1
  %572 = sext i32 %570 to i64
  %573 = getelementptr inbounds i16, ptr %476, i64 %572
  store i16 %569, ptr %573, align 2, !tbaa !29
  %574 = lshr i32 %563, 23
  %575 = trunc i32 %574 to i16
  %576 = and i16 %575, 510
  %577 = add nsw i16 %576, -255
  %578 = sext i32 %571 to i64
  %579 = getelementptr inbounds i16, ptr %476, i64 %578
  %580 = add nsw i32 %570, 5
  store i32 %580, ptr %24, align 8, !tbaa !57
  %581 = insertelement <4 x i16> <i16 poison, i16 0, i16 poison, i16 poison>, i16 %577, i64 0
  %582 = shufflevector <4 x i16> %581, <4 x i16> poison, <4 x i32> <i32 0, i32 1, i32 0, i32 0>
  store <4 x i16> %582, ptr %579, align 2, !tbaa !29
  br label %583

583:                                              ; preds = %538, %483
  %584 = phi i32 [ %537, %483 ], [ %33, %538 ]
  %585 = add nuw nsw i64 %32, 1
  %586 = load i32, ptr %7, align 8, !tbaa !85
  %587 = sext i32 %586 to i64
  %588 = icmp slt i64 %585, %587
  br i1 %588, label %31, label %28, !llvm.loop !99

589:                                              ; preds = %28
  store i32 0, ptr %7, align 8, !tbaa !85
  br label %590

590:                                              ; preds = %589, %28
  ret i32 %29
}

; Function Attrs: mustprogress optsize uwtable
define internal noundef i32 @_ZN8StateMap1pEii(ptr noundef nonnull align 8 dereferenceable(32) %0, i32 noundef %1, i32 noundef %2) #7 comdat align 2 {
  %4 = getelementptr inbounds %class.APM1, ptr %0, i64 0, i32 1
  %5 = load i32, ptr %4, align 4, !tbaa !78
  %6 = getelementptr inbounds %class.APM1, ptr %0, i64 0, i32 2, i32 3
  %7 = load ptr, ptr %6, align 8, !tbaa !15
  %8 = sext i32 %5 to i64
  %9 = getelementptr inbounds i32, ptr %7, i64 %8
  %10 = load i32, ptr %9, align 4, !tbaa !18
  %11 = and i32 %10, 1023
  %12 = icmp slt i32 %11, %2
  %13 = add i32 %10, 1
  %14 = and i32 %10, -1024
  %15 = or i32 %14, %2
  %16 = select i1 %12, i32 %13, i32 %15
  %17 = lshr i32 %10, 10
  %18 = load i32, ptr @y, align 4, !tbaa !18
  %19 = shl i32 %18, 22
  %20 = sub nsw i32 %19, %17
  %21 = ashr i32 %20, 3
  %22 = zext i32 %11 to i64
  %23 = getelementptr inbounds [1024 x i32], ptr @_ZL2dt, i64 0, i64 %22
  %24 = load i32, ptr %23, align 4, !tbaa !18
  %25 = mul nsw i32 %21, %24
  %26 = and i32 %25, -1024
  %27 = add i32 %26, %16
  store i32 %27, ptr %9, align 4, !tbaa !18
  store i32 %1, ptr %4, align 4, !tbaa !78
  %28 = sext i32 %1 to i64
  %29 = getelementptr inbounds i32, ptr %7, i64 %28
  %30 = load i32, ptr %29, align 4, !tbaa !18
  %31 = lshr i32 %30, 20
  ret i32 %31
}

; Function Attrs: optsize uwtable
define internal noundef i32 @_Z10matchModelR5Mixer(ptr noundef nonnull align 8 dereferenceable(136) %0) #0 personality ptr @__gxx_personality_v0 {
  %2 = load atomic i8, ptr @_ZGVZ10matchModelR5MixerE1t acquire, align 8
  %3 = icmp eq i8 %2, 0
  br i1 %3, label %4, label %12, !prof !100

4:                                                ; preds = %1
  %5 = tail call i32 @__cxa_guard_acquire(ptr nonnull @_ZGVZ10matchModelR5MixerE1t) #33
  %6 = icmp eq i32 %5, 0
  br i1 %6, label %12, label %7

7:                                                ; preds = %4
  %8 = load i32, ptr @level, align 4, !tbaa !18
  %9 = shl i32 65536, %8
  invoke void @_ZN5ArrayIiLi0EE6createEi(ptr noundef nonnull align 8 dereferenceable(24) @_ZZ10matchModelR5MixerE1t, i32 noundef %9) #32
          to label %10 unwind label %50

10:                                               ; preds = %7
  %11 = tail call i32 @__cxa_atexit(ptr nonnull @_ZN5ArrayIiLi0EED2Ev, ptr nonnull @_ZZ10matchModelR5MixerE1t, ptr nonnull @__dso_handle) #33
  tail call void @__cxa_guard_release(ptr nonnull @_ZGVZ10matchModelR5MixerE1t) #33
  br label %12

12:                                               ; preds = %10, %4, %1
  %13 = load atomic i8, ptr @_ZGVZ10matchModelR5MixerE4scm1 acquire, align 8
  %14 = icmp eq i8 %13, 0
  br i1 %14, label %15, label %21, !prof !100

15:                                               ; preds = %12
  %16 = tail call i32 @__cxa_guard_acquire(ptr nonnull @_ZGVZ10matchModelR5MixerE4scm1) #33
  %17 = icmp eq i32 %16, 0
  br i1 %17, label %21, label %18

18:                                               ; preds = %15
  invoke void @_ZN25SmallStationaryContextMapC2Ei(ptr noundef nonnull align 8 dereferenceable(40) @_ZZ10matchModelR5MixerE4scm1, i32 noundef 131072) #32
          to label %19 unwind label %52

19:                                               ; preds = %18
  %20 = tail call i32 @__cxa_atexit(ptr nonnull @_ZN25SmallStationaryContextMapD2Ev, ptr nonnull @_ZZ10matchModelR5MixerE4scm1, ptr nonnull @__dso_handle) #33
  tail call void @__cxa_guard_release(ptr nonnull @_ZGVZ10matchModelR5MixerE4scm1) #33
  br label %21

21:                                               ; preds = %19, %15, %12
  %22 = load i32, ptr @bpos, align 4, !tbaa !18
  %23 = icmp eq i32 %22, 0
  %24 = load i32, ptr @_ZZ10matchModelR5MixerE3len, align 4
  br i1 %23, label %25, label %103

25:                                               ; preds = %21
  %26 = load i32, ptr @_ZZ10matchModelR5MixerE1h, align 4, !tbaa !18
  %27 = mul i32 %26, 7976
  %28 = load i32, ptr @pos, align 4, !tbaa !18
  %29 = add nsw i32 %28, -1
  %30 = load i32, ptr @buf, align 8, !tbaa !23
  %31 = add nsw i32 %30, -1
  %32 = and i32 %31, %29
  %33 = load ptr, ptr getelementptr inbounds (%class.Buf, ptr @buf, i64 0, i32 0, i32 3), align 8, !tbaa !26
  %34 = sext i32 %32 to i64
  %35 = getelementptr inbounds i8, ptr %33, i64 %34
  %36 = load i8, ptr %35, align 1, !tbaa !27
  %37 = zext i8 %36 to i32
  %38 = or i32 %27, 1
  %39 = add i32 %38, %37
  %40 = load i32, ptr @_ZZ10matchModelR5MixerE1t, align 8, !tbaa !48
  %41 = add nsw i32 %40, -1
  %42 = and i32 %39, %41
  store i32 %42, ptr @_ZZ10matchModelR5MixerE1h, align 4, !tbaa !18
  %43 = icmp eq i32 %24, 0
  br i1 %43, label %54, label %44

44:                                               ; preds = %25
  %45 = add nsw i32 %24, 1
  store i32 %45, ptr @_ZZ10matchModelR5MixerE3len, align 4, !tbaa !18
  %46 = load i32, ptr @_ZZ10matchModelR5MixerE3ptr, align 4, !tbaa !18
  %47 = add nsw i32 %46, 1
  store i32 %47, ptr @_ZZ10matchModelR5MixerE3ptr, align 4, !tbaa !18
  %48 = load ptr, ptr getelementptr inbounds (%class.Array, ptr @_ZZ10matchModelR5MixerE1t, i64 0, i32 3), align 8, !tbaa !58
  %49 = sext i32 %42 to i64
  br label %93

50:                                               ; preds = %7
  %51 = landingpad { ptr, i32 }
          cleanup
  br label %192

52:                                               ; preds = %18
  %53 = landingpad { ptr, i32 }
          cleanup
  br label %192

54:                                               ; preds = %25
  %55 = load ptr, ptr getelementptr inbounds (%class.Array, ptr @_ZZ10matchModelR5MixerE1t, i64 0, i32 3), align 8, !tbaa !58
  %56 = sext i32 %42 to i64
  %57 = getelementptr inbounds i32, ptr %55, i64 %56
  %58 = load i32, ptr %57, align 4, !tbaa !18
  store i32 %58, ptr @_ZZ10matchModelR5MixerE3ptr, align 4, !tbaa !18
  %59 = icmp ne i32 %58, 0
  %60 = sub nsw i32 %28, %58
  %61 = icmp slt i32 %60, %30
  %62 = select i1 %59, i1 %61, i1 false
  br i1 %62, label %63, label %93

63:                                               ; preds = %54
  %64 = add nsw i32 %28, -1
  %65 = and i32 %64, %31
  %66 = sext i32 %65 to i64
  %67 = getelementptr inbounds i8, ptr %33, i64 %66
  %68 = load i8, ptr %67, align 1, !tbaa !27
  %69 = add i32 %58, -1
  %70 = and i32 %69, %31
  %71 = sext i32 %70 to i64
  %72 = getelementptr inbounds i8, ptr %33, i64 %71
  %73 = load i8, ptr %72, align 1, !tbaa !27
  %74 = icmp eq i8 %68, %73
  br i1 %74, label %75, label %93

75:                                               ; preds = %75, %63
  %76 = phi i32 [ %77, %75 ], [ 1, %63 ]
  %77 = add nuw nsw i32 %76, 1
  %78 = sub nsw i32 %28, %77
  %79 = and i32 %78, %31
  %80 = sext i32 %79 to i64
  %81 = getelementptr inbounds i8, ptr %33, i64 %80
  %82 = load i8, ptr %81, align 1, !tbaa !27
  %83 = xor i32 %76, -1
  %84 = add i32 %58, %83
  %85 = and i32 %84, %31
  %86 = sext i32 %85 to i64
  %87 = getelementptr inbounds i8, ptr %33, i64 %86
  %88 = load i8, ptr %87, align 1, !tbaa !27
  %89 = icmp eq i8 %82, %88
  %90 = icmp ult i32 %76, 65534
  %91 = and i1 %90, %89
  br i1 %91, label %75, label %92, !llvm.loop !101

92:                                               ; preds = %75
  %.lcssa = phi i32 [ %76, %75 ]
  store i32 %.lcssa, ptr @_ZZ10matchModelR5MixerE3len, align 4, !tbaa !18
  br label %93

93:                                               ; preds = %92, %63, %54, %44
  %94 = phi i64 [ %56, %63 ], [ %56, %92 ], [ %56, %54 ], [ %49, %44 ]
  %95 = phi i32 [ 0, %63 ], [ %.lcssa, %92 ], [ 0, %54 ], [ %45, %44 ]
  %96 = phi ptr [ %55, %63 ], [ %55, %92 ], [ %55, %54 ], [ %48, %44 ]
  %97 = getelementptr inbounds i32, ptr %96, i64 %94
  store i32 %28, ptr %97, align 4, !tbaa !18
  store i32 %95, ptr @_ZZ10matchModelR5MixerE6result, align 4, !tbaa !18
  %98 = load i32, ptr @pos, align 4, !tbaa !18
  %99 = shl i32 %98, 8
  %100 = load i32, ptr @_ZZ10matchModelR5MixerE4scm1, align 8, !tbaa !74
  %101 = add nsw i32 %100, -256
  %102 = and i32 %101, %99
  store i32 %102, ptr getelementptr inbounds (%class.SmallStationaryContextMap, ptr @_ZZ10matchModelR5MixerE4scm1, i64 0, i32 1), align 8, !tbaa !102
  br label %103

103:                                              ; preds = %93, %21
  %104 = phi i32 [ %95, %93 ], [ %24, %21 ]
  %105 = icmp eq i32 %104, 0
  br i1 %105, label %179, label %106

106:                                              ; preds = %103
  %107 = load i32, ptr @pos, align 4, !tbaa !18
  %108 = add nsw i32 %107, -1
  %109 = load i32, ptr @buf, align 8, !tbaa !23
  %110 = add nsw i32 %109, -1
  %111 = and i32 %110, %108
  %112 = load ptr, ptr getelementptr inbounds (%class.Buf, ptr @buf, i64 0, i32 0, i32 3), align 8, !tbaa !26
  %113 = sext i32 %111 to i64
  %114 = getelementptr inbounds i8, ptr %112, i64 %113
  %115 = load i8, ptr %114, align 1, !tbaa !27
  %116 = load i32, ptr @_ZZ10matchModelR5MixerE3ptr, align 4, !tbaa !18
  %117 = add nsw i32 %116, -1
  %118 = and i32 %117, %110
  %119 = sext i32 %118 to i64
  %120 = getelementptr inbounds i8, ptr %112, i64 %119
  %121 = load i8, ptr %120, align 1, !tbaa !27
  %122 = icmp eq i8 %115, %121
  br i1 %122, label %123, label %168

123:                                              ; preds = %106
  %124 = load i32, ptr @c0, align 4, !tbaa !18
  %125 = and i32 %116, %110
  %126 = sext i32 %125 to i64
  %127 = getelementptr inbounds i8, ptr %112, i64 %126
  %128 = load i8, ptr %127, align 1, !tbaa !27
  %129 = zext i8 %128 to i32
  %130 = or i32 %129, 256
  %131 = load i32, ptr @bpos, align 4, !tbaa !18
  %132 = sub nsw i32 8, %131
  %133 = lshr i32 %130, %132
  %134 = icmp eq i32 %124, %133
  br i1 %134, label %135, label %168

135:                                              ; preds = %123
  %136 = icmp sgt i32 %104, 65534
  br i1 %136, label %137, label %138

137:                                              ; preds = %135
  store i32 65534, ptr @_ZZ10matchModelR5MixerE3len, align 4, !tbaa !18
  br label %138

138:                                              ; preds = %137, %135
  %139 = phi i32 [ 65534, %137 ], [ %104, %135 ]
  %140 = sub nsw i32 7, %131
  %141 = shl nuw i32 1, %140
  %142 = and i32 %141, %129
  %143 = icmp eq i32 %142, 0
  %144 = load ptr, ptr getelementptr inbounds (%class.Buf, ptr @ilog, i64 0, i32 0, i32 3), align 8, !tbaa !26
  %145 = and i32 %139, 65535
  %146 = zext i32 %145 to i64
  %147 = getelementptr inbounds i8, ptr %144, i64 %146
  %148 = load i8, ptr %147, align 1, !tbaa !27
  %149 = zext i8 %148 to i16
  %150 = getelementptr inbounds %class.Mixer, ptr %0, i64 0, i32 8
  %151 = load i32, ptr %150, align 8, !tbaa !57
  %152 = add nsw i32 %151, 1
  %153 = getelementptr inbounds %class.Mixer, ptr %0, i64 0, i32 3, i32 3
  %154 = load ptr, ptr %153, align 8, !tbaa !59
  %155 = sext i32 %151 to i64
  %156 = getelementptr inbounds i16, ptr %154, i64 %155
  %157 = tail call i32 @llvm.smin.i32(i32 %139, i32 32)
  %158 = trunc i32 %157 to i16
  %159 = add nsw i32 %151, 2
  %160 = sext i32 %152 to i64
  %161 = getelementptr inbounds i16, ptr %154, i64 %160
  br i1 %143, label %165, label %162

162:                                              ; preds = %138
  %163 = shl nuw nsw i16 %149, 2
  store i16 %163, ptr %156, align 2, !tbaa !29
  %164 = shl i16 %158, 6
  store i32 %159, ptr %150, align 8, !tbaa !57
  store i16 %164, ptr %161, align 2, !tbaa !29
  br label %190

165:                                              ; preds = %138
  %166 = mul nsw i16 %149, -4
  store i16 %166, ptr %156, align 2, !tbaa !29
  %167 = mul i16 %158, -64
  store i32 %159, ptr %150, align 8, !tbaa !57
  store i16 %167, ptr %161, align 2, !tbaa !29
  br label %190

168:                                              ; preds = %123, %106
  store i32 0, ptr @_ZZ10matchModelR5MixerE3len, align 4, !tbaa !18
  %169 = getelementptr inbounds %class.Mixer, ptr %0, i64 0, i32 8
  %170 = load i32, ptr %169, align 8, !tbaa !57
  %171 = add nsw i32 %170, 1
  %172 = getelementptr inbounds %class.Mixer, ptr %0, i64 0, i32 3, i32 3
  %173 = load ptr, ptr %172, align 8, !tbaa !59
  %174 = sext i32 %170 to i64
  %175 = getelementptr inbounds i16, ptr %173, i64 %174
  store i16 0, ptr %175, align 2, !tbaa !29
  %176 = add nsw i32 %170, 2
  store i32 %176, ptr %169, align 8, !tbaa !57
  %177 = sext i32 %171 to i64
  %178 = getelementptr inbounds i16, ptr %173, i64 %177
  store i16 0, ptr %178, align 2, !tbaa !29
  br label %190

179:                                              ; preds = %103
  %180 = getelementptr inbounds %class.Mixer, ptr %0, i64 0, i32 8
  %181 = load i32, ptr %180, align 8, !tbaa !57
  %182 = add nsw i32 %181, 1
  %183 = getelementptr inbounds %class.Mixer, ptr %0, i64 0, i32 3, i32 3
  %184 = load ptr, ptr %183, align 8, !tbaa !59
  %185 = sext i32 %181 to i64
  %186 = getelementptr inbounds i16, ptr %184, i64 %185
  store i16 0, ptr %186, align 2, !tbaa !29
  %187 = add nsw i32 %181, 2
  store i32 %187, ptr %180, align 8, !tbaa !57
  %188 = sext i32 %182 to i64
  %189 = getelementptr inbounds i16, ptr %184, i64 %188
  store i16 0, ptr %189, align 2, !tbaa !29
  br label %190

190:                                              ; preds = %179, %168, %165, %162
  tail call void @_ZN25SmallStationaryContextMap3mixER5Mixeri(ptr noundef nonnull align 8 dereferenceable(40) @_ZZ10matchModelR5MixerE4scm1, ptr noundef nonnull align 8 dereferenceable(136) %0, i32 noundef 7) #32
  %191 = load i32, ptr @_ZZ10matchModelR5MixerE6result, align 4, !tbaa !18
  ret i32 %191

192:                                              ; preds = %52, %50
  %193 = phi ptr [ @_ZGVZ10matchModelR5MixerE4scm1, %52 ], [ @_ZGVZ10matchModelR5MixerE1t, %50 ]
  %194 = phi { ptr, i32 } [ %53, %52 ], [ %51, %50 ]
  tail call void @__cxa_guard_abort(ptr nonnull %193) #33
  resume { ptr, i32 } %194
}

; Function Attrs: nofree nounwind
declare i32 @__cxa_guard_acquire(ptr) local_unnamed_addr #3

; Function Attrs: nofree nounwind
declare void @__cxa_guard_release(ptr) local_unnamed_addr #3

; Function Attrs: optsize uwtable
define internal void @_ZN25SmallStationaryContextMapC2Ei(ptr noundef nonnull align 8 dereferenceable(40) %0, i32 noundef %1) unnamed_addr #0 comdat align 2 personality ptr @__gxx_personality_v0 {
  %3 = sdiv i32 %1, 2
  tail call void @_ZN5ArrayItLi0EE6createEi(ptr noundef nonnull align 8 dereferenceable(24) %0, i32 noundef %3) #32
  %4 = getelementptr inbounds %class.SmallStationaryContextMap, ptr %0, i64 0, i32 1
  store i32 0, ptr %4, align 8, !tbaa !102
  %5 = load i32, ptr %0, align 8, !tbaa !74
  %6 = icmp sgt i32 %5, 0
  %7 = getelementptr inbounds %class.Array, ptr %0, i64 0, i32 3
  %8 = load ptr, ptr %7, align 8, !tbaa !70
  br i1 %6, label %9, label %62

9:                                                ; preds = %2
  %10 = zext i32 %5 to i64
  %11 = add nuw nsw i64 %10, 7
  %12 = and i64 %11, 8589934584
  %13 = add nsw i64 %10, -1
  %14 = insertelement <8 x i64> poison, i64 %13, i64 0
  %15 = shufflevector <8 x i64> %14, <8 x i64> poison, <8 x i32> zeroinitializer
  br label %16

16:                                               ; preds = %58, %9
  %17 = phi i64 [ 0, %9 ], [ %59, %58 ]
  %18 = phi <8 x i64> [ <i64 0, i64 1, i64 2, i64 3, i64 4, i64 5, i64 6, i64 7>, %9 ], [ %60, %58 ]
  %19 = icmp ule <8 x i64> %18, %15
  %20 = extractelement <8 x i1> %19, i64 0
  br i1 %20, label %21, label %23

21:                                               ; preds = %16
  %22 = getelementptr inbounds i16, ptr %8, i64 %17
  store i16 -32768, ptr %22, align 2, !tbaa !29
  br label %23

23:                                               ; preds = %21, %16
  %24 = extractelement <8 x i1> %19, i64 1
  br i1 %24, label %25, label %28

25:                                               ; preds = %23
  %26 = or i64 %17, 1
  %27 = getelementptr inbounds i16, ptr %8, i64 %26
  store i16 -32768, ptr %27, align 2, !tbaa !29
  br label %28

28:                                               ; preds = %25, %23
  %29 = extractelement <8 x i1> %19, i64 2
  br i1 %29, label %30, label %33

30:                                               ; preds = %28
  %31 = or i64 %17, 2
  %32 = getelementptr inbounds i16, ptr %8, i64 %31
  store i16 -32768, ptr %32, align 2, !tbaa !29
  br label %33

33:                                               ; preds = %30, %28
  %34 = extractelement <8 x i1> %19, i64 3
  br i1 %34, label %35, label %38

35:                                               ; preds = %33
  %36 = or i64 %17, 3
  %37 = getelementptr inbounds i16, ptr %8, i64 %36
  store i16 -32768, ptr %37, align 2, !tbaa !29
  br label %38

38:                                               ; preds = %35, %33
  %39 = extractelement <8 x i1> %19, i64 4
  br i1 %39, label %40, label %43

40:                                               ; preds = %38
  %41 = or i64 %17, 4
  %42 = getelementptr inbounds i16, ptr %8, i64 %41
  store i16 -32768, ptr %42, align 2, !tbaa !29
  br label %43

43:                                               ; preds = %40, %38
  %44 = extractelement <8 x i1> %19, i64 5
  br i1 %44, label %45, label %48

45:                                               ; preds = %43
  %46 = or i64 %17, 5
  %47 = getelementptr inbounds i16, ptr %8, i64 %46
  store i16 -32768, ptr %47, align 2, !tbaa !29
  br label %48

48:                                               ; preds = %45, %43
  %49 = extractelement <8 x i1> %19, i64 6
  br i1 %49, label %50, label %53

50:                                               ; preds = %48
  %51 = or i64 %17, 6
  %52 = getelementptr inbounds i16, ptr %8, i64 %51
  store i16 -32768, ptr %52, align 2, !tbaa !29
  br label %53

53:                                               ; preds = %50, %48
  %54 = extractelement <8 x i1> %19, i64 7
  br i1 %54, label %55, label %58

55:                                               ; preds = %53
  %56 = or i64 %17, 7
  %57 = getelementptr inbounds i16, ptr %8, i64 %56
  store i16 -32768, ptr %57, align 2, !tbaa !29
  br label %58

58:                                               ; preds = %55, %53
  %59 = add i64 %17, 8
  %60 = add <8 x i64> %18, <i64 8, i64 8, i64 8, i64 8, i64 8, i64 8, i64 8, i64 8>
  %61 = icmp eq i64 %59, %12
  br i1 %61, label %62, label %16, !llvm.loop !104

62:                                               ; preds = %58, %2
  %63 = getelementptr inbounds %class.SmallStationaryContextMap, ptr %0, i64 0, i32 2
  store ptr %8, ptr %63, align 8, !tbaa !105
  ret void
}

; Function Attrs: inlinehint nounwind optsize uwtable
define internal void @_ZN25SmallStationaryContextMapD2Ev(ptr noundef nonnull align 8 dereferenceable(40) %0) unnamed_addr #2 comdat align 2 {
  tail call void @_ZN5ArrayItLi0EED2Ev(ptr noundef nonnull align 8 dereferenceable(24) %0) #31
  ret void
}

; Function Attrs: nocallback nofree nosync nounwind speculatable willreturn memory(none)
declare i32 @llvm.smin.i32(i32, i32) #14

; Function Attrs: mustprogress optsize uwtable
define internal void @_ZN25SmallStationaryContextMap3mixER5Mixeri(ptr noundef nonnull align 8 dereferenceable(40) %0, ptr noundef nonnull align 8 dereferenceable(136) %1, i32 noundef %2) #7 comdat align 2 {
  %4 = load i32, ptr @y, align 4, !tbaa !18
  %5 = shl i32 %4, 16
  %6 = getelementptr inbounds %class.SmallStationaryContextMap, ptr %0, i64 0, i32 2
  %7 = load ptr, ptr %6, align 8, !tbaa !105
  %8 = load i16, ptr %7, align 2, !tbaa !29
  %9 = zext i16 %8 to i32
  %10 = add nsw i32 %2, -1
  %11 = shl nuw i32 1, %10
  %12 = add i32 %5, %11
  %13 = sub i32 %12, %9
  %14 = ashr i32 %13, %2
  %15 = trunc i32 %14 to i16
  %16 = add i16 %8, %15
  store i16 %16, ptr %7, align 2, !tbaa !29
  %17 = getelementptr inbounds %class.SmallStationaryContextMap, ptr %0, i64 0, i32 1
  %18 = load i32, ptr %17, align 8, !tbaa !102
  %19 = load i32, ptr @c0, align 4, !tbaa !18
  %20 = add nsw i32 %19, %18
  %21 = getelementptr inbounds %class.Array, ptr %0, i64 0, i32 3
  %22 = load ptr, ptr %21, align 8, !tbaa !70
  %23 = sext i32 %20 to i64
  %24 = getelementptr inbounds i16, ptr %22, i64 %23
  store ptr %24, ptr %6, align 8, !tbaa !105
  %25 = load i16, ptr %24, align 2, !tbaa !29
  %26 = lshr i16 %25, 4
  %27 = load ptr, ptr getelementptr inbounds (%class.Buf, ptr @stretch, i64 0, i32 0, i32 3), align 8, !tbaa !39
  %28 = zext i16 %26 to i64
  %29 = getelementptr inbounds i16, ptr %27, i64 %28
  %30 = load i16, ptr %29, align 2, !tbaa !29
  %31 = getelementptr inbounds %class.Mixer, ptr %1, i64 0, i32 8
  %32 = load i32, ptr %31, align 8, !tbaa !57
  %33 = add nsw i32 %32, 1
  store i32 %33, ptr %31, align 8, !tbaa !57
  %34 = getelementptr inbounds %class.Mixer, ptr %1, i64 0, i32 3, i32 3
  %35 = load ptr, ptr %34, align 8, !tbaa !59
  %36 = sext i32 %32 to i64
  %37 = getelementptr inbounds i16, ptr %35, i64 %36
  store i16 %30, ptr %37, align 2, !tbaa !29
  ret void
}

; Function Attrs: nofree nounwind
declare void @__cxa_guard_abort(ptr) local_unnamed_addr #3

; Function Attrs: optsize uwtable
define internal void @_Z8picModelR5Mixer(ptr nocapture noundef nonnull align 8 dereferenceable(136) %0) #0 personality ptr @__gxx_personality_v0 {
  %2 = load atomic i8, ptr @_ZGVZ8picModelR5MixerE1t acquire, align 8
  %3 = icmp eq i8 %2, 0
  br i1 %3, label %4, label %10, !prof !100

4:                                                ; preds = %1
  %5 = tail call i32 @__cxa_guard_acquire(ptr nonnull @_ZGVZ8picModelR5MixerE1t) #33
  %6 = icmp eq i32 %5, 0
  br i1 %6, label %10, label %7

7:                                                ; preds = %4
  invoke void @_ZN5ArrayIhLi0EE6createEi(ptr noundef nonnull align 8 dereferenceable(24) @_ZZ8picModelR5MixerE1t, i32 noundef 66048) #32
          to label %8 unwind label %39

8:                                                ; preds = %7
  %9 = tail call i32 @__cxa_atexit(ptr nonnull @_ZN5ArrayIhLi0EED2Ev, ptr nonnull @_ZZ8picModelR5MixerE1t, ptr nonnull @__dso_handle) #33
  tail call void @__cxa_guard_release(ptr nonnull @_ZGVZ8picModelR5MixerE1t) #33
  br label %10

10:                                               ; preds = %8, %4, %1
  %11 = load atomic i8, ptr @_ZGVZ8picModelR5MixerE2sm acquire, align 8
  %12 = icmp eq i8 %11, 0
  br i1 %12, label %13, label %23, !prof !100

13:                                               ; preds = %10
  %14 = tail call i32 @__cxa_guard_acquire(ptr nonnull @_ZGVZ8picModelR5MixerE2sm) #33
  %15 = icmp eq i32 %14, 0
  br i1 %15, label %23, label %16

16:                                               ; preds = %18, %13
  %17 = phi ptr [ %19, %18 ], [ @_ZZ8picModelR5MixerE2sm, %13 ]
  invoke void @_ZN8StateMapC2Ei(ptr noundef nonnull align 8 dereferenceable(32) %17, i32 noundef 256) #32
          to label %18 unwind label %41

18:                                               ; preds = %16
  %19 = getelementptr inbounds %class.APM1, ptr %17, i64 1
  %20 = icmp eq ptr %19, getelementptr inbounds ([3 x %class.APM1], ptr @_ZZ8picModelR5MixerE2sm, i64 1, i64 0)
  br i1 %20, label %21, label %16

21:                                               ; preds = %18
  %22 = tail call i32 @__cxa_atexit(ptr nonnull @__cxx_global_array_dtor, ptr null, ptr nonnull @__dso_handle) #33
  tail call void @__cxa_guard_release(ptr nonnull @_ZGVZ8picModelR5MixerE2sm) #33
  br label %23

23:                                               ; preds = %21, %13, %10
  br label %24

24:                                               ; preds = %24, %23
  %25 = phi i64 [ %37, %24 ], [ 0, %23 ]
  %26 = getelementptr inbounds [3 x i32], ptr @_ZZ8picModelR5MixerE3cxt, i64 0, i64 %25
  %27 = load i32, ptr %26, align 4, !tbaa !18
  %28 = load ptr, ptr getelementptr inbounds (%class.Array, ptr @_ZZ8picModelR5MixerE1t, i64 0, i32 3), align 8, !tbaa !26
  %29 = sext i32 %27 to i64
  %30 = getelementptr inbounds i8, ptr %28, i64 %29
  %31 = load i8, ptr %30, align 1, !tbaa !27
  %32 = zext i8 %31 to i64
  %33 = load i32, ptr @y, align 4, !tbaa !18
  %34 = sext i32 %33 to i64
  %35 = getelementptr inbounds [256 x [4 x i8]], ptr @_ZL11State_table, i64 0, i64 %32, i64 %34
  %36 = load i8, ptr %35, align 1, !tbaa !27
  store i8 %36, ptr %30, align 1, !tbaa !27
  %37 = add nuw nsw i64 %25, 1
  %38 = icmp eq i64 %37, 3
  br i1 %38, label %49, label %24, !llvm.loop !106

39:                                               ; preds = %7
  %40 = landingpad { ptr, i32 }
          cleanup
  br label %144

41:                                               ; preds = %16
  %.lcssa = phi ptr [ %17, %16 ]
  %42 = landingpad { ptr, i32 }
          cleanup
  %43 = icmp eq ptr %.lcssa, @_ZZ8picModelR5MixerE2sm
  br i1 %43, label %144, label %44

44:                                               ; preds = %44, %41
  %45 = phi ptr [ %46, %44 ], [ %.lcssa, %41 ]
  %46 = getelementptr inbounds %class.APM1, ptr %45, i64 -1
  %47 = getelementptr %class.APM1, ptr %45, i64 -1, i32 2
  tail call void @_ZN5ArrayIjLi0EED2Ev(ptr noundef nonnull align 8 dereferenceable(24) %47) #31
  %48 = icmp eq ptr %46, @_ZZ8picModelR5MixerE2sm
  br i1 %48, label %144, label %44

49:                                               ; preds = %24
  %50 = load i32, ptr @_ZZ8picModelR5MixerE2r0, align 4, !tbaa !18
  %51 = load i32, ptr @y, align 4, !tbaa !18
  %52 = shl i32 %50, 1
  %53 = add i32 %51, %52
  store i32 %53, ptr @_ZZ8picModelR5MixerE2r0, align 4, !tbaa !18
  %54 = load i32, ptr @_ZZ8picModelR5MixerE2r1, align 4, !tbaa !18
  %55 = load i32, ptr @pos, align 4, !tbaa !18
  %56 = add nsw i32 %55, -215
  %57 = load i32, ptr @buf, align 8, !tbaa !23
  %58 = add nsw i32 %57, -1
  %59 = and i32 %58, %56
  %60 = load ptr, ptr getelementptr inbounds (%class.Buf, ptr @buf, i64 0, i32 0, i32 3), align 8, !tbaa !26
  %61 = sext i32 %59 to i64
  %62 = getelementptr inbounds i8, ptr %60, i64 %61
  %63 = load i8, ptr %62, align 1, !tbaa !27
  %64 = zext i8 %63 to i32
  %65 = load i32, ptr @bpos, align 4, !tbaa !18
  %66 = sub nsw i32 7, %65
  %67 = lshr i32 %64, %66
  %68 = and i32 %67, 1
  %69 = shl i32 %54, 1
  %70 = or i32 %68, %69
  store i32 %70, ptr @_ZZ8picModelR5MixerE2r1, align 4, !tbaa !18
  %71 = load i32, ptr @_ZZ8picModelR5MixerE2r2, align 4, !tbaa !18
  %72 = add nsw i32 %55, -431
  %73 = and i32 %58, %72
  %74 = sext i32 %73 to i64
  %75 = getelementptr inbounds i8, ptr %60, i64 %74
  %76 = load i8, ptr %75, align 1, !tbaa !27
  %77 = zext i8 %76 to i32
  %78 = lshr i32 %77, %66
  %79 = and i32 %78, 1
  %80 = shl i32 %71, 1
  %81 = or i32 %79, %80
  store i32 %81, ptr @_ZZ8picModelR5MixerE2r2, align 4, !tbaa !18
  %82 = load i32, ptr @_ZZ8picModelR5MixerE2r3, align 4, !tbaa !18
  %83 = add nsw i32 %55, -647
  %84 = and i32 %58, %83
  %85 = sext i32 %84 to i64
  %86 = getelementptr inbounds i8, ptr %60, i64 %85
  %87 = load i8, ptr %86, align 1, !tbaa !27
  %88 = zext i8 %87 to i32
  %89 = lshr i32 %88, %66
  %90 = and i32 %89, 1
  %91 = shl i32 %82, 1
  %92 = or i32 %90, %91
  store i32 %92, ptr @_ZZ8picModelR5MixerE2r3, align 4, !tbaa !18
  %93 = and i32 %53, 7
  %94 = lshr i32 %69, 4
  %95 = and i32 %94, 56
  %96 = or i32 %95, %93
  %97 = lshr i32 %80, 3
  %98 = and i32 %97, 192
  %99 = or i32 %96, %98
  store i32 %99, ptr @_ZZ8picModelR5MixerE3cxt, align 4, !tbaa !18
  %100 = and i32 %51, 1
  %101 = and i32 %94, 62
  %102 = lshr i32 %80, 2
  %103 = and i32 %102, 64
  %104 = and i32 %82, 128
  %105 = or i32 %100, %101
  %106 = or i32 %105, %103
  %107 = or i32 %106, %104
  %108 = or i32 %107, 256
  store i32 %108, ptr getelementptr inbounds ([3 x i32], ptr @_ZZ8picModelR5MixerE3cxt, i64 0, i64 1), align 4, !tbaa !18
  %109 = and i32 %53, 63
  %110 = and i32 %69, 16382
  %111 = xor i32 %110, %109
  %112 = shl i32 %71, 3
  %113 = and i32 %112, 32512
  %114 = xor i32 %111, %113
  %115 = shl i32 %82, 6
  %116 = and i32 %115, 63488
  %117 = xor i32 %114, %116
  %118 = add nuw nsw i32 %117, 512
  store i32 %118, ptr getelementptr inbounds ([3 x i32], ptr @_ZZ8picModelR5MixerE3cxt, i64 0, i64 2), align 4, !tbaa !18
  %119 = getelementptr inbounds %class.Mixer, ptr %0, i64 0, i32 8
  %120 = getelementptr inbounds %class.Mixer, ptr %0, i64 0, i32 3, i32 3
  br label %121

121:                                              ; preds = %121, %49
  %122 = phi i64 [ 0, %49 ], [ %141, %121 ]
  %123 = getelementptr inbounds [3 x %class.APM1], ptr @_ZZ8picModelR5MixerE2sm, i64 0, i64 %122
  %124 = getelementptr inbounds [3 x i32], ptr @_ZZ8picModelR5MixerE3cxt, i64 0, i64 %122
  %125 = load i32, ptr %124, align 4, !tbaa !18
  %126 = load ptr, ptr getelementptr inbounds (%class.Array, ptr @_ZZ8picModelR5MixerE1t, i64 0, i32 3), align 8, !tbaa !26
  %127 = sext i32 %125 to i64
  %128 = getelementptr inbounds i8, ptr %126, i64 %127
  %129 = load i8, ptr %128, align 1, !tbaa !27
  %130 = zext i8 %129 to i32
  %131 = tail call noundef i32 @_ZN8StateMap1pEii(ptr noundef nonnull align 8 dereferenceable(32) %123, i32 noundef %130, i32 noundef 1023) #32
  %132 = load ptr, ptr getelementptr inbounds (%class.Buf, ptr @stretch, i64 0, i32 0, i32 3), align 8, !tbaa !39
  %133 = sext i32 %131 to i64
  %134 = getelementptr inbounds i16, ptr %132, i64 %133
  %135 = load i16, ptr %134, align 2, !tbaa !29
  %136 = load i32, ptr %119, align 8, !tbaa !57
  %137 = add nsw i32 %136, 1
  store i32 %137, ptr %119, align 8, !tbaa !57
  %138 = load ptr, ptr %120, align 8, !tbaa !59
  %139 = sext i32 %136 to i64
  %140 = getelementptr inbounds i16, ptr %138, i64 %139
  store i16 %135, ptr %140, align 2, !tbaa !29
  %141 = add nuw nsw i64 %122, 1
  %142 = icmp eq i64 %141, 3
  br i1 %142, label %143, label %121, !llvm.loop !107

143:                                              ; preds = %121
  ret void

144:                                              ; preds = %44, %41, %39
  %145 = phi ptr [ @_ZGVZ8picModelR5MixerE1t, %39 ], [ @_ZGVZ8picModelR5MixerE2sm, %41 ], [ @_ZGVZ8picModelR5MixerE2sm, %44 ]
  %146 = phi { ptr, i32 } [ %40, %39 ], [ %42, %41 ], [ %42, %44 ]
  tail call void @__cxa_guard_abort(ptr nonnull %145) #33
  resume { ptr, i32 } %146
}

; Function Attrs: nounwind optsize uwtable
define internal void @__cxx_global_array_dtor(ptr nocapture readnone %0) #5 section ".text.startup" {
  br label %2

2:                                                ; preds = %2, %1
  %3 = phi ptr [ getelementptr inbounds ([3 x %class.APM1], ptr @_ZZ8picModelR5MixerE2sm, i64 1, i64 0), %1 ], [ %4, %2 ]
  %4 = getelementptr inbounds %class.APM1, ptr %3, i64 -1
  %5 = getelementptr %class.APM1, ptr %3, i64 -1, i32 2
  tail call void @_ZN5ArrayIjLi0EED2Ev(ptr noundef nonnull align 8 dereferenceable(24) %5) #31
  %6 = icmp eq ptr %4, @_ZZ8picModelR5MixerE2sm
  br i1 %6, label %7, label %2

7:                                                ; preds = %2
  ret void
}

; Function Attrs: mustprogress optsize uwtable
define internal void @_Z9wordModelR5Mixer(ptr noundef nonnull align 8 dereferenceable(136) %0) #7 personality ptr @__gxx_personality_v0 {
  %2 = load atomic i8, ptr @_ZGVZ9wordModelR5MixerE2cm acquire, align 8
  %3 = icmp eq i8 %2, 0
  br i1 %3, label %4, label %12, !prof !100

4:                                                ; preds = %1
  %5 = tail call i32 @__cxa_guard_acquire(ptr nonnull @_ZGVZ9wordModelR5MixerE2cm) #33
  %6 = icmp eq i32 %5, 0
  br i1 %6, label %12, label %7

7:                                                ; preds = %4
  %8 = load i32, ptr @level, align 4, !tbaa !18
  %9 = shl i32 1048576, %8
  invoke void @_ZN10ContextMapC2Eii(ptr noundef nonnull align 8 dereferenceable(140) @_ZZ9wordModelR5MixerE2cm, i32 noundef %9, i32 noundef 20) #32
          to label %10 unwind label %27

10:                                               ; preds = %7
  %11 = tail call i32 @__cxa_atexit(ptr nonnull @_ZN10ContextMapD2Ev, ptr nonnull @_ZZ9wordModelR5MixerE2cm, ptr nonnull @__dso_handle) #33
  tail call void @__cxa_guard_release(ptr nonnull @_ZGVZ9wordModelR5MixerE2cm) #33
  br label %12

12:                                               ; preds = %10, %4, %1
  %13 = load i32, ptr @bpos, align 4, !tbaa !18
  %14 = icmp eq i32 %13, 0
  br i1 %14, label %15, label %355

15:                                               ; preds = %12
  %16 = load i32, ptr @c4, align 4, !tbaa !18
  %17 = and i32 %16, 255
  %18 = add nsw i32 %17, -65
  %19 = icmp ult i32 %18, 26
  %20 = add nuw nsw i32 %17, 32
  %21 = select i1 %19, i32 %20, i32 %17
  %22 = add nsw i32 %21, -97
  %23 = icmp ult i32 %22, 26
  %24 = icmp ugt i32 %21, 127
  %25 = or i1 %24, %23
  %26 = load i32, ptr @_ZZ9wordModelR5MixerE5word0, align 4, !tbaa !18
  br i1 %25, label %29, label %37

27:                                               ; preds = %7
  %28 = landingpad { ptr, i32 }
          cleanup
  tail call void @__cxa_guard_abort(ptr nonnull @_ZGVZ9wordModelR5MixerE2cm) #33
  resume { ptr, i32 } %28

29:                                               ; preds = %15
  %30 = mul i32 %26, 8416
  %31 = add i32 %30, %21
  store i32 %31, ptr @_ZZ9wordModelR5MixerE5word0, align 4, !tbaa !18
  %32 = load i32, ptr @_ZZ9wordModelR5MixerE5text0, align 4, !tbaa !18
  %33 = mul i32 %32, 15952
  %34 = add i32 %33, %21
  store i32 %34, ptr @_ZZ9wordModelR5MixerE5text0, align 4, !tbaa !18
  %35 = load i32, ptr @pos, align 4, !tbaa !18
  %36 = load i32, ptr @_ZZ9wordModelR5MixerE2nl, align 4, !tbaa !18
  br label %55

37:                                               ; preds = %15
  %38 = icmp eq i32 %26, 0
  br i1 %38, label %49, label %39

39:                                               ; preds = %37
  %40 = load i32, ptr @_ZZ9wordModelR5MixerE5word4, align 4, !tbaa !18
  %41 = mul i32 %40, 23
  store i32 %41, ptr @_ZZ9wordModelR5MixerE5word5, align 4, !tbaa !18
  %42 = load i32, ptr @_ZZ9wordModelR5MixerE5word3, align 4, !tbaa !18
  %43 = mul i32 %42, 19
  store i32 %43, ptr @_ZZ9wordModelR5MixerE5word4, align 4, !tbaa !18
  %44 = load i32, ptr @_ZZ9wordModelR5MixerE5word2, align 4, !tbaa !18
  %45 = mul i32 %44, 17
  store i32 %45, ptr @_ZZ9wordModelR5MixerE5word3, align 4, !tbaa !18
  %46 = load i32, ptr @_ZZ9wordModelR5MixerE5word1, align 4, !tbaa !18
  %47 = mul i32 %46, 13
  store i32 %47, ptr @_ZZ9wordModelR5MixerE5word2, align 4, !tbaa !18
  %48 = mul i32 %26, 11
  store i32 %48, ptr @_ZZ9wordModelR5MixerE5word1, align 4, !tbaa !18
  store i32 0, ptr @_ZZ9wordModelR5MixerE5word0, align 4, !tbaa !18
  br label %49

49:                                               ; preds = %39, %37
  %50 = icmp eq i32 %21, 10
  %51 = load i32, ptr @pos, align 4, !tbaa !18
  %52 = load i32, ptr @_ZZ9wordModelR5MixerE2nl, align 4, !tbaa !18
  br i1 %50, label %53, label %55

53:                                               ; preds = %49
  store i32 %52, ptr @_ZZ9wordModelR5MixerE3nl1, align 4, !tbaa !18
  %54 = add nsw i32 %51, -1
  store i32 %54, ptr @_ZZ9wordModelR5MixerE2nl, align 4, !tbaa !18
  br label %55

55:                                               ; preds = %53, %49, %29
  %56 = phi i32 [ %31, %29 ], [ 0, %53 ], [ 0, %49 ]
  %57 = phi i32 [ %36, %29 ], [ %54, %53 ], [ %52, %49 ]
  %58 = phi i32 [ %35, %29 ], [ %51, %53 ], [ %51, %49 ]
  %59 = sub nsw i32 %58, %57
  %60 = tail call i32 @llvm.smin.i32(i32 %59, i32 255)
  %61 = load i32, ptr @_ZZ9wordModelR5MixerE3nl1, align 4, !tbaa !18
  %62 = add nsw i32 %60, %61
  %63 = load i32, ptr @buf, align 8, !tbaa !23
  %64 = add nsw i32 %63, -1
  %65 = and i32 %64, %62
  %66 = load ptr, ptr getelementptr inbounds (%class.Buf, ptr @buf, i64 0, i32 0, i32 3), align 8, !tbaa !26
  %67 = sext i32 %65 to i64
  %68 = getelementptr inbounds i8, ptr %66, i64 %67
  %69 = load i8, ptr %68, align 1, !tbaa !27
  %70 = zext i8 %69 to i32
  %71 = mul i32 %56, 271
  %72 = add nsw i32 %58, -1
  %73 = and i32 %64, %72
  %74 = sext i32 %73 to i64
  %75 = getelementptr inbounds i8, ptr %66, i64 %74
  %76 = load i8, ptr %75, align 1, !tbaa !27
  %77 = zext i8 %76 to i32
  %78 = add i32 %71, %77
  %79 = load i32, ptr getelementptr inbounds (%class.ContextMap, ptr @_ZZ9wordModelR5MixerE2cm, i64 0, i32 8), align 8, !tbaa !85
  %80 = add nsw i32 %79, 1
  store i32 %80, ptr getelementptr inbounds (%class.ContextMap, ptr @_ZZ9wordModelR5MixerE2cm, i64 0, i32 8), align 8, !tbaa !85
  %81 = mul i32 %78, 987654323
  %82 = add i32 %81, %79
  %83 = tail call i32 @llvm.fshl.i32(i32 %82, i32 %82, i32 16)
  %84 = mul i32 %83, 123456791
  %85 = add i32 %84, %79
  %86 = load ptr, ptr getelementptr inbounds (%class.ContextMap, ptr @_ZZ9wordModelR5MixerE2cm, i64 0, i32 5, i32 3), align 8, !tbaa !15
  %87 = sext i32 %79 to i64
  %88 = getelementptr inbounds i32, ptr %86, i64 %87
  store i32 %85, ptr %88, align 4, !tbaa !18
  %89 = load i32, ptr getelementptr inbounds (%class.ContextMap, ptr @_ZZ9wordModelR5MixerE2cm, i64 0, i32 8), align 8, !tbaa !85
  %90 = add nsw i32 %89, 1
  store i32 %90, ptr getelementptr inbounds (%class.ContextMap, ptr @_ZZ9wordModelR5MixerE2cm, i64 0, i32 8), align 8, !tbaa !85
  %91 = mul i32 %56, 987654323
  %92 = add i32 %89, %91
  %93 = tail call i32 @llvm.fshl.i32(i32 %92, i32 %92, i32 16)
  %94 = mul i32 %93, 123456791
  %95 = add i32 %94, %89
  %96 = sext i32 %89 to i64
  %97 = getelementptr inbounds i32, ptr %86, i64 %96
  store i32 %95, ptr %97, align 4, !tbaa !18
  %98 = load i32, ptr @_ZZ9wordModelR5MixerE5word1, align 4, !tbaa !18
  %99 = add i32 %98, %78
  %100 = load i32, ptr getelementptr inbounds (%class.ContextMap, ptr @_ZZ9wordModelR5MixerE2cm, i64 0, i32 8), align 8, !tbaa !85
  %101 = add nsw i32 %100, 1
  store i32 %101, ptr getelementptr inbounds (%class.ContextMap, ptr @_ZZ9wordModelR5MixerE2cm, i64 0, i32 8), align 8, !tbaa !85
  %102 = mul i32 %99, 987654323
  %103 = add i32 %102, %100
  %104 = tail call i32 @llvm.fshl.i32(i32 %103, i32 %103, i32 16)
  %105 = mul i32 %104, 123456791
  %106 = add i32 %105, %100
  %107 = sext i32 %100 to i64
  %108 = getelementptr inbounds i32, ptr %86, i64 %107
  store i32 %106, ptr %108, align 4, !tbaa !18
  %109 = mul i32 %98, 31
  %110 = add i32 %109, %56
  %111 = load i32, ptr getelementptr inbounds (%class.ContextMap, ptr @_ZZ9wordModelR5MixerE2cm, i64 0, i32 8), align 8, !tbaa !85
  %112 = add nsw i32 %111, 1
  store i32 %112, ptr getelementptr inbounds (%class.ContextMap, ptr @_ZZ9wordModelR5MixerE2cm, i64 0, i32 8), align 8, !tbaa !85
  %113 = mul i32 %110, 987654323
  %114 = add i32 %111, %113
  %115 = tail call i32 @llvm.fshl.i32(i32 %114, i32 %114, i32 16)
  %116 = mul i32 %115, 123456791
  %117 = add i32 %116, %111
  %118 = sext i32 %111 to i64
  %119 = getelementptr inbounds i32, ptr %86, i64 %118
  store i32 %117, ptr %119, align 4, !tbaa !18
  %120 = load i32, ptr @_ZZ9wordModelR5MixerE5word2, align 4, !tbaa !18
  %121 = mul i32 %120, 29
  %122 = add i32 %121, %99
  %123 = load i32, ptr getelementptr inbounds (%class.ContextMap, ptr @_ZZ9wordModelR5MixerE2cm, i64 0, i32 8), align 8, !tbaa !85
  %124 = add nsw i32 %123, 1
  store i32 %124, ptr getelementptr inbounds (%class.ContextMap, ptr @_ZZ9wordModelR5MixerE2cm, i64 0, i32 8), align 8, !tbaa !85
  %125 = mul i32 %122, 987654323
  %126 = add i32 %125, %123
  %127 = tail call i32 @llvm.fshl.i32(i32 %126, i32 %126, i32 16)
  %128 = mul i32 %127, 123456791
  %129 = add i32 %128, %123
  %130 = sext i32 %123 to i64
  %131 = getelementptr inbounds i32, ptr %86, i64 %130
  store i32 %129, ptr %131, align 4, !tbaa !18
  %132 = load i32, ptr @_ZZ9wordModelR5MixerE5text0, align 4, !tbaa !18
  %133 = and i32 %132, 16777215
  %134 = load i32, ptr getelementptr inbounds (%class.ContextMap, ptr @_ZZ9wordModelR5MixerE2cm, i64 0, i32 8), align 8, !tbaa !85
  %135 = add nsw i32 %134, 1
  store i32 %135, ptr getelementptr inbounds (%class.ContextMap, ptr @_ZZ9wordModelR5MixerE2cm, i64 0, i32 8), align 8, !tbaa !85
  %136 = mul i32 %133, 987654323
  %137 = add i32 %136, %134
  %138 = tail call i32 @llvm.fshl.i32(i32 %137, i32 %137, i32 16)
  %139 = mul i32 %138, 123456791
  %140 = add i32 %139, %134
  %141 = sext i32 %134 to i64
  %142 = getelementptr inbounds i32, ptr %86, i64 %141
  store i32 %140, ptr %142, align 4, !tbaa !18
  %143 = and i32 %132, 1048575
  %144 = load i32, ptr getelementptr inbounds (%class.ContextMap, ptr @_ZZ9wordModelR5MixerE2cm, i64 0, i32 8), align 8, !tbaa !85
  %145 = add nsw i32 %144, 1
  store i32 %145, ptr getelementptr inbounds (%class.ContextMap, ptr @_ZZ9wordModelR5MixerE2cm, i64 0, i32 8), align 8, !tbaa !85
  %146 = mul i32 %143, 987654323
  %147 = add i32 %144, %146
  %148 = tail call i32 @llvm.fshl.i32(i32 %147, i32 %147, i32 16)
  %149 = mul i32 %148, 123456791
  %150 = add i32 %149, %144
  %151 = sext i32 %144 to i64
  %152 = getelementptr inbounds i32, ptr %86, i64 %151
  store i32 %150, ptr %152, align 4, !tbaa !18
  %153 = add i32 %120, %78
  %154 = load i32, ptr getelementptr inbounds (%class.ContextMap, ptr @_ZZ9wordModelR5MixerE2cm, i64 0, i32 8), align 8, !tbaa !85
  %155 = add nsw i32 %154, 1
  store i32 %155, ptr getelementptr inbounds (%class.ContextMap, ptr @_ZZ9wordModelR5MixerE2cm, i64 0, i32 8), align 8, !tbaa !85
  %156 = mul i32 %153, 987654323
  %157 = add i32 %154, %156
  %158 = tail call i32 @llvm.fshl.i32(i32 %157, i32 %157, i32 16)
  %159 = mul i32 %158, 123456791
  %160 = add i32 %159, %154
  %161 = sext i32 %154 to i64
  %162 = getelementptr inbounds i32, ptr %86, i64 %161
  store i32 %160, ptr %162, align 4, !tbaa !18
  %163 = load i32, ptr @_ZZ9wordModelR5MixerE5word3, align 4, !tbaa !18
  %164 = add i32 %163, %78
  %165 = load i32, ptr getelementptr inbounds (%class.ContextMap, ptr @_ZZ9wordModelR5MixerE2cm, i64 0, i32 8), align 8, !tbaa !85
  %166 = add nsw i32 %165, 1
  store i32 %166, ptr getelementptr inbounds (%class.ContextMap, ptr @_ZZ9wordModelR5MixerE2cm, i64 0, i32 8), align 8, !tbaa !85
  %167 = mul i32 %164, 987654323
  %168 = add i32 %167, %165
  %169 = tail call i32 @llvm.fshl.i32(i32 %168, i32 %168, i32 16)
  %170 = mul i32 %169, 123456791
  %171 = add i32 %170, %165
  %172 = sext i32 %165 to i64
  %173 = getelementptr inbounds i32, ptr %86, i64 %172
  store i32 %171, ptr %173, align 4, !tbaa !18
  %174 = load i32, ptr @_ZZ9wordModelR5MixerE5word4, align 4, !tbaa !18
  %175 = add i32 %174, %78
  %176 = load i32, ptr getelementptr inbounds (%class.ContextMap, ptr @_ZZ9wordModelR5MixerE2cm, i64 0, i32 8), align 8, !tbaa !85
  %177 = add nsw i32 %176, 1
  store i32 %177, ptr getelementptr inbounds (%class.ContextMap, ptr @_ZZ9wordModelR5MixerE2cm, i64 0, i32 8), align 8, !tbaa !85
  %178 = mul i32 %175, 987654323
  %179 = add i32 %178, %176
  %180 = tail call i32 @llvm.fshl.i32(i32 %179, i32 %179, i32 16)
  %181 = mul i32 %180, 123456791
  %182 = add i32 %181, %176
  %183 = sext i32 %176 to i64
  %184 = getelementptr inbounds i32, ptr %86, i64 %183
  store i32 %182, ptr %184, align 4, !tbaa !18
  %185 = load i32, ptr @_ZZ9wordModelR5MixerE5word5, align 4, !tbaa !18
  %186 = add i32 %185, %78
  %187 = load i32, ptr getelementptr inbounds (%class.ContextMap, ptr @_ZZ9wordModelR5MixerE2cm, i64 0, i32 8), align 8, !tbaa !85
  %188 = add nsw i32 %187, 1
  store i32 %188, ptr getelementptr inbounds (%class.ContextMap, ptr @_ZZ9wordModelR5MixerE2cm, i64 0, i32 8), align 8, !tbaa !85
  %189 = mul i32 %186, 987654323
  %190 = add i32 %189, %187
  %191 = tail call i32 @llvm.fshl.i32(i32 %190, i32 %190, i32 16)
  %192 = mul i32 %191, 123456791
  %193 = add i32 %192, %187
  %194 = sext i32 %187 to i64
  %195 = getelementptr inbounds i32, ptr %86, i64 %194
  store i32 %193, ptr %195, align 4, !tbaa !18
  %196 = load i32, ptr @pos, align 4, !tbaa !18
  %197 = add nsw i32 %196, -1
  %198 = load i32, ptr @buf, align 8, !tbaa !23
  %199 = add nsw i32 %198, -1
  %200 = and i32 %199, %197
  %201 = sext i32 %200 to i64
  %202 = getelementptr inbounds i8, ptr %66, i64 %201
  %203 = load i8, ptr %202, align 1, !tbaa !27
  %204 = zext i8 %203 to i32
  %205 = add nsw i32 %196, -3
  %206 = and i32 %199, %205
  %207 = sext i32 %206 to i64
  %208 = getelementptr inbounds i8, ptr %66, i64 %207
  %209 = load i8, ptr %208, align 1, !tbaa !27
  %210 = zext i8 %209 to i32
  %211 = shl nuw nsw i32 %210, 8
  %212 = or i32 %211, %204
  %213 = add nsw i32 %196, -5
  %214 = and i32 %199, %213
  %215 = sext i32 %214 to i64
  %216 = getelementptr inbounds i8, ptr %66, i64 %215
  %217 = load i8, ptr %216, align 1, !tbaa !27
  %218 = zext i8 %217 to i32
  %219 = shl nuw nsw i32 %218, 16
  %220 = or i32 %212, %219
  %221 = load i32, ptr getelementptr inbounds (%class.ContextMap, ptr @_ZZ9wordModelR5MixerE2cm, i64 0, i32 8), align 8, !tbaa !85
  %222 = add nsw i32 %221, 1
  store i32 %222, ptr getelementptr inbounds (%class.ContextMap, ptr @_ZZ9wordModelR5MixerE2cm, i64 0, i32 8), align 8, !tbaa !85
  %223 = mul i32 %220, 987654323
  %224 = add i32 %223, %221
  %225 = tail call i32 @llvm.fshl.i32(i32 %224, i32 %224, i32 16)
  %226 = mul i32 %225, 123456791
  %227 = add i32 %226, %221
  %228 = sext i32 %221 to i64
  %229 = getelementptr inbounds i32, ptr %86, i64 %228
  store i32 %227, ptr %229, align 4, !tbaa !18
  %230 = load i32, ptr @pos, align 4, !tbaa !18
  %231 = add nsw i32 %230, -2
  %232 = load i32, ptr @buf, align 8, !tbaa !23
  %233 = add nsw i32 %232, -1
  %234 = and i32 %233, %231
  %235 = sext i32 %234 to i64
  %236 = getelementptr inbounds i8, ptr %66, i64 %235
  %237 = load i8, ptr %236, align 1, !tbaa !27
  %238 = zext i8 %237 to i32
  %239 = add nsw i32 %230, -4
  %240 = and i32 %233, %239
  %241 = sext i32 %240 to i64
  %242 = getelementptr inbounds i8, ptr %66, i64 %241
  %243 = load i8, ptr %242, align 1, !tbaa !27
  %244 = zext i8 %243 to i32
  %245 = shl nuw nsw i32 %244, 8
  %246 = or i32 %245, %238
  %247 = add nsw i32 %230, -6
  %248 = and i32 %233, %247
  %249 = sext i32 %248 to i64
  %250 = getelementptr inbounds i8, ptr %66, i64 %249
  %251 = load i8, ptr %250, align 1, !tbaa !27
  %252 = zext i8 %251 to i32
  %253 = shl nuw nsw i32 %252, 16
  %254 = or i32 %246, %253
  %255 = load i32, ptr getelementptr inbounds (%class.ContextMap, ptr @_ZZ9wordModelR5MixerE2cm, i64 0, i32 8), align 8, !tbaa !85
  %256 = add nsw i32 %255, 1
  store i32 %256, ptr getelementptr inbounds (%class.ContextMap, ptr @_ZZ9wordModelR5MixerE2cm, i64 0, i32 8), align 8, !tbaa !85
  %257 = mul i32 %254, 987654323
  %258 = add i32 %257, %255
  %259 = tail call i32 @llvm.fshl.i32(i32 %258, i32 %258, i32 16)
  %260 = mul i32 %259, 123456791
  %261 = add i32 %260, %255
  %262 = sext i32 %255 to i64
  %263 = getelementptr inbounds i32, ptr %86, i64 %262
  store i32 %261, ptr %263, align 4, !tbaa !18
  %264 = add i32 %163, %99
  %265 = load i32, ptr getelementptr inbounds (%class.ContextMap, ptr @_ZZ9wordModelR5MixerE2cm, i64 0, i32 8), align 8, !tbaa !85
  %266 = add nsw i32 %265, 1
  store i32 %266, ptr getelementptr inbounds (%class.ContextMap, ptr @_ZZ9wordModelR5MixerE2cm, i64 0, i32 8), align 8, !tbaa !85
  %267 = mul i32 %264, 987654323
  %268 = add i32 %265, %267
  %269 = tail call i32 @llvm.fshl.i32(i32 %268, i32 %268, i32 16)
  %270 = mul i32 %269, 123456791
  %271 = add i32 %270, %265
  %272 = sext i32 %265 to i64
  %273 = getelementptr inbounds i32, ptr %86, i64 %272
  store i32 %271, ptr %273, align 4, !tbaa !18
  %274 = add i32 %163, %153
  %275 = load i32, ptr getelementptr inbounds (%class.ContextMap, ptr @_ZZ9wordModelR5MixerE2cm, i64 0, i32 8), align 8, !tbaa !85
  %276 = add nsw i32 %275, 1
  store i32 %276, ptr getelementptr inbounds (%class.ContextMap, ptr @_ZZ9wordModelR5MixerE2cm, i64 0, i32 8), align 8, !tbaa !85
  %277 = mul i32 %274, 987654323
  %278 = add i32 %275, %277
  %279 = tail call i32 @llvm.fshl.i32(i32 %278, i32 %278, i32 16)
  %280 = mul i32 %279, 123456791
  %281 = add i32 %280, %275
  %282 = sext i32 %275 to i64
  %283 = getelementptr inbounds i32, ptr %86, i64 %282
  store i32 %281, ptr %283, align 4, !tbaa !18
  %284 = shl i32 %60, 16
  %285 = load i32, ptr @pos, align 4, !tbaa !18
  %286 = add nsw i32 %285, -1
  %287 = load i32, ptr @buf, align 8, !tbaa !23
  %288 = add nsw i32 %287, -1
  %289 = and i32 %288, %286
  %290 = sext i32 %289 to i64
  %291 = getelementptr inbounds i8, ptr %66, i64 %290
  %292 = load i8, ptr %291, align 1, !tbaa !27
  %293 = zext i8 %292 to i32
  %294 = shl nuw nsw i32 %293, 8
  %295 = or i32 %294, %284
  %296 = or i32 %295, %70
  %297 = load i32, ptr getelementptr inbounds (%class.ContextMap, ptr @_ZZ9wordModelR5MixerE2cm, i64 0, i32 8), align 8, !tbaa !85
  %298 = add nsw i32 %297, 1
  store i32 %298, ptr getelementptr inbounds (%class.ContextMap, ptr @_ZZ9wordModelR5MixerE2cm, i64 0, i32 8), align 8, !tbaa !85
  %299 = mul i32 %296, 987654323
  %300 = add i32 %299, %297
  %301 = tail call i32 @llvm.fshl.i32(i32 %300, i32 %300, i32 16)
  %302 = mul i32 %301, 123456791
  %303 = add i32 %302, %297
  %304 = sext i32 %297 to i64
  %305 = getelementptr inbounds i32, ptr %86, i64 %304
  store i32 %303, ptr %305, align 4, !tbaa !18
  %306 = load i32, ptr @pos, align 4, !tbaa !18
  %307 = add nsw i32 %306, -1
  %308 = load i32, ptr @buf, align 8, !tbaa !23
  %309 = add nsw i32 %308, -1
  %310 = and i32 %309, %307
  %311 = sext i32 %310 to i64
  %312 = getelementptr inbounds i8, ptr %66, i64 %311
  %313 = load i8, ptr %312, align 1, !tbaa !27
  %314 = zext i8 %313 to i32
  %315 = shl nuw nsw i32 %314, 8
  %316 = or i32 %315, %70
  %317 = load i32, ptr getelementptr inbounds (%class.ContextMap, ptr @_ZZ9wordModelR5MixerE2cm, i64 0, i32 8), align 8, !tbaa !85
  %318 = add nsw i32 %317, 1
  store i32 %318, ptr getelementptr inbounds (%class.ContextMap, ptr @_ZZ9wordModelR5MixerE2cm, i64 0, i32 8), align 8, !tbaa !85
  %319 = mul i32 %316, 987654323
  %320 = add i32 %319, %317
  %321 = tail call i32 @llvm.fshl.i32(i32 %320, i32 %320, i32 16)
  %322 = mul i32 %321, 123456791
  %323 = add i32 %322, %317
  %324 = sext i32 %317 to i64
  %325 = getelementptr inbounds i32, ptr %86, i64 %324
  store i32 %323, ptr %325, align 4, !tbaa !18
  %326 = shl i32 %60, 8
  %327 = load i32, ptr @pos, align 4, !tbaa !18
  %328 = add nsw i32 %327, -1
  %329 = load i32, ptr @buf, align 8, !tbaa !23
  %330 = add nsw i32 %329, -1
  %331 = and i32 %330, %328
  %332 = sext i32 %331 to i64
  %333 = getelementptr inbounds i8, ptr %66, i64 %332
  %334 = load i8, ptr %333, align 1, !tbaa !27
  %335 = zext i8 %334 to i32
  %336 = or i32 %326, %335
  %337 = load i32, ptr getelementptr inbounds (%class.ContextMap, ptr @_ZZ9wordModelR5MixerE2cm, i64 0, i32 8), align 8, !tbaa !85
  %338 = add nsw i32 %337, 1
  store i32 %338, ptr getelementptr inbounds (%class.ContextMap, ptr @_ZZ9wordModelR5MixerE2cm, i64 0, i32 8), align 8, !tbaa !85
  %339 = mul i32 %336, 987654323
  %340 = add i32 %339, %337
  %341 = tail call i32 @llvm.fshl.i32(i32 %340, i32 %340, i32 16)
  %342 = mul i32 %341, 123456791
  %343 = add i32 %342, %337
  %344 = sext i32 %337 to i64
  %345 = getelementptr inbounds i32, ptr %86, i64 %344
  store i32 %343, ptr %345, align 4, !tbaa !18
  %346 = load i32, ptr getelementptr inbounds (%class.ContextMap, ptr @_ZZ9wordModelR5MixerE2cm, i64 0, i32 8), align 8, !tbaa !85
  %347 = add nsw i32 %346, 1
  store i32 %347, ptr getelementptr inbounds (%class.ContextMap, ptr @_ZZ9wordModelR5MixerE2cm, i64 0, i32 8), align 8, !tbaa !85
  %348 = mul i32 %60, 987654323
  %349 = add i32 %346, %348
  %350 = tail call i32 @llvm.fshl.i32(i32 %349, i32 %349, i32 16)
  %351 = mul i32 %350, 123456791
  %352 = add i32 %351, %346
  %353 = sext i32 %346 to i64
  %354 = getelementptr inbounds i32, ptr %86, i64 %353
  store i32 %352, ptr %354, align 4, !tbaa !18
  br label %355

355:                                              ; preds = %55, %12
  %356 = tail call noundef i32 @_ZN10ContextMap3mixER5Mixer(ptr noundef nonnull align 8 dereferenceable(140) @_ZZ9wordModelR5MixerE2cm, ptr noundef nonnull align 8 dereferenceable(136) %0) #32
  ret void
}

; Function Attrs: nocallback nofree nosync nounwind speculatable willreturn memory(none)
declare i32 @llvm.fshl.i32(i32, i32, i32) #14

; Function Attrs: mustprogress optsize uwtable
define internal noundef i32 @_ZN10ContextMap3mixER5Mixer(ptr noundef nonnull align 8 dereferenceable(140) %0, ptr noundef nonnull align 8 dereferenceable(136) %1) #7 comdat align 2 {
  %3 = load i32, ptr @c0, align 4, !tbaa !18
  %4 = load i32, ptr @bpos, align 4, !tbaa !18
  %5 = load i32, ptr @pos, align 4, !tbaa !18
  %6 = add nsw i32 %5, -1
  %7 = load i32, ptr @buf, align 8, !tbaa !23
  %8 = add nsw i32 %7, -1
  %9 = and i32 %8, %6
  %10 = load ptr, ptr getelementptr inbounds (%class.Buf, ptr @buf, i64 0, i32 0, i32 3), align 8, !tbaa !26
  %11 = sext i32 %9 to i64
  %12 = getelementptr inbounds i8, ptr %10, i64 %11
  %13 = load i8, ptr %12, align 1, !tbaa !27
  %14 = zext i8 %13 to i32
  %15 = load i32, ptr @y, align 4, !tbaa !18
  %16 = tail call noundef i32 @_ZN10ContextMap4mix1ER5Mixeriiii(ptr noundef nonnull align 8 dereferenceable(140) %0, ptr noundef nonnull align 8 dereferenceable(136) %1, i32 noundef %3, i32 noundef %4, i32 noundef %14, i32 noundef %15) #32
  ret i32 %16
}

; Function Attrs: mustprogress optsize uwtable
define internal void @_Z11recordModelR5Mixer(ptr noundef nonnull align 8 dereferenceable(136) %0) #7 personality ptr @__gxx_personality_v0 {
  %2 = load atomic i8, ptr @_ZGVZ11recordModelR5MixerE2cm acquire, align 8
  %3 = icmp eq i8 %2, 0
  br i1 %3, label %4, label %10, !prof !100

4:                                                ; preds = %1
  %5 = tail call i32 @__cxa_guard_acquire(ptr nonnull @_ZGVZ11recordModelR5MixerE2cm) #33
  %6 = icmp eq i32 %5, 0
  br i1 %6, label %10, label %7

7:                                                ; preds = %4
  invoke void @_ZN10ContextMapC2Eii(ptr noundef nonnull align 8 dereferenceable(140) @_ZZ11recordModelR5MixerE2cm, i32 noundef 32768, i32 noundef 3) #32
          to label %8 unwind label %98

8:                                                ; preds = %7
  %9 = tail call i32 @__cxa_atexit(ptr nonnull @_ZN10ContextMapD2Ev, ptr nonnull @_ZZ11recordModelR5MixerE2cm, ptr nonnull @__dso_handle) #33
  tail call void @__cxa_guard_release(ptr nonnull @_ZGVZ11recordModelR5MixerE2cm) #33
  br label %10

10:                                               ; preds = %8, %4, %1
  %11 = load atomic i8, ptr @_ZGVZ11recordModelR5MixerE2cn acquire, align 8
  %12 = icmp eq i8 %11, 0
  br i1 %12, label %13, label %19, !prof !100

13:                                               ; preds = %10
  %14 = tail call i32 @__cxa_guard_acquire(ptr nonnull @_ZGVZ11recordModelR5MixerE2cn) #33
  %15 = icmp eq i32 %14, 0
  br i1 %15, label %19, label %16

16:                                               ; preds = %13
  invoke void @_ZN10ContextMapC2Eii(ptr noundef nonnull align 8 dereferenceable(140) @_ZZ11recordModelR5MixerE2cn, i32 noundef 16384, i32 noundef 3) #32
          to label %17 unwind label %100

17:                                               ; preds = %16
  %18 = tail call i32 @__cxa_atexit(ptr nonnull @_ZN10ContextMapD2Ev, ptr nonnull @_ZZ11recordModelR5MixerE2cn, ptr nonnull @__dso_handle) #33
  tail call void @__cxa_guard_release(ptr nonnull @_ZGVZ11recordModelR5MixerE2cn) #33
  br label %19

19:                                               ; preds = %17, %13, %10
  %20 = load atomic i8, ptr @_ZGVZ11recordModelR5MixerE2co acquire, align 8
  %21 = icmp eq i8 %20, 0
  br i1 %21, label %22, label %28, !prof !100

22:                                               ; preds = %19
  %23 = tail call i32 @__cxa_guard_acquire(ptr nonnull @_ZGVZ11recordModelR5MixerE2co) #33
  %24 = icmp eq i32 %23, 0
  br i1 %24, label %28, label %25

25:                                               ; preds = %22
  invoke void @_ZN10ContextMapC2Eii(ptr noundef nonnull align 8 dereferenceable(140) @_ZZ11recordModelR5MixerE2co, i32 noundef 65536, i32 noundef 3) #32
          to label %26 unwind label %102

26:                                               ; preds = %25
  %27 = tail call i32 @__cxa_atexit(ptr nonnull @_ZN10ContextMapD2Ev, ptr nonnull @_ZZ11recordModelR5MixerE2co, ptr nonnull @__dso_handle) #33
  tail call void @__cxa_guard_release(ptr nonnull @_ZGVZ11recordModelR5MixerE2co) #33
  br label %28

28:                                               ; preds = %26, %22, %19
  %29 = load atomic i8, ptr @_ZGVZ11recordModelR5MixerE2cp acquire, align 8
  %30 = icmp eq i8 %29, 0
  br i1 %30, label %31, label %39, !prof !100

31:                                               ; preds = %28
  %32 = tail call i32 @__cxa_guard_acquire(ptr nonnull @_ZGVZ11recordModelR5MixerE2cp) #33
  %33 = icmp eq i32 %32, 0
  br i1 %33, label %39, label %34

34:                                               ; preds = %31
  %35 = load i32, ptr @level, align 4, !tbaa !18
  %36 = shl i32 65536, %35
  invoke void @_ZN10ContextMapC2Eii(ptr noundef nonnull align 8 dereferenceable(140) @_ZZ11recordModelR5MixerE2cp, i32 noundef %36, i32 noundef 3) #32
          to label %37 unwind label %104

37:                                               ; preds = %34
  %38 = tail call i32 @__cxa_atexit(ptr nonnull @_ZN10ContextMapD2Ev, ptr nonnull @_ZZ11recordModelR5MixerE2cp, ptr nonnull @__dso_handle) #33
  tail call void @__cxa_guard_release(ptr nonnull @_ZGVZ11recordModelR5MixerE2cp) #33
  br label %39

39:                                               ; preds = %37, %31, %28
  %40 = load i32, ptr @bpos, align 4, !tbaa !18
  %41 = icmp eq i32 %40, 0
  br i1 %41, label %42, label %434

42:                                               ; preds = %39
  %43 = load i32, ptr @c4, align 4, !tbaa !18
  %44 = and i32 %43, 65535
  %45 = and i32 %43, 255
  %46 = lshr i32 %44, 8
  %47 = load i32, ptr @pos, align 4, !tbaa !18
  %48 = zext i32 %45 to i64
  %49 = getelementptr inbounds [256 x i32], ptr @_ZZ11recordModelR5MixerE5cpos1, i64 0, i64 %48
  %50 = load i32, ptr %49, align 4, !tbaa !18
  %51 = sub nsw i32 %47, %50
  %52 = icmp sgt i32 %51, 1
  br i1 %52, label %53, label %120

53:                                               ; preds = %42
  %54 = getelementptr inbounds [256 x i32], ptr @_ZZ11recordModelR5MixerE5cpos2, i64 0, i64 %48
  %55 = load i32, ptr %54, align 4, !tbaa !18
  %56 = sub nsw i32 %50, %55
  %57 = icmp eq i32 %51, %56
  br i1 %57, label %58, label %120

58:                                               ; preds = %53
  %59 = getelementptr inbounds [256 x i32], ptr @_ZZ11recordModelR5MixerE5cpos3, i64 0, i64 %48
  %60 = load i32, ptr %59, align 4, !tbaa !18
  %61 = sub nsw i32 %55, %60
  %62 = icmp eq i32 %51, %61
  br i1 %62, label %63, label %120

63:                                               ; preds = %58
  %64 = getelementptr inbounds [256 x i32], ptr @_ZZ11recordModelR5MixerE5cpos4, i64 0, i64 %48
  %65 = load i32, ptr %64, align 4, !tbaa !18
  %66 = sub nsw i32 %60, %65
  %67 = icmp eq i32 %51, %66
  br i1 %67, label %68, label %120

68:                                               ; preds = %63
  %69 = icmp ugt i32 %51, 15
  br i1 %69, label %92, label %70

70:                                               ; preds = %68
  %71 = mul nuw nsw i32 %51, 5
  %72 = xor i32 %71, -1
  %73 = add i32 %47, %72
  %74 = load i32, ptr @buf, align 8, !tbaa !23
  %75 = add nsw i32 %74, -1
  %76 = and i32 %75, %73
  %77 = load ptr, ptr getelementptr inbounds (%class.Buf, ptr @buf, i64 0, i32 0, i32 3), align 8, !tbaa !26
  %78 = sext i32 %76 to i64
  %79 = getelementptr inbounds i8, ptr %77, i64 %78
  %80 = load i8, ptr %79, align 1, !tbaa !27
  %81 = trunc i32 %43 to i8
  %82 = icmp eq i8 %80, %81
  br i1 %82, label %83, label %120

83:                                               ; preds = %70
  %84 = mul nuw nsw i32 %51, 6
  %85 = xor i32 %84, -1
  %86 = add i32 %47, %85
  %87 = and i32 %75, %86
  %88 = sext i32 %87 to i64
  %89 = getelementptr inbounds i8, ptr %77, i64 %88
  %90 = load i8, ptr %89, align 1, !tbaa !27
  %91 = icmp eq i8 %90, %80
  br i1 %91, label %92, label %120

92:                                               ; preds = %83, %68
  %93 = load i32, ptr @_ZZ11recordModelR5MixerE5rlen1, align 4, !tbaa !18
  %94 = icmp eq i32 %51, %93
  br i1 %94, label %95, label %106

95:                                               ; preds = %92
  %96 = load i32, ptr @_ZZ11recordModelR5MixerE7rcount1, align 4, !tbaa !18
  %97 = add nsw i32 %96, 1
  store i32 %97, ptr @_ZZ11recordModelR5MixerE7rcount1, align 4, !tbaa !18
  br label %122

98:                                               ; preds = %7
  %99 = landingpad { ptr, i32 }
          cleanup
  br label %439

100:                                              ; preds = %16
  %101 = landingpad { ptr, i32 }
          cleanup
  br label %439

102:                                              ; preds = %25
  %103 = landingpad { ptr, i32 }
          cleanup
  br label %439

104:                                              ; preds = %34
  %105 = landingpad { ptr, i32 }
          cleanup
  br label %439

106:                                              ; preds = %92
  %107 = load i32, ptr @_ZZ11recordModelR5MixerE5rlen2, align 4, !tbaa !18
  %108 = icmp eq i32 %51, %107
  br i1 %108, label %109, label %112

109:                                              ; preds = %106
  %110 = load i32, ptr @_ZZ11recordModelR5MixerE7rcount2, align 4, !tbaa !18
  %111 = add nsw i32 %110, 1
  br label %118

112:                                              ; preds = %106
  %113 = load i32, ptr @_ZZ11recordModelR5MixerE7rcount1, align 4, !tbaa !18
  %114 = load i32, ptr @_ZZ11recordModelR5MixerE7rcount2, align 4, !tbaa !18
  %115 = icmp sgt i32 %113, %114
  br i1 %115, label %116, label %117

116:                                              ; preds = %112
  store i32 %51, ptr @_ZZ11recordModelR5MixerE5rlen2, align 4, !tbaa !18
  br label %118

117:                                              ; preds = %112
  store i32 %51, ptr @_ZZ11recordModelR5MixerE5rlen1, align 4, !tbaa !18
  store i32 1, ptr @_ZZ11recordModelR5MixerE7rcount1, align 4, !tbaa !18
  br label %131

118:                                              ; preds = %116, %109
  %119 = phi i32 [ %111, %109 ], [ 1, %116 ]
  store i32 %119, ptr @_ZZ11recordModelR5MixerE7rcount2, align 4, !tbaa !18
  br label %120

120:                                              ; preds = %118, %83, %70, %63, %58, %53, %42
  %121 = load i32, ptr @_ZZ11recordModelR5MixerE7rcount1, align 4, !tbaa !18
  br label %122

122:                                              ; preds = %120, %95
  %123 = phi i32 [ %121, %120 ], [ %97, %95 ]
  %124 = icmp sgt i32 %123, 15
  br i1 %124, label %125, label %129

125:                                              ; preds = %122
  %126 = load i32, ptr @_ZZ11recordModelR5MixerE4rlen, align 4, !tbaa !18
  %127 = load i32, ptr @_ZZ11recordModelR5MixerE5rlen1, align 4, !tbaa !18
  %128 = icmp eq i32 %126, %127
  br i1 %128, label %129, label %138

129:                                              ; preds = %125, %122
  %130 = load i32, ptr @_ZZ11recordModelR5MixerE7rcount2, align 4, !tbaa !18
  br label %131

131:                                              ; preds = %129, %117
  %132 = phi i32 [ %130, %129 ], [ %114, %117 ]
  %133 = icmp sgt i32 %132, 15
  br i1 %133, label %134, label %140

134:                                              ; preds = %131
  %135 = load i32, ptr @_ZZ11recordModelR5MixerE4rlen, align 4, !tbaa !18
  %136 = load i32, ptr @_ZZ11recordModelR5MixerE5rlen2, align 4, !tbaa !18
  %137 = icmp eq i32 %135, %136
  br i1 %137, label %140, label %138

138:                                              ; preds = %134, %125
  %139 = phi i32 [ %127, %125 ], [ %136, %134 ]
  store i32 %139, ptr @_ZZ11recordModelR5MixerE4rlen, align 4, !tbaa !18
  store i32 0, ptr @_ZZ11recordModelR5MixerE7rcount2, align 4, !tbaa !18
  store i32 0, ptr @_ZZ11recordModelR5MixerE7rcount1, align 4, !tbaa !18
  br label %140

140:                                              ; preds = %138, %134, %131
  %141 = shl nuw nsw i32 %45, 8
  %142 = tail call i32 @llvm.smin.i32(i32 %51, i32 255)
  %143 = sdiv i32 %142, 4
  %144 = or i32 %143, %141
  %145 = load i32, ptr getelementptr inbounds (%class.ContextMap, ptr @_ZZ11recordModelR5MixerE2cm, i64 0, i32 8), align 8, !tbaa !85
  %146 = add nsw i32 %145, 1
  store i32 %146, ptr getelementptr inbounds (%class.ContextMap, ptr @_ZZ11recordModelR5MixerE2cm, i64 0, i32 8), align 8, !tbaa !85
  %147 = mul i32 %144, 987654323
  %148 = add i32 %145, %147
  %149 = tail call i32 @llvm.fshl.i32(i32 %148, i32 %148, i32 16)
  %150 = mul i32 %149, 123456791
  %151 = add i32 %150, %145
  %152 = load ptr, ptr getelementptr inbounds (%class.ContextMap, ptr @_ZZ11recordModelR5MixerE2cm, i64 0, i32 5, i32 3), align 8, !tbaa !15
  %153 = sext i32 %145 to i64
  %154 = getelementptr inbounds i32, ptr %152, i64 %153
  store i32 %151, ptr %154, align 4, !tbaa !18
  %155 = shl nuw nsw i32 %44, 9
  %156 = load i32, ptr @pos, align 4, !tbaa !18
  %157 = zext i32 %44 to i64
  %158 = getelementptr inbounds [65536 x i32], ptr @_ZZ11recordModelR5MixerE5wpos1, i64 0, i64 %157
  %159 = load i32, ptr %158, align 4, !tbaa !18
  %160 = sub nsw i32 %156, %159
  %161 = icmp ugt i32 %160, 16777215
  br i1 %161, label %162, label %170

162:                                              ; preds = %140
  %163 = lshr i32 %160, 16
  %164 = zext i32 %163 to i64
  %165 = load ptr, ptr getelementptr inbounds (%class.Buf, ptr @ilog, i64 0, i32 0, i32 3), align 8, !tbaa !26
  %166 = getelementptr inbounds i8, ptr %165, i64 %164
  %167 = load i8, ptr %166, align 1, !tbaa !27
  %168 = zext i8 %167 to i32
  %169 = or i32 %168, 256
  br label %186

170:                                              ; preds = %140
  %171 = icmp ugt i32 %160, 65535
  br i1 %171, label %172, label %180

172:                                              ; preds = %170
  %173 = lshr i32 %160, 8
  %174 = load ptr, ptr getelementptr inbounds (%class.Buf, ptr @ilog, i64 0, i32 0, i32 3), align 8, !tbaa !26
  %175 = zext i32 %173 to i64
  %176 = getelementptr inbounds i8, ptr %174, i64 %175
  %177 = load i8, ptr %176, align 1, !tbaa !27
  %178 = zext i8 %177 to i32
  %179 = add nuw nsw i32 %178, 128
  br label %186

180:                                              ; preds = %170
  %181 = load ptr, ptr getelementptr inbounds (%class.Buf, ptr @ilog, i64 0, i32 0, i32 3), align 8, !tbaa !26
  %182 = zext i32 %160 to i64
  %183 = getelementptr inbounds i8, ptr %181, i64 %182
  %184 = load i8, ptr %183, align 1, !tbaa !27
  %185 = zext i8 %184 to i32
  br label %186

186:                                              ; preds = %180, %172, %162
  %187 = phi i32 [ %169, %162 ], [ %179, %172 ], [ %185, %180 ]
  %188 = lshr i32 %187, 2
  %189 = or i32 %188, %155
  %190 = load i32, ptr getelementptr inbounds (%class.ContextMap, ptr @_ZZ11recordModelR5MixerE2cm, i64 0, i32 8), align 8, !tbaa !85
  %191 = add nsw i32 %190, 1
  store i32 %191, ptr getelementptr inbounds (%class.ContextMap, ptr @_ZZ11recordModelR5MixerE2cm, i64 0, i32 8), align 8, !tbaa !85
  %192 = mul i32 %189, 987654323
  %193 = add i32 %192, %190
  %194 = tail call i32 @llvm.fshl.i32(i32 %193, i32 %193, i32 16)
  %195 = mul i32 %194, 123456791
  %196 = add i32 %195, %190
  %197 = sext i32 %190 to i64
  %198 = getelementptr inbounds i32, ptr %152, i64 %197
  store i32 %196, ptr %198, align 4, !tbaa !18
  %199 = load i32, ptr @_ZZ11recordModelR5MixerE4rlen, align 4, !tbaa !18
  %200 = load i32, ptr @pos, align 4, !tbaa !18
  %201 = sub nsw i32 %200, %199
  %202 = load i32, ptr @buf, align 8, !tbaa !23
  %203 = add nsw i32 %202, -1
  %204 = and i32 %203, %201
  %205 = load ptr, ptr getelementptr inbounds (%class.Buf, ptr @buf, i64 0, i32 0, i32 3), align 8, !tbaa !26
  %206 = sext i32 %204 to i64
  %207 = getelementptr inbounds i8, ptr %205, i64 %206
  %208 = load i8, ptr %207, align 1, !tbaa !27
  %209 = zext i8 %208 to i32
  %210 = shl nuw nsw i32 %209, 10
  %211 = shl nuw nsw i32 %199, 1
  %212 = sub nsw i32 %200, %211
  %213 = and i32 %203, %212
  %214 = sext i32 %213 to i64
  %215 = getelementptr inbounds i8, ptr %205, i64 %214
  %216 = load i8, ptr %215, align 1, !tbaa !27
  %217 = zext i8 %216 to i32
  %218 = shl nuw nsw i32 %217, 18
  %219 = or i32 %210, %218
  %220 = or i32 %219, %199
  %221 = load i32, ptr getelementptr inbounds (%class.ContextMap, ptr @_ZZ11recordModelR5MixerE2cm, i64 0, i32 8), align 8, !tbaa !85
  %222 = add nsw i32 %221, 1
  store i32 %222, ptr getelementptr inbounds (%class.ContextMap, ptr @_ZZ11recordModelR5MixerE2cm, i64 0, i32 8), align 8, !tbaa !85
  %223 = mul i32 %220, 987654323
  %224 = add i32 %223, %221
  %225 = tail call i32 @llvm.fshl.i32(i32 %224, i32 %224, i32 16)
  %226 = mul i32 %225, 123456791
  %227 = add i32 %226, %221
  %228 = sext i32 %221 to i64
  %229 = getelementptr inbounds i32, ptr %152, i64 %228
  store i32 %227, ptr %229, align 4, !tbaa !18
  %230 = shl i32 %199, 8
  %231 = or i32 %230, %44
  %232 = load i32, ptr getelementptr inbounds (%class.ContextMap, ptr @_ZZ11recordModelR5MixerE2cn, i64 0, i32 8), align 8, !tbaa !85
  %233 = add nsw i32 %232, 1
  store i32 %233, ptr getelementptr inbounds (%class.ContextMap, ptr @_ZZ11recordModelR5MixerE2cn, i64 0, i32 8), align 8, !tbaa !85
  %234 = mul i32 %231, 987654323
  %235 = add i32 %232, %234
  %236 = tail call i32 @llvm.fshl.i32(i32 %235, i32 %235, i32 16)
  %237 = mul i32 %236, 123456791
  %238 = add i32 %237, %232
  %239 = load ptr, ptr getelementptr inbounds (%class.ContextMap, ptr @_ZZ11recordModelR5MixerE2cn, i64 0, i32 5, i32 3), align 8, !tbaa !15
  %240 = sext i32 %232 to i64
  %241 = getelementptr inbounds i32, ptr %239, i64 %240
  store i32 %238, ptr %241, align 4, !tbaa !18
  %242 = shl i32 %199, 16
  %243 = or i32 %242, %46
  %244 = load i32, ptr getelementptr inbounds (%class.ContextMap, ptr @_ZZ11recordModelR5MixerE2cn, i64 0, i32 8), align 8, !tbaa !85
  %245 = add nsw i32 %244, 1
  store i32 %245, ptr getelementptr inbounds (%class.ContextMap, ptr @_ZZ11recordModelR5MixerE2cn, i64 0, i32 8), align 8, !tbaa !85
  %246 = mul i32 %243, 987654323
  %247 = add i32 %244, %246
  %248 = tail call i32 @llvm.fshl.i32(i32 %247, i32 %247, i32 16)
  %249 = mul i32 %248, 123456791
  %250 = add i32 %249, %244
  %251 = sext i32 %244 to i64
  %252 = getelementptr inbounds i32, ptr %239, i64 %251
  store i32 %250, ptr %252, align 4, !tbaa !18
  %253 = or i32 %230, %45
  %254 = load i32, ptr getelementptr inbounds (%class.ContextMap, ptr @_ZZ11recordModelR5MixerE2cn, i64 0, i32 8), align 8, !tbaa !85
  %255 = add nsw i32 %254, 1
  store i32 %255, ptr getelementptr inbounds (%class.ContextMap, ptr @_ZZ11recordModelR5MixerE2cn, i64 0, i32 8), align 8, !tbaa !85
  %256 = mul i32 %253, 987654323
  %257 = add i32 %254, %256
  %258 = tail call i32 @llvm.fshl.i32(i32 %257, i32 %257, i32 16)
  %259 = mul i32 %258, 123456791
  %260 = add i32 %259, %254
  %261 = sext i32 %254 to i64
  %262 = getelementptr inbounds i32, ptr %239, i64 %261
  store i32 %260, ptr %262, align 4, !tbaa !18
  %263 = load i32, ptr @pos, align 4, !tbaa !18
  %264 = add nsw i32 %263, -1
  %265 = load i32, ptr @buf, align 8, !tbaa !23
  %266 = add nsw i32 %265, -1
  %267 = and i32 %266, %264
  %268 = sext i32 %267 to i64
  %269 = getelementptr inbounds i8, ptr %205, i64 %268
  %270 = load i8, ptr %269, align 1, !tbaa !27
  %271 = zext i8 %270 to i32
  %272 = shl nuw nsw i32 %271, 8
  %273 = zext i8 %270 to i64
  %274 = getelementptr inbounds [256 x i32], ptr @_ZZ11recordModelR5MixerE5cpos1, i64 0, i64 %273
  %275 = load i32, ptr %274, align 4, !tbaa !18
  %276 = sub nsw i32 %263, %275
  %277 = tail call i32 @llvm.smin.i32(i32 %276, i32 255)
  %278 = or i32 %277, %272
  %279 = load i32, ptr getelementptr inbounds (%class.ContextMap, ptr @_ZZ11recordModelR5MixerE2co, i64 0, i32 8), align 8, !tbaa !85
  %280 = add nsw i32 %279, 1
  store i32 %280, ptr getelementptr inbounds (%class.ContextMap, ptr @_ZZ11recordModelR5MixerE2co, i64 0, i32 8), align 8, !tbaa !85
  %281 = mul i32 %278, 987654323
  %282 = add i32 %281, %279
  %283 = tail call i32 @llvm.fshl.i32(i32 %282, i32 %282, i32 16)
  %284 = mul i32 %283, 123456791
  %285 = add i32 %284, %279
  %286 = load ptr, ptr getelementptr inbounds (%class.ContextMap, ptr @_ZZ11recordModelR5MixerE2co, i64 0, i32 5, i32 3), align 8, !tbaa !15
  %287 = sext i32 %279 to i64
  %288 = getelementptr inbounds i32, ptr %286, i64 %287
  store i32 %285, ptr %288, align 4, !tbaa !18
  %289 = load i32, ptr @pos, align 4, !tbaa !18
  %290 = add nsw i32 %289, -1
  %291 = load i32, ptr @buf, align 8, !tbaa !23
  %292 = add nsw i32 %291, -1
  %293 = and i32 %292, %290
  %294 = sext i32 %293 to i64
  %295 = getelementptr inbounds i8, ptr %205, i64 %294
  %296 = load i8, ptr %295, align 1, !tbaa !27
  %297 = zext i8 %296 to i32
  %298 = shl nuw nsw i32 %297, 17
  %299 = add nsw i32 %289, -2
  %300 = and i32 %292, %299
  %301 = sext i32 %300 to i64
  %302 = getelementptr inbounds i8, ptr %205, i64 %301
  %303 = load i8, ptr %302, align 1, !tbaa !27
  %304 = zext i8 %303 to i32
  %305 = shl nuw nsw i32 %304, 9
  %306 = or i32 %305, %298
  %307 = sub nsw i32 %289, %159
  %308 = icmp ugt i32 %307, 16777215
  br i1 %308, label %309, label %317

309:                                              ; preds = %186
  %310 = lshr i32 %307, 16
  %311 = zext i32 %310 to i64
  %312 = load ptr, ptr getelementptr inbounds (%class.Buf, ptr @ilog, i64 0, i32 0, i32 3), align 8, !tbaa !26
  %313 = getelementptr inbounds i8, ptr %312, i64 %311
  %314 = load i8, ptr %313, align 1, !tbaa !27
  %315 = zext i8 %314 to i32
  %316 = or i32 %315, 256
  br label %333

317:                                              ; preds = %186
  %318 = icmp ugt i32 %307, 65535
  br i1 %318, label %319, label %327

319:                                              ; preds = %317
  %320 = lshr i32 %307, 8
  %321 = load ptr, ptr getelementptr inbounds (%class.Buf, ptr @ilog, i64 0, i32 0, i32 3), align 8, !tbaa !26
  %322 = zext i32 %320 to i64
  %323 = getelementptr inbounds i8, ptr %321, i64 %322
  %324 = load i8, ptr %323, align 1, !tbaa !27
  %325 = zext i8 %324 to i32
  %326 = add nuw nsw i32 %325, 128
  br label %333

327:                                              ; preds = %317
  %328 = load ptr, ptr getelementptr inbounds (%class.Buf, ptr @ilog, i64 0, i32 0, i32 3), align 8, !tbaa !26
  %329 = zext i32 %307 to i64
  %330 = getelementptr inbounds i8, ptr %328, i64 %329
  %331 = load i8, ptr %330, align 1, !tbaa !27
  %332 = zext i8 %331 to i32
  br label %333

333:                                              ; preds = %327, %319, %309
  %334 = phi i32 [ %316, %309 ], [ %326, %319 ], [ %332, %327 ]
  %335 = lshr i32 %334, 2
  %336 = or i32 %306, %335
  %337 = load i32, ptr getelementptr inbounds (%class.ContextMap, ptr @_ZZ11recordModelR5MixerE2co, i64 0, i32 8), align 8, !tbaa !85
  %338 = add nsw i32 %337, 1
  store i32 %338, ptr getelementptr inbounds (%class.ContextMap, ptr @_ZZ11recordModelR5MixerE2co, i64 0, i32 8), align 8, !tbaa !85
  %339 = mul i32 %336, 987654323
  %340 = add i32 %339, %337
  %341 = tail call i32 @llvm.fshl.i32(i32 %340, i32 %340, i32 16)
  %342 = mul i32 %341, 123456791
  %343 = add i32 %342, %337
  %344 = sext i32 %337 to i64
  %345 = getelementptr inbounds i32, ptr %286, i64 %344
  store i32 %343, ptr %345, align 4, !tbaa !18
  %346 = load i32, ptr @pos, align 4, !tbaa !18
  %347 = srem i32 %346, %199
  %348 = add nsw i32 %346, -1
  %349 = load i32, ptr @buf, align 8, !tbaa !23
  %350 = add nsw i32 %349, -1
  %351 = and i32 %350, %348
  %352 = sext i32 %351 to i64
  %353 = getelementptr inbounds i8, ptr %205, i64 %352
  %354 = load i8, ptr %353, align 1, !tbaa !27
  %355 = zext i8 %354 to i32
  %356 = shl nuw nsw i32 %355, 8
  %357 = sub nsw i32 %346, %199
  %358 = and i32 %350, %357
  %359 = sext i32 %358 to i64
  %360 = getelementptr inbounds i8, ptr %205, i64 %359
  %361 = load i8, ptr %360, align 1, !tbaa !27
  %362 = zext i8 %361 to i32
  %363 = or i32 %356, %362
  %364 = load i32, ptr getelementptr inbounds (%class.ContextMap, ptr @_ZZ11recordModelR5MixerE2co, i64 0, i32 8), align 8, !tbaa !85
  %365 = add nsw i32 %364, 1
  store i32 %365, ptr getelementptr inbounds (%class.ContextMap, ptr @_ZZ11recordModelR5MixerE2co, i64 0, i32 8), align 8, !tbaa !85
  %366 = mul i32 %363, 987654323
  %367 = add i32 %366, %364
  %368 = tail call i32 @llvm.fshl.i32(i32 %367, i32 %367, i32 16)
  %369 = mul i32 %368, 123456791
  %370 = add i32 %369, %364
  %371 = sext i32 %364 to i64
  %372 = getelementptr inbounds i32, ptr %286, i64 %371
  store i32 %370, ptr %372, align 4, !tbaa !18
  %373 = load i32, ptr @pos, align 4, !tbaa !18
  %374 = sub nsw i32 %373, %199
  %375 = load i32, ptr @buf, align 8, !tbaa !23
  %376 = add nsw i32 %375, -1
  %377 = and i32 %376, %374
  %378 = sext i32 %377 to i64
  %379 = getelementptr inbounds i8, ptr %205, i64 %378
  %380 = load i8, ptr %379, align 1, !tbaa !27
  %381 = zext i8 %380 to i32
  %382 = shl nuw nsw i32 %381, 10
  %383 = shl i32 %347, 18
  %384 = or i32 %199, %382
  %385 = or i32 %384, %383
  %386 = load i32, ptr getelementptr inbounds (%class.ContextMap, ptr @_ZZ11recordModelR5MixerE2cp, i64 0, i32 8), align 8, !tbaa !85
  %387 = add nsw i32 %386, 1
  store i32 %387, ptr getelementptr inbounds (%class.ContextMap, ptr @_ZZ11recordModelR5MixerE2cp, i64 0, i32 8), align 8, !tbaa !85
  %388 = mul i32 %385, 987654323
  %389 = add i32 %388, %386
  %390 = tail call i32 @llvm.fshl.i32(i32 %389, i32 %389, i32 16)
  %391 = mul i32 %390, 123456791
  %392 = add i32 %391, %386
  %393 = load ptr, ptr getelementptr inbounds (%class.ContextMap, ptr @_ZZ11recordModelR5MixerE2cp, i64 0, i32 5, i32 3), align 8, !tbaa !15
  %394 = sext i32 %386 to i64
  %395 = getelementptr inbounds i32, ptr %393, i64 %394
  store i32 %392, ptr %395, align 4, !tbaa !18
  %396 = load i32, ptr @pos, align 4, !tbaa !18
  %397 = add nsw i32 %396, -1
  %398 = load i32, ptr @buf, align 8, !tbaa !23
  %399 = add nsw i32 %398, -1
  %400 = and i32 %399, %397
  %401 = sext i32 %400 to i64
  %402 = getelementptr inbounds i8, ptr %205, i64 %401
  %403 = load i8, ptr %402, align 1, !tbaa !27
  %404 = zext i8 %403 to i32
  %405 = shl nuw nsw i32 %404, 10
  %406 = or i32 %199, %405
  %407 = or i32 %406, %383
  %408 = load i32, ptr getelementptr inbounds (%class.ContextMap, ptr @_ZZ11recordModelR5MixerE2cp, i64 0, i32 8), align 8, !tbaa !85
  %409 = add nsw i32 %408, 1
  store i32 %409, ptr getelementptr inbounds (%class.ContextMap, ptr @_ZZ11recordModelR5MixerE2cp, i64 0, i32 8), align 8, !tbaa !85
  %410 = mul i32 %407, 987654323
  %411 = add i32 %410, %408
  %412 = tail call i32 @llvm.fshl.i32(i32 %411, i32 %411, i32 16)
  %413 = mul i32 %412, 123456791
  %414 = add i32 %413, %408
  %415 = sext i32 %408 to i64
  %416 = getelementptr inbounds i32, ptr %393, i64 %415
  store i32 %414, ptr %416, align 4, !tbaa !18
  %417 = shl i32 %199, 12
  %418 = or i32 %347, %417
  %419 = load i32, ptr getelementptr inbounds (%class.ContextMap, ptr @_ZZ11recordModelR5MixerE2cp, i64 0, i32 8), align 8, !tbaa !85
  %420 = add nsw i32 %419, 1
  store i32 %420, ptr getelementptr inbounds (%class.ContextMap, ptr @_ZZ11recordModelR5MixerE2cp, i64 0, i32 8), align 8, !tbaa !85
  %421 = mul i32 %418, 987654323
  %422 = add i32 %419, %421
  %423 = tail call i32 @llvm.fshl.i32(i32 %422, i32 %422, i32 16)
  %424 = mul i32 %423, 123456791
  %425 = add i32 %424, %419
  %426 = sext i32 %419 to i64
  %427 = getelementptr inbounds i32, ptr %393, i64 %426
  store i32 %425, ptr %427, align 4, !tbaa !18
  %428 = getelementptr inbounds [256 x i32], ptr @_ZZ11recordModelR5MixerE5cpos3, i64 0, i64 %48
  %429 = load i32, ptr %428, align 4, !tbaa !18
  %430 = getelementptr inbounds [256 x i32], ptr @_ZZ11recordModelR5MixerE5cpos4, i64 0, i64 %48
  store i32 %429, ptr %430, align 4, !tbaa !18
  %431 = getelementptr inbounds [256 x i32], ptr @_ZZ11recordModelR5MixerE5cpos2, i64 0, i64 %48
  %432 = load i32, ptr %431, align 4, !tbaa !18
  store i32 %432, ptr %428, align 4, !tbaa !18
  store i32 %50, ptr %431, align 4, !tbaa !18
  %433 = load i32, ptr @pos, align 4, !tbaa !18
  store i32 %433, ptr %49, align 4, !tbaa !18
  store i32 %433, ptr %158, align 4, !tbaa !18
  br label %434

434:                                              ; preds = %333, %39
  %435 = tail call noundef i32 @_ZN10ContextMap3mixER5Mixer(ptr noundef nonnull align 8 dereferenceable(140) @_ZZ11recordModelR5MixerE2cm, ptr noundef nonnull align 8 dereferenceable(136) %0) #32
  %436 = tail call noundef i32 @_ZN10ContextMap3mixER5Mixer(ptr noundef nonnull align 8 dereferenceable(140) @_ZZ11recordModelR5MixerE2cn, ptr noundef nonnull align 8 dereferenceable(136) %0) #32
  %437 = tail call noundef i32 @_ZN10ContextMap3mixER5Mixer(ptr noundef nonnull align 8 dereferenceable(140) @_ZZ11recordModelR5MixerE2co, ptr noundef nonnull align 8 dereferenceable(136) %0) #32
  %438 = tail call noundef i32 @_ZN10ContextMap3mixER5Mixer(ptr noundef nonnull align 8 dereferenceable(140) @_ZZ11recordModelR5MixerE2cp, ptr noundef nonnull align 8 dereferenceable(136) %0) #32
  ret void

439:                                              ; preds = %104, %102, %100, %98
  %440 = phi ptr [ @_ZGVZ11recordModelR5MixerE2cp, %104 ], [ @_ZGVZ11recordModelR5MixerE2co, %102 ], [ @_ZGVZ11recordModelR5MixerE2cn, %100 ], [ @_ZGVZ11recordModelR5MixerE2cm, %98 ]
  %441 = phi { ptr, i32 } [ %105, %104 ], [ %103, %102 ], [ %101, %100 ], [ %99, %98 ]
  tail call void @__cxa_guard_abort(ptr nonnull %440) #33
  resume { ptr, i32 } %441
}

; Function Attrs: mustprogress optsize uwtable
define internal void @_Z11sparseModelR5Mixerii(ptr noundef nonnull align 8 dereferenceable(136) %0, i32 noundef %1, i32 noundef %2) #7 personality ptr @__gxx_personality_v0 {
  %4 = load atomic i8, ptr @_ZGVZ11sparseModelR5MixeriiE2cm acquire, align 8
  %5 = icmp eq i8 %4, 0
  br i1 %5, label %6, label %14, !prof !100

6:                                                ; preds = %3
  %7 = tail call i32 @__cxa_guard_acquire(ptr nonnull @_ZGVZ11sparseModelR5MixeriiE2cm) #33
  %8 = icmp eq i32 %7, 0
  br i1 %8, label %14, label %9

9:                                                ; preds = %6
  %10 = load i32, ptr @level, align 4, !tbaa !18
  %11 = shl i32 131072, %10
  invoke void @_ZN10ContextMapC2Eii(ptr noundef nonnull align 8 dereferenceable(140) @_ZZ11sparseModelR5MixeriiE2cm, i32 noundef %11, i32 noundef 48) #32
          to label %12 unwind label %251

12:                                               ; preds = %9
  %13 = tail call i32 @__cxa_atexit(ptr nonnull @_ZN10ContextMapD2Ev, ptr nonnull @_ZZ11sparseModelR5MixeriiE2cm, ptr nonnull @__dso_handle) #33
  tail call void @__cxa_guard_release(ptr nonnull @_ZGVZ11sparseModelR5MixeriiE2cm) #33
  br label %14

14:                                               ; preds = %12, %6, %3
  %15 = load i32, ptr @bpos, align 4, !tbaa !18
  %16 = icmp eq i32 %15, 0
  br i1 %16, label %17, label %420

17:                                               ; preds = %14
  %18 = load i32, ptr @c4, align 4, !tbaa !18
  %19 = and i32 %18, 15790320
  %20 = load i32, ptr getelementptr inbounds (%class.ContextMap, ptr @_ZZ11sparseModelR5MixeriiE2cm, i64 0, i32 8), align 8, !tbaa !85
  %21 = add nsw i32 %20, 1
  store i32 %21, ptr getelementptr inbounds (%class.ContextMap, ptr @_ZZ11sparseModelR5MixeriiE2cm, i64 0, i32 8), align 8, !tbaa !85
  %22 = mul i32 %19, 987654323
  %23 = add i32 %22, %20
  %24 = tail call i32 @llvm.fshl.i32(i32 %23, i32 %23, i32 16)
  %25 = mul i32 %24, 123456791
  %26 = add i32 %25, %20
  %27 = load ptr, ptr getelementptr inbounds (%class.ContextMap, ptr @_ZZ11sparseModelR5MixeriiE2cm, i64 0, i32 5, i32 3), align 8, !tbaa !15
  %28 = sext i32 %20 to i64
  %29 = getelementptr inbounds i32, ptr %27, i64 %28
  store i32 %26, ptr %29, align 4, !tbaa !18
  %30 = load i32, ptr @c4, align 4, !tbaa !18
  %31 = and i32 %30, -252645136
  %32 = load i32, ptr getelementptr inbounds (%class.ContextMap, ptr @_ZZ11sparseModelR5MixeriiE2cm, i64 0, i32 8), align 8, !tbaa !85
  %33 = add nsw i32 %32, 1
  store i32 %33, ptr getelementptr inbounds (%class.ContextMap, ptr @_ZZ11sparseModelR5MixeriiE2cm, i64 0, i32 8), align 8, !tbaa !85
  %34 = mul i32 %31, 987654323
  %35 = add i32 %32, 987654323
  %36 = add i32 %35, %34
  %37 = tail call i32 @llvm.fshl.i32(i32 %36, i32 %36, i32 16)
  %38 = mul i32 %37, 123456791
  %39 = add i32 %38, %32
  %40 = sext i32 %32 to i64
  %41 = getelementptr inbounds i32, ptr %27, i64 %40
  store i32 %39, ptr %41, align 4, !tbaa !18
  %42 = load i32, ptr @c4, align 4, !tbaa !18
  %43 = and i32 %42, 16316664
  %44 = load i32, ptr getelementptr inbounds (%class.ContextMap, ptr @_ZZ11sparseModelR5MixeriiE2cm, i64 0, i32 8), align 8, !tbaa !85
  %45 = add nsw i32 %44, 1
  store i32 %45, ptr getelementptr inbounds (%class.ContextMap, ptr @_ZZ11sparseModelR5MixeriiE2cm, i64 0, i32 8), align 8, !tbaa !85
  %46 = mul i32 %43, 987654323
  %47 = add i32 %44, 1975308646
  %48 = add i32 %47, %46
  %49 = tail call i32 @llvm.fshl.i32(i32 %48, i32 %48, i32 16)
  %50 = mul i32 %49, 123456791
  %51 = add i32 %50, %44
  %52 = sext i32 %44 to i64
  %53 = getelementptr inbounds i32, ptr %27, i64 %52
  store i32 %51, ptr %53, align 4, !tbaa !18
  %54 = load i32, ptr @c4, align 4, !tbaa !18
  %55 = and i32 %54, -117901064
  %56 = load i32, ptr getelementptr inbounds (%class.ContextMap, ptr @_ZZ11sparseModelR5MixeriiE2cm, i64 0, i32 8), align 8, !tbaa !85
  %57 = add nsw i32 %56, 1
  store i32 %57, ptr getelementptr inbounds (%class.ContextMap, ptr @_ZZ11sparseModelR5MixeriiE2cm, i64 0, i32 8), align 8, !tbaa !85
  %58 = mul i32 %55, 987654323
  %59 = add i32 %56, -1332004327
  %60 = add i32 %59, %58
  %61 = tail call i32 @llvm.fshl.i32(i32 %60, i32 %60, i32 16)
  %62 = mul i32 %61, 123456791
  %63 = add i32 %62, %56
  %64 = sext i32 %56 to i64
  %65 = getelementptr inbounds i32, ptr %27, i64 %64
  store i32 %63, ptr %65, align 4, !tbaa !18
  %66 = load i32, ptr @c4, align 4, !tbaa !18
  %67 = and i32 %66, 14737632
  %68 = load i32, ptr getelementptr inbounds (%class.ContextMap, ptr @_ZZ11sparseModelR5MixeriiE2cm, i64 0, i32 8), align 8, !tbaa !85
  %69 = add nsw i32 %68, 1
  store i32 %69, ptr getelementptr inbounds (%class.ContextMap, ptr @_ZZ11sparseModelR5MixeriiE2cm, i64 0, i32 8), align 8, !tbaa !85
  %70 = mul i32 %67, 987654323
  %71 = add i32 %68, -344350004
  %72 = add i32 %71, %70
  %73 = tail call i32 @llvm.fshl.i32(i32 %72, i32 %72, i32 16)
  %74 = mul i32 %73, 123456791
  %75 = add i32 %74, %68
  %76 = sext i32 %68 to i64
  %77 = getelementptr inbounds i32, ptr %27, i64 %76
  store i32 %75, ptr %77, align 4, !tbaa !18
  %78 = load i32, ptr @c4, align 4, !tbaa !18
  %79 = and i32 %78, -522133280
  %80 = load i32, ptr getelementptr inbounds (%class.ContextMap, ptr @_ZZ11sparseModelR5MixeriiE2cm, i64 0, i32 8), align 8, !tbaa !85
  %81 = add nsw i32 %80, 1
  store i32 %81, ptr getelementptr inbounds (%class.ContextMap, ptr @_ZZ11sparseModelR5MixeriiE2cm, i64 0, i32 8), align 8, !tbaa !85
  %82 = mul i32 %79, 987654323
  %83 = add i32 %80, 643304319
  %84 = add i32 %83, %82
  %85 = tail call i32 @llvm.fshl.i32(i32 %84, i32 %84, i32 16)
  %86 = mul i32 %85, 123456791
  %87 = add i32 %86, %80
  %88 = sext i32 %80 to i64
  %89 = getelementptr inbounds i32, ptr %27, i64 %88
  store i32 %87, ptr %89, align 4, !tbaa !18
  %90 = load i32, ptr @c4, align 4, !tbaa !18
  %91 = and i32 %90, 15790335
  %92 = load i32, ptr getelementptr inbounds (%class.ContextMap, ptr @_ZZ11sparseModelR5MixeriiE2cm, i64 0, i32 8), align 8, !tbaa !85
  %93 = add nsw i32 %92, 1
  store i32 %93, ptr getelementptr inbounds (%class.ContextMap, ptr @_ZZ11sparseModelR5MixeriiE2cm, i64 0, i32 8), align 8, !tbaa !85
  %94 = mul i32 %91, 987654323
  %95 = add i32 %92, 1630958642
  %96 = add i32 %95, %94
  %97 = tail call i32 @llvm.fshl.i32(i32 %96, i32 %96, i32 16)
  %98 = mul i32 %97, 123456791
  %99 = add i32 %98, %92
  %100 = sext i32 %92 to i64
  %101 = getelementptr inbounds i32, ptr %27, i64 %100
  store i32 %99, ptr %101, align 4, !tbaa !18
  %102 = load i32, ptr getelementptr inbounds (%class.ContextMap, ptr @_ZZ11sparseModelR5MixeriiE2cm, i64 0, i32 8), align 8, !tbaa !85
  %103 = add nsw i32 %102, 1
  store i32 %103, ptr getelementptr inbounds (%class.ContextMap, ptr @_ZZ11sparseModelR5MixeriiE2cm, i64 0, i32 8), align 8, !tbaa !85
  %104 = mul i32 %1, 987654323
  %105 = add i32 %102, %104
  %106 = tail call i32 @llvm.fshl.i32(i32 %105, i32 %105, i32 16)
  %107 = mul i32 %106, 123456791
  %108 = add i32 %107, %102
  %109 = sext i32 %102 to i64
  %110 = getelementptr inbounds i32, ptr %27, i64 %109
  store i32 %108, ptr %110, align 4, !tbaa !18
  %111 = load i32, ptr getelementptr inbounds (%class.ContextMap, ptr @_ZZ11sparseModelR5MixeriiE2cm, i64 0, i32 8), align 8, !tbaa !85
  %112 = add nsw i32 %111, 1
  store i32 %112, ptr getelementptr inbounds (%class.ContextMap, ptr @_ZZ11sparseModelR5MixeriiE2cm, i64 0, i32 8), align 8, !tbaa !85
  %113 = mul i32 %2, 987654323
  %114 = add i32 %111, %113
  %115 = tail call i32 @llvm.fshl.i32(i32 %114, i32 %114, i32 16)
  %116 = mul i32 %115, 123456791
  %117 = add i32 %116, %111
  %118 = sext i32 %111 to i64
  %119 = getelementptr inbounds i32, ptr %27, i64 %118
  store i32 %117, ptr %119, align 4, !tbaa !18
  %120 = load i32, ptr @c4, align 4, !tbaa !18
  %121 = and i32 %120, 16711935
  %122 = load i32, ptr getelementptr inbounds (%class.ContextMap, ptr @_ZZ11sparseModelR5MixeriiE2cm, i64 0, i32 8), align 8, !tbaa !85
  %123 = add nsw i32 %122, 1
  store i32 %123, ptr getelementptr inbounds (%class.ContextMap, ptr @_ZZ11sparseModelR5MixeriiE2cm, i64 0, i32 8), align 8, !tbaa !85
  %124 = mul i32 %121, 987654323
  %125 = add i32 %124, %122
  %126 = tail call i32 @llvm.fshl.i32(i32 %125, i32 %125, i32 16)
  %127 = mul i32 %126, 123456791
  %128 = add i32 %127, %122
  %129 = sext i32 %122 to i64
  %130 = getelementptr inbounds i32, ptr %27, i64 %129
  store i32 %128, ptr %130, align 4, !tbaa !18
  %131 = load i32, ptr @c4, align 4, !tbaa !18
  %132 = and i32 %131, -16776961
  %133 = load i32, ptr getelementptr inbounds (%class.ContextMap, ptr @_ZZ11sparseModelR5MixeriiE2cm, i64 0, i32 8), align 8, !tbaa !85
  %134 = add nsw i32 %133, 1
  store i32 %134, ptr getelementptr inbounds (%class.ContextMap, ptr @_ZZ11sparseModelR5MixeriiE2cm, i64 0, i32 8), align 8, !tbaa !85
  %135 = mul i32 %132, 987654323
  %136 = add i32 %135, %133
  %137 = tail call i32 @llvm.fshl.i32(i32 %136, i32 %136, i32 16)
  %138 = mul i32 %137, 123456791
  %139 = add i32 %138, %133
  %140 = sext i32 %133 to i64
  %141 = getelementptr inbounds i32, ptr %27, i64 %140
  store i32 %139, ptr %141, align 4, !tbaa !18
  %142 = load i32, ptr @pos, align 4, !tbaa !18
  %143 = add nsw i32 %142, -1
  %144 = load i32, ptr @buf, align 8, !tbaa !23
  %145 = add nsw i32 %144, -1
  %146 = and i32 %145, %143
  %147 = load ptr, ptr getelementptr inbounds (%class.Buf, ptr @buf, i64 0, i32 0, i32 3), align 8, !tbaa !26
  %148 = sext i32 %146 to i64
  %149 = getelementptr inbounds i8, ptr %147, i64 %148
  %150 = load i8, ptr %149, align 1, !tbaa !27
  %151 = zext i8 %150 to i32
  %152 = add nsw i32 %142, -5
  %153 = and i32 %145, %152
  %154 = sext i32 %153 to i64
  %155 = getelementptr inbounds i8, ptr %147, i64 %154
  %156 = load i8, ptr %155, align 1, !tbaa !27
  %157 = zext i8 %156 to i32
  %158 = shl nuw nsw i32 %157, 8
  %159 = or i32 %158, %151
  %160 = load i32, ptr getelementptr inbounds (%class.ContextMap, ptr @_ZZ11sparseModelR5MixeriiE2cm, i64 0, i32 8), align 8, !tbaa !85
  %161 = add nsw i32 %160, 1
  store i32 %161, ptr getelementptr inbounds (%class.ContextMap, ptr @_ZZ11sparseModelR5MixeriiE2cm, i64 0, i32 8), align 8, !tbaa !85
  %162 = mul i32 %159, 987654323
  %163 = add i32 %162, %160
  %164 = tail call i32 @llvm.fshl.i32(i32 %163, i32 %163, i32 16)
  %165 = mul i32 %164, 123456791
  %166 = add i32 %165, %160
  %167 = sext i32 %160 to i64
  %168 = getelementptr inbounds i32, ptr %27, i64 %167
  store i32 %166, ptr %168, align 4, !tbaa !18
  %169 = load i32, ptr @pos, align 4, !tbaa !18
  %170 = add nsw i32 %169, -1
  %171 = load i32, ptr @buf, align 8, !tbaa !23
  %172 = add nsw i32 %171, -1
  %173 = and i32 %172, %170
  %174 = sext i32 %173 to i64
  %175 = getelementptr inbounds i8, ptr %147, i64 %174
  %176 = load i8, ptr %175, align 1, !tbaa !27
  %177 = zext i8 %176 to i32
  %178 = add nsw i32 %169, -6
  %179 = and i32 %172, %178
  %180 = sext i32 %179 to i64
  %181 = getelementptr inbounds i8, ptr %147, i64 %180
  %182 = load i8, ptr %181, align 1, !tbaa !27
  %183 = zext i8 %182 to i32
  %184 = shl nuw nsw i32 %183, 8
  %185 = or i32 %184, %177
  %186 = load i32, ptr getelementptr inbounds (%class.ContextMap, ptr @_ZZ11sparseModelR5MixeriiE2cm, i64 0, i32 8), align 8, !tbaa !85
  %187 = add nsw i32 %186, 1
  store i32 %187, ptr getelementptr inbounds (%class.ContextMap, ptr @_ZZ11sparseModelR5MixeriiE2cm, i64 0, i32 8), align 8, !tbaa !85
  %188 = mul i32 %185, 987654323
  %189 = add i32 %188, %186
  %190 = tail call i32 @llvm.fshl.i32(i32 %189, i32 %189, i32 16)
  %191 = mul i32 %190, 123456791
  %192 = add i32 %191, %186
  %193 = sext i32 %186 to i64
  %194 = getelementptr inbounds i32, ptr %27, i64 %193
  store i32 %192, ptr %194, align 4, !tbaa !18
  %195 = load i32, ptr @pos, align 4, !tbaa !18
  %196 = add nsw i32 %195, -3
  %197 = load i32, ptr @buf, align 8, !tbaa !23
  %198 = add nsw i32 %197, -1
  %199 = and i32 %198, %196
  %200 = sext i32 %199 to i64
  %201 = getelementptr inbounds i8, ptr %147, i64 %200
  %202 = load i8, ptr %201, align 1, !tbaa !27
  %203 = zext i8 %202 to i32
  %204 = add nsw i32 %195, -6
  %205 = and i32 %198, %204
  %206 = sext i32 %205 to i64
  %207 = getelementptr inbounds i8, ptr %147, i64 %206
  %208 = load i8, ptr %207, align 1, !tbaa !27
  %209 = zext i8 %208 to i32
  %210 = shl nuw nsw i32 %209, 8
  %211 = or i32 %210, %203
  %212 = load i32, ptr getelementptr inbounds (%class.ContextMap, ptr @_ZZ11sparseModelR5MixeriiE2cm, i64 0, i32 8), align 8, !tbaa !85
  %213 = add nsw i32 %212, 1
  store i32 %213, ptr getelementptr inbounds (%class.ContextMap, ptr @_ZZ11sparseModelR5MixeriiE2cm, i64 0, i32 8), align 8, !tbaa !85
  %214 = mul i32 %211, 987654323
  %215 = add i32 %214, %212
  %216 = tail call i32 @llvm.fshl.i32(i32 %215, i32 %215, i32 16)
  %217 = mul i32 %216, 123456791
  %218 = add i32 %217, %212
  %219 = sext i32 %212 to i64
  %220 = getelementptr inbounds i32, ptr %27, i64 %219
  store i32 %218, ptr %220, align 4, !tbaa !18
  %221 = load i32, ptr @pos, align 4, !tbaa !18
  %222 = add nsw i32 %221, -4
  %223 = load i32, ptr @buf, align 8, !tbaa !23
  %224 = add nsw i32 %223, -1
  %225 = and i32 %224, %222
  %226 = sext i32 %225 to i64
  %227 = getelementptr inbounds i8, ptr %147, i64 %226
  %228 = load i8, ptr %227, align 1, !tbaa !27
  %229 = zext i8 %228 to i32
  %230 = add nsw i32 %221, -8
  %231 = and i32 %224, %230
  %232 = sext i32 %231 to i64
  %233 = getelementptr inbounds i8, ptr %147, i64 %232
  %234 = load i8, ptr %233, align 1, !tbaa !27
  %235 = zext i8 %234 to i32
  %236 = shl nuw nsw i32 %235, 8
  %237 = or i32 %236, %229
  %238 = load i32, ptr getelementptr inbounds (%class.ContextMap, ptr @_ZZ11sparseModelR5MixeriiE2cm, i64 0, i32 8), align 8, !tbaa !85
  %239 = add nsw i32 %238, 1
  store i32 %239, ptr getelementptr inbounds (%class.ContextMap, ptr @_ZZ11sparseModelR5MixeriiE2cm, i64 0, i32 8), align 8, !tbaa !85
  %240 = mul i32 %237, 987654323
  %241 = add i32 %240, %238
  %242 = tail call i32 @llvm.fshl.i32(i32 %241, i32 %241, i32 16)
  %243 = mul i32 %242, 123456791
  %244 = add i32 %243, %238
  %245 = sext i32 %238 to i64
  %246 = getelementptr inbounds i32, ptr %27, i64 %245
  store i32 %244, ptr %246, align 4, !tbaa !18
  br label %253

247:                                              ; preds = %253
  %248 = load i32, ptr @c4, align 4, !tbaa !18
  %249 = and i32 %248, 1
  %250 = icmp eq i32 %249, 0
  br i1 %250, label %344, label %333

251:                                              ; preds = %9
  %252 = landingpad { ptr, i32 }
          cleanup
  tail call void @__cxa_guard_abort(ptr nonnull @_ZGVZ11sparseModelR5MixeriiE2cm) #33
  resume { ptr, i32 } %252

253:                                              ; preds = %253, %17
  %254 = phi i32 [ -1, %17 ], [ %331, %253 ]
  %255 = phi i32 [ 1, %17 ], [ %256, %253 ]
  %256 = add nuw nsw i32 %255, 1
  %257 = load i32, ptr @pos, align 4, !tbaa !18
  %258 = sub nsw i32 %257, %256
  %259 = load i32, ptr @buf, align 8, !tbaa !23
  %260 = add nsw i32 %259, -1
  %261 = and i32 %260, %258
  %262 = sext i32 %261 to i64
  %263 = getelementptr inbounds i8, ptr %147, i64 %262
  %264 = load i8, ptr %263, align 1, !tbaa !27
  %265 = zext i8 %264 to i32
  %266 = shl nuw nsw i32 %265, 8
  %267 = add nsw i32 %254, -2
  %268 = add i32 %267, %257
  %269 = and i32 %260, %268
  %270 = sext i32 %269 to i64
  %271 = getelementptr inbounds i8, ptr %147, i64 %270
  %272 = load i8, ptr %271, align 1, !tbaa !27
  %273 = zext i8 %272 to i32
  %274 = or i32 %266, %273
  %275 = load i32, ptr getelementptr inbounds (%class.ContextMap, ptr @_ZZ11sparseModelR5MixeriiE2cm, i64 0, i32 8), align 8, !tbaa !85
  %276 = add nsw i32 %275, 1
  store i32 %276, ptr getelementptr inbounds (%class.ContextMap, ptr @_ZZ11sparseModelR5MixeriiE2cm, i64 0, i32 8), align 8, !tbaa !85
  %277 = mul i32 %274, 987654323
  %278 = add i32 %277, %275
  %279 = tail call i32 @llvm.fshl.i32(i32 %278, i32 %278, i32 16)
  %280 = mul i32 %279, 123456791
  %281 = add i32 %280, %275
  %282 = sext i32 %275 to i64
  %283 = getelementptr inbounds i32, ptr %27, i64 %282
  store i32 %281, ptr %283, align 4, !tbaa !18
  %284 = load i32, ptr @pos, align 4, !tbaa !18
  %285 = sub nsw i32 %284, %256
  %286 = load i32, ptr @buf, align 8, !tbaa !23
  %287 = add nsw i32 %286, -1
  %288 = and i32 %287, %285
  %289 = sext i32 %288 to i64
  %290 = getelementptr inbounds i8, ptr %147, i64 %289
  %291 = load i8, ptr %290, align 1, !tbaa !27
  %292 = zext i8 %291 to i32
  %293 = shl nuw nsw i32 %292, 8
  %294 = add nsw i32 %254, -3
  %295 = add i32 %294, %284
  %296 = and i32 %287, %295
  %297 = sext i32 %296 to i64
  %298 = getelementptr inbounds i8, ptr %147, i64 %297
  %299 = load i8, ptr %298, align 1, !tbaa !27
  %300 = zext i8 %299 to i32
  %301 = or i32 %293, %300
  %302 = load i32, ptr getelementptr inbounds (%class.ContextMap, ptr @_ZZ11sparseModelR5MixeriiE2cm, i64 0, i32 8), align 8, !tbaa !85
  %303 = add nsw i32 %302, 1
  store i32 %303, ptr getelementptr inbounds (%class.ContextMap, ptr @_ZZ11sparseModelR5MixeriiE2cm, i64 0, i32 8), align 8, !tbaa !85
  %304 = mul i32 %301, 987654323
  %305 = add i32 %304, %302
  %306 = tail call i32 @llvm.fshl.i32(i32 %305, i32 %305, i32 16)
  %307 = mul i32 %306, 123456791
  %308 = add i32 %307, %302
  %309 = sext i32 %302 to i64
  %310 = getelementptr inbounds i32, ptr %27, i64 %309
  store i32 %308, ptr %310, align 4, !tbaa !18
  %311 = load i32, ptr @pos, align 4, !tbaa !18
  %312 = sub nsw i32 %311, %255
  %313 = load i32, ptr @buf, align 8, !tbaa !23
  %314 = add nsw i32 %313, -1
  %315 = and i32 %314, %312
  %316 = sext i32 %315 to i64
  %317 = getelementptr inbounds i8, ptr %147, i64 %316
  %318 = load i8, ptr %317, align 1, !tbaa !27
  %319 = zext i8 %318 to i32
  %320 = shl nuw nsw i32 %319, 8
  %321 = or i32 %320, %1
  %322 = load i32, ptr getelementptr inbounds (%class.ContextMap, ptr @_ZZ11sparseModelR5MixeriiE2cm, i64 0, i32 8), align 8, !tbaa !85
  %323 = add nsw i32 %322, 1
  store i32 %323, ptr getelementptr inbounds (%class.ContextMap, ptr @_ZZ11sparseModelR5MixeriiE2cm, i64 0, i32 8), align 8, !tbaa !85
  %324 = mul i32 %321, 987654323
  %325 = add i32 %324, %322
  %326 = tail call i32 @llvm.fshl.i32(i32 %325, i32 %325, i32 16)
  %327 = mul i32 %326, 123456791
  %328 = add i32 %327, %322
  %329 = sext i32 %322 to i64
  %330 = getelementptr inbounds i32, ptr %27, i64 %329
  store i32 %328, ptr %330, align 4, !tbaa !18
  %331 = xor i32 %255, -1
  %332 = icmp eq i32 %256, 8
  br i1 %332, label %247, label %253, !llvm.loop !108

333:                                              ; preds = %247
  %334 = and i32 %248, 255
  %335 = tail call i32 @isalpha(i32 noundef %334) #38
  %336 = icmp eq i32 %335, 0
  br i1 %336, label %337, label %344

337:                                              ; preds = %333
  %338 = tail call i32 @ispunct(i32 noundef %334) #38
  %339 = icmp eq i32 %338, 0
  br i1 %339, label %340, label %344

340:                                              ; preds = %337
  %341 = tail call i32 @isspace(i32 noundef %334) #38
  %342 = icmp eq i32 %341, 0
  %343 = select i1 %342, i32 4, i32 3
  br label %344

344:                                              ; preds = %340, %337, %333, %247
  %345 = phi i32 [ 0, %247 ], [ 1, %333 ], [ 2, %337 ], [ %343, %340 ]
  %346 = load i32, ptr @_ZZ11sparseModelR5MixeriiE4mask, align 4, !tbaa !18
  %347 = shl i32 %346, 3
  %348 = or i32 %347, %345
  store i32 %348, ptr @_ZZ11sparseModelR5MixeriiE4mask, align 4, !tbaa !18
  %349 = load i32, ptr getelementptr inbounds (%class.ContextMap, ptr @_ZZ11sparseModelR5MixeriiE2cm, i64 0, i32 8), align 8, !tbaa !85
  %350 = add nsw i32 %349, 1
  store i32 %350, ptr getelementptr inbounds (%class.ContextMap, ptr @_ZZ11sparseModelR5MixeriiE2cm, i64 0, i32 8), align 8, !tbaa !85
  %351 = mul i32 %348, 987654323
  %352 = add i32 %351, %349
  %353 = tail call i32 @llvm.fshl.i32(i32 %352, i32 %352, i32 16)
  %354 = mul i32 %353, 123456791
  %355 = add i32 %354, %349
  %356 = sext i32 %349 to i64
  %357 = getelementptr inbounds i32, ptr %27, i64 %356
  store i32 %355, ptr %357, align 4, !tbaa !18
  %358 = shl i32 %348, 8
  %359 = load i32, ptr @pos, align 4, !tbaa !18
  %360 = add nsw i32 %359, -1
  %361 = load i32, ptr @buf, align 8, !tbaa !23
  %362 = add nsw i32 %361, -1
  %363 = and i32 %362, %360
  %364 = sext i32 %363 to i64
  %365 = getelementptr inbounds i8, ptr %147, i64 %364
  %366 = load i8, ptr %365, align 1, !tbaa !27
  %367 = zext i8 %366 to i32
  %368 = or i32 %358, %367
  %369 = load i32, ptr getelementptr inbounds (%class.ContextMap, ptr @_ZZ11sparseModelR5MixeriiE2cm, i64 0, i32 8), align 8, !tbaa !85
  %370 = add nsw i32 %369, 1
  store i32 %370, ptr getelementptr inbounds (%class.ContextMap, ptr @_ZZ11sparseModelR5MixeriiE2cm, i64 0, i32 8), align 8, !tbaa !85
  %371 = mul i32 %368, 987654323
  %372 = add i32 %371, %369
  %373 = tail call i32 @llvm.fshl.i32(i32 %372, i32 %372, i32 16)
  %374 = mul i32 %373, 123456791
  %375 = add i32 %374, %369
  %376 = sext i32 %369 to i64
  %377 = getelementptr inbounds i32, ptr %27, i64 %376
  store i32 %375, ptr %377, align 4, !tbaa !18
  %378 = shl i32 %348, 17
  %379 = load i32, ptr @pos, align 4, !tbaa !18
  %380 = add nsw i32 %379, -2
  %381 = load i32, ptr @buf, align 8, !tbaa !23
  %382 = add nsw i32 %381, -1
  %383 = and i32 %382, %380
  %384 = sext i32 %383 to i64
  %385 = getelementptr inbounds i8, ptr %147, i64 %384
  %386 = load i8, ptr %385, align 1, !tbaa !27
  %387 = zext i8 %386 to i32
  %388 = shl nuw nsw i32 %387, 8
  %389 = or i32 %388, %378
  %390 = add nsw i32 %379, -3
  %391 = and i32 %382, %390
  %392 = sext i32 %391 to i64
  %393 = getelementptr inbounds i8, ptr %147, i64 %392
  %394 = load i8, ptr %393, align 1, !tbaa !27
  %395 = zext i8 %394 to i32
  %396 = or i32 %389, %395
  %397 = load i32, ptr getelementptr inbounds (%class.ContextMap, ptr @_ZZ11sparseModelR5MixeriiE2cm, i64 0, i32 8), align 8, !tbaa !85
  %398 = add nsw i32 %397, 1
  store i32 %398, ptr getelementptr inbounds (%class.ContextMap, ptr @_ZZ11sparseModelR5MixeriiE2cm, i64 0, i32 8), align 8, !tbaa !85
  %399 = mul i32 %396, 987654323
  %400 = add i32 %399, %397
  %401 = tail call i32 @llvm.fshl.i32(i32 %400, i32 %400, i32 16)
  %402 = mul i32 %401, 123456791
  %403 = add i32 %402, %397
  %404 = sext i32 %397 to i64
  %405 = getelementptr inbounds i32, ptr %27, i64 %404
  store i32 %403, ptr %405, align 4, !tbaa !18
  %406 = and i32 %348, 511
  %407 = load i32, ptr @c4, align 4, !tbaa !18
  %408 = shl i32 %407, 9
  %409 = and i32 %408, -505290752
  %410 = or i32 %409, %406
  %411 = load i32, ptr getelementptr inbounds (%class.ContextMap, ptr @_ZZ11sparseModelR5MixeriiE2cm, i64 0, i32 8), align 8, !tbaa !85
  %412 = add nsw i32 %411, 1
  store i32 %412, ptr getelementptr inbounds (%class.ContextMap, ptr @_ZZ11sparseModelR5MixeriiE2cm, i64 0, i32 8), align 8, !tbaa !85
  %413 = mul i32 %410, 987654323
  %414 = add i32 %413, %411
  %415 = tail call i32 @llvm.fshl.i32(i32 %414, i32 %414, i32 16)
  %416 = mul i32 %415, 123456791
  %417 = add i32 %416, %411
  %418 = sext i32 %411 to i64
  %419 = getelementptr inbounds i32, ptr %27, i64 %418
  store i32 %417, ptr %419, align 4, !tbaa !18
  br label %420

420:                                              ; preds = %344, %14
  %421 = tail call noundef i32 @_ZN10ContextMap3mixER5Mixer(ptr noundef nonnull align 8 dereferenceable(140) @_ZZ11sparseModelR5MixeriiE2cm, ptr noundef nonnull align 8 dereferenceable(136) %0) #32
  ret void
}

; Function Attrs: mustprogress nofree nounwind optsize willreturn memory(read)
declare i32 @isalpha(i32 noundef) local_unnamed_addr #15

; Function Attrs: mustprogress nofree nounwind optsize willreturn memory(read)
declare i32 @ispunct(i32 noundef) local_unnamed_addr #15

; Function Attrs: mustprogress nofree nounwind optsize willreturn memory(read)
declare i32 @isspace(i32 noundef) local_unnamed_addr #15

; Function Attrs: mustprogress optsize uwtable
define internal void @_Z13distanceModelR5Mixer(ptr noundef nonnull align 8 dereferenceable(136) %0) #7 personality ptr @__gxx_personality_v0 {
  %2 = load atomic i8, ptr @_ZGVZ13distanceModelR5MixerE2cr acquire, align 8
  %3 = icmp eq i8 %2, 0
  br i1 %3, label %4, label %12, !prof !100

4:                                                ; preds = %1
  %5 = tail call i32 @__cxa_guard_acquire(ptr nonnull @_ZGVZ13distanceModelR5MixerE2cr) #33
  %6 = icmp eq i32 %5, 0
  br i1 %6, label %12, label %7

7:                                                ; preds = %4
  %8 = load i32, ptr @level, align 4, !tbaa !18
  %9 = shl i32 65536, %8
  invoke void @_ZN10ContextMapC2Eii(ptr noundef nonnull align 8 dereferenceable(140) @_ZZ13distanceModelR5MixerE2cr, i32 noundef %9, i32 noundef 3) #32
          to label %10 unwind label %22

10:                                               ; preds = %7
  %11 = tail call i32 @__cxa_atexit(ptr nonnull @_ZN10ContextMapD2Ev, ptr nonnull @_ZZ13distanceModelR5MixerE2cr, ptr nonnull @__dso_handle) #33
  tail call void @__cxa_guard_release(ptr nonnull @_ZGVZ13distanceModelR5MixerE2cr) #33
  br label %12

12:                                               ; preds = %10, %4, %1
  %13 = load i32, ptr @bpos, align 4, !tbaa !18
  %14 = icmp eq i32 %13, 0
  br i1 %14, label %15, label %75

15:                                               ; preds = %12
  %16 = load i32, ptr @c4, align 4, !tbaa !18
  %17 = trunc i32 %16 to i8
  switch i8 %17, label %18 [
    i8 0, label %20
    i8 32, label %24
    i8 -1, label %26
    i8 13, label %26
    i8 10, label %26
  ]

18:                                               ; preds = %15
  %19 = load i32, ptr @pos, align 4, !tbaa !18
  br label %28

20:                                               ; preds = %15
  %21 = load i32, ptr @pos, align 4, !tbaa !18
  store i32 %21, ptr @_ZZ13distanceModelR5MixerE5pos00, align 4, !tbaa !18
  br label %28

22:                                               ; preds = %7
  %23 = landingpad { ptr, i32 }
          cleanup
  tail call void @__cxa_guard_abort(ptr nonnull @_ZGVZ13distanceModelR5MixerE2cr) #33
  resume { ptr, i32 } %23

24:                                               ; preds = %15
  %25 = load i32, ptr @pos, align 4, !tbaa !18
  store i32 %25, ptr @_ZZ13distanceModelR5MixerE5pos20, align 4, !tbaa !18
  br label %28

26:                                               ; preds = %15, %15, %15
  %27 = load i32, ptr @pos, align 4, !tbaa !18
  store i32 %27, ptr @_ZZ13distanceModelR5MixerE5posnl, align 4, !tbaa !18
  br label %28

28:                                               ; preds = %26, %24, %20, %18
  %29 = phi i32 [ %19, %18 ], [ %25, %24 ], [ %21, %20 ], [ %27, %26 ]
  %30 = load i32, ptr @_ZZ13distanceModelR5MixerE5pos00, align 4, !tbaa !18
  %31 = sub nsw i32 %29, %30
  %32 = tail call i32 @llvm.smin.i32(i32 %31, i32 255)
  %33 = shl i32 %16, 8
  %34 = and i32 %33, 65280
  %35 = or i32 %32, %34
  %36 = load i32, ptr getelementptr inbounds (%class.ContextMap, ptr @_ZZ13distanceModelR5MixerE2cr, i64 0, i32 8), align 8, !tbaa !85
  %37 = add nsw i32 %36, 1
  store i32 %37, ptr getelementptr inbounds (%class.ContextMap, ptr @_ZZ13distanceModelR5MixerE2cr, i64 0, i32 8), align 8, !tbaa !85
  %38 = mul i32 %35, 987654323
  %39 = add i32 %38, %36
  %40 = tail call i32 @llvm.fshl.i32(i32 %39, i32 %39, i32 16)
  %41 = mul i32 %40, 123456791
  %42 = add i32 %41, %36
  %43 = load ptr, ptr getelementptr inbounds (%class.ContextMap, ptr @_ZZ13distanceModelR5MixerE2cr, i64 0, i32 5, i32 3), align 8, !tbaa !15
  %44 = sext i32 %36 to i64
  %45 = getelementptr inbounds i32, ptr %43, i64 %44
  store i32 %42, ptr %45, align 4, !tbaa !18
  %46 = load i32, ptr @pos, align 4, !tbaa !18
  %47 = load i32, ptr @_ZZ13distanceModelR5MixerE5pos20, align 4, !tbaa !18
  %48 = sub nsw i32 %46, %47
  %49 = tail call i32 @llvm.smin.i32(i32 %48, i32 255)
  %50 = or i32 %49, %34
  %51 = load i32, ptr getelementptr inbounds (%class.ContextMap, ptr @_ZZ13distanceModelR5MixerE2cr, i64 0, i32 8), align 8, !tbaa !85
  %52 = add nsw i32 %51, 1
  store i32 %52, ptr getelementptr inbounds (%class.ContextMap, ptr @_ZZ13distanceModelR5MixerE2cr, i64 0, i32 8), align 8, !tbaa !85
  %53 = mul i32 %50, 987654323
  %54 = add i32 %53, %51
  %55 = tail call i32 @llvm.fshl.i32(i32 %54, i32 %54, i32 16)
  %56 = mul i32 %55, 123456791
  %57 = add i32 %56, %51
  %58 = sext i32 %51 to i64
  %59 = getelementptr inbounds i32, ptr %43, i64 %58
  store i32 %57, ptr %59, align 4, !tbaa !18
  %60 = load i32, ptr @pos, align 4, !tbaa !18
  %61 = load i32, ptr @_ZZ13distanceModelR5MixerE5posnl, align 4, !tbaa !18
  %62 = sub nsw i32 %60, %61
  %63 = tail call i32 @llvm.smin.i32(i32 %62, i32 255)
  %64 = add nuw nsw i32 %34, 234567
  %65 = or i32 %63, %64
  %66 = load i32, ptr getelementptr inbounds (%class.ContextMap, ptr @_ZZ13distanceModelR5MixerE2cr, i64 0, i32 8), align 8, !tbaa !85
  %67 = add nsw i32 %66, 1
  store i32 %67, ptr getelementptr inbounds (%class.ContextMap, ptr @_ZZ13distanceModelR5MixerE2cr, i64 0, i32 8), align 8, !tbaa !85
  %68 = mul i32 %65, 987654323
  %69 = add i32 %68, %66
  %70 = tail call i32 @llvm.fshl.i32(i32 %69, i32 %69, i32 16)
  %71 = mul i32 %70, 123456791
  %72 = add i32 %71, %66
  %73 = sext i32 %66 to i64
  %74 = getelementptr inbounds i32, ptr %43, i64 %73
  store i32 %72, ptr %74, align 4, !tbaa !18
  br label %75

75:                                               ; preds = %28, %12
  %76 = tail call noundef i32 @_ZN10ContextMap3mixER5Mixer(ptr noundef nonnull align 8 dereferenceable(140) @_ZZ13distanceModelR5MixerE2cr, ptr noundef nonnull align 8 dereferenceable(136) %0) #32
  ret void
}

; Function Attrs: mustprogress optsize uwtable
define internal noundef i32 @_Z8bmpModelR5Mixer(ptr noundef nonnull align 8 dereferenceable(136) %0) #7 personality ptr @__gxx_personality_v0 {
  %2 = load atomic i8, ptr @_ZGVZ8bmpModelR5MixerE4scm1 acquire, align 8
  %3 = icmp eq i8 %2, 0
  br i1 %3, label %4, label %10, !prof !100

4:                                                ; preds = %1
  %5 = tail call i32 @__cxa_guard_acquire(ptr nonnull @_ZGVZ8bmpModelR5MixerE4scm1) #33
  %6 = icmp eq i32 %5, 0
  br i1 %6, label %10, label %7

7:                                                ; preds = %4
  invoke void @_ZN25SmallStationaryContextMapC2Ei(ptr noundef nonnull align 8 dereferenceable(40) @_ZZ8bmpModelR5MixerE4scm1, i32 noundef 131072) #32
          to label %8 unwind label %236

8:                                                ; preds = %7
  %9 = tail call i32 @__cxa_atexit(ptr nonnull @_ZN25SmallStationaryContextMapD2Ev, ptr nonnull @_ZZ8bmpModelR5MixerE4scm1, ptr nonnull @__dso_handle) #33
  tail call void @__cxa_guard_release(ptr nonnull @_ZGVZ8bmpModelR5MixerE4scm1) #33
  br label %10

10:                                               ; preds = %8, %4, %1
  %11 = load atomic i8, ptr @_ZGVZ8bmpModelR5MixerE4scm2 acquire, align 8
  %12 = icmp eq i8 %11, 0
  br i1 %12, label %13, label %19, !prof !100

13:                                               ; preds = %10
  %14 = tail call i32 @__cxa_guard_acquire(ptr nonnull @_ZGVZ8bmpModelR5MixerE4scm2) #33
  %15 = icmp eq i32 %14, 0
  br i1 %15, label %19, label %16

16:                                               ; preds = %13
  invoke void @_ZN25SmallStationaryContextMapC2Ei(ptr noundef nonnull align 8 dereferenceable(40) @_ZZ8bmpModelR5MixerE4scm2, i32 noundef 131072) #32
          to label %17 unwind label %238

17:                                               ; preds = %16
  %18 = tail call i32 @__cxa_atexit(ptr nonnull @_ZN25SmallStationaryContextMapD2Ev, ptr nonnull @_ZZ8bmpModelR5MixerE4scm2, ptr nonnull @__dso_handle) #33
  tail call void @__cxa_guard_release(ptr nonnull @_ZGVZ8bmpModelR5MixerE4scm2) #33
  br label %19

19:                                               ; preds = %17, %13, %10
  %20 = load atomic i8, ptr @_ZGVZ8bmpModelR5MixerE4scm3 acquire, align 8
  %21 = icmp eq i8 %20, 0
  br i1 %21, label %22, label %28, !prof !100

22:                                               ; preds = %19
  %23 = tail call i32 @__cxa_guard_acquire(ptr nonnull @_ZGVZ8bmpModelR5MixerE4scm3) #33
  %24 = icmp eq i32 %23, 0
  br i1 %24, label %28, label %25

25:                                               ; preds = %22
  invoke void @_ZN25SmallStationaryContextMapC2Ei(ptr noundef nonnull align 8 dereferenceable(40) @_ZZ8bmpModelR5MixerE4scm3, i32 noundef 131072) #32
          to label %26 unwind label %240

26:                                               ; preds = %25
  %27 = tail call i32 @__cxa_atexit(ptr nonnull @_ZN25SmallStationaryContextMapD2Ev, ptr nonnull @_ZZ8bmpModelR5MixerE4scm3, ptr nonnull @__dso_handle) #33
  tail call void @__cxa_guard_release(ptr nonnull @_ZGVZ8bmpModelR5MixerE4scm3) #33
  br label %28

28:                                               ; preds = %26, %22, %19
  %29 = load atomic i8, ptr @_ZGVZ8bmpModelR5MixerE4scm4 acquire, align 8
  %30 = icmp eq i8 %29, 0
  br i1 %30, label %31, label %37, !prof !100

31:                                               ; preds = %28
  %32 = tail call i32 @__cxa_guard_acquire(ptr nonnull @_ZGVZ8bmpModelR5MixerE4scm4) #33
  %33 = icmp eq i32 %32, 0
  br i1 %33, label %37, label %34

34:                                               ; preds = %31
  invoke void @_ZN25SmallStationaryContextMapC2Ei(ptr noundef nonnull align 8 dereferenceable(40) @_ZZ8bmpModelR5MixerE4scm4, i32 noundef 131072) #32
          to label %35 unwind label %242

35:                                               ; preds = %34
  %36 = tail call i32 @__cxa_atexit(ptr nonnull @_ZN25SmallStationaryContextMapD2Ev, ptr nonnull @_ZZ8bmpModelR5MixerE4scm4, ptr nonnull @__dso_handle) #33
  tail call void @__cxa_guard_release(ptr nonnull @_ZGVZ8bmpModelR5MixerE4scm4) #33
  br label %37

37:                                               ; preds = %35, %31, %28
  %38 = load atomic i8, ptr @_ZGVZ8bmpModelR5MixerE4scm5 acquire, align 8
  %39 = icmp eq i8 %38, 0
  br i1 %39, label %40, label %46, !prof !100

40:                                               ; preds = %37
  %41 = tail call i32 @__cxa_guard_acquire(ptr nonnull @_ZGVZ8bmpModelR5MixerE4scm5) #33
  %42 = icmp eq i32 %41, 0
  br i1 %42, label %46, label %43

43:                                               ; preds = %40
  invoke void @_ZN25SmallStationaryContextMapC2Ei(ptr noundef nonnull align 8 dereferenceable(40) @_ZZ8bmpModelR5MixerE4scm5, i32 noundef 131072) #32
          to label %44 unwind label %244

44:                                               ; preds = %43
  %45 = tail call i32 @__cxa_atexit(ptr nonnull @_ZN25SmallStationaryContextMapD2Ev, ptr nonnull @_ZZ8bmpModelR5MixerE4scm5, ptr nonnull @__dso_handle) #33
  tail call void @__cxa_guard_release(ptr nonnull @_ZGVZ8bmpModelR5MixerE4scm5) #33
  br label %46

46:                                               ; preds = %44, %40, %37
  %47 = load atomic i8, ptr @_ZGVZ8bmpModelR5MixerE4scm6 acquire, align 8
  %48 = icmp eq i8 %47, 0
  br i1 %48, label %49, label %55, !prof !100

49:                                               ; preds = %46
  %50 = tail call i32 @__cxa_guard_acquire(ptr nonnull @_ZGVZ8bmpModelR5MixerE4scm6) #33
  %51 = icmp eq i32 %50, 0
  br i1 %51, label %55, label %52

52:                                               ; preds = %49
  invoke void @_ZN25SmallStationaryContextMapC2Ei(ptr noundef nonnull align 8 dereferenceable(40) @_ZZ8bmpModelR5MixerE4scm6, i32 noundef 131072) #32
          to label %53 unwind label %246

53:                                               ; preds = %52
  %54 = tail call i32 @__cxa_atexit(ptr nonnull @_ZN25SmallStationaryContextMapD2Ev, ptr nonnull @_ZZ8bmpModelR5MixerE4scm6, ptr nonnull @__dso_handle) #33
  tail call void @__cxa_guard_release(ptr nonnull @_ZGVZ8bmpModelR5MixerE4scm6) #33
  br label %55

55:                                               ; preds = %53, %49, %46
  %56 = load atomic i8, ptr @_ZGVZ8bmpModelR5MixerE4scm7 acquire, align 8
  %57 = icmp eq i8 %56, 0
  br i1 %57, label %58, label %64, !prof !100

58:                                               ; preds = %55
  %59 = tail call i32 @__cxa_guard_acquire(ptr nonnull @_ZGVZ8bmpModelR5MixerE4scm7) #33
  %60 = icmp eq i32 %59, 0
  br i1 %60, label %64, label %61

