; ModuleID = 'frame_layout.ll'
source_filename = "frame_layout.cpp"
target datalayout = "e-m:e-p270:32:32-p271:32:32-p272:64:64-i64:64-f80:128-n8:16:32:64-S128"
target triple = "x86_64-unknown-linux-gnu"

module asm ".globl _ZSt21ios_base_library_initv"

%"class.std::vector" = type { %"struct.std::_Vector_base" }
%"struct.std::_Vector_base" = type { %"struct.std::_Vector_base<const char *, std::allocator<const char *>>::_Vector_impl" }
%"struct.std::_Vector_base<const char *, std::allocator<const char *>>::_Vector_impl" = type { %"struct.std::_Vector_base<const char *, std::allocator<const char *>>::_Vector_impl_data" }
%"struct.std::_Vector_base<const char *, std::allocator<const char *>>::_Vector_impl_data" = type { ptr, ptr, ptr }
%"class.std::basic_ostream" = type { ptr, %"class.std::basic_ios" }
%"class.std::basic_ios" = type { %"class.std::ios_base", ptr, i8, i8, ptr, ptr, ptr, ptr }
%"class.std::ios_base" = type { ptr, i64, i64, i32, i32, i32, ptr, %"struct.std::ios_base::_Words", [8 x %"struct.std::ios_base::_Words"], i32, ptr, %"class.std::locale" }
%"struct.std::ios_base::_Words" = type { ptr, i64 }
%"class.std::locale" = type { ptr }
%struct.LotsOfLiveValues = type { i32, i32, i32, i32, i32, i32, i32, i32, i32, i32, i32, i32, i32, i32, i32, i32, i32, i32, i32, i32, i32, i32, i32, i32, i32, i32, i32, i32, i32, i32, i32, i32, i32, i32, i32, i32, i32, i32, i32 }
%struct.LotsOfLiveValues.0 = type { double, double, double, double, double, double, double, double, double, double, double, double, double, double, double, double, double, double, double, double, double, double, double, double, double, double, double, double, double, double, double, double, double, double, double, double, double, double, double }
%union.trace_element = type { ptr }
%"class.std::initializer_list" = type { ptr, i64 }
%"class.std::allocator" = type { i8 }
%"class.std::__cxx11::basic_string" = type { %"struct.std::__cxx11::basic_string<char>::_Alloc_hider", i64, %union.anon }
%"struct.std::__cxx11::basic_string<char>::_Alloc_hider" = type { ptr }
%union.anon = type { i64, [8 x i8] }
%"class.std::allocator.1" = type { i8 }
%"class.__gnu_cxx::__normal_iterator" = type { ptr }
%struct._Guard = type { ptr }

$_ZNSt6vectorIPKcSaIS1_EEC2ESt16initializer_listIS1_ERKS2_ = comdat any

$_ZNSt6vectorIPKcSaIS1_EED2Ev = comdat any

$_ZStplIcSt11char_traitsIcESaIcEENSt7__cxx1112basic_stringIT_T0_T1_EEOS8_PKS5_ = comdat any

$_ZNSt7__cxx1112basic_stringIcSt11char_traitsIcESaIcEEC2IS3_EEPKcRKS3_ = comdat any

$_ZNKSt6vectorIPKcSaIS1_EE5beginEv = comdat any

$_ZNKSt6vectorIPKcSaIS1_EE3endEv = comdat any

$_ZN9__gnu_cxxneIPKPKcSt6vectorIS2_SaIS2_EEEEbRKNS_17__normal_iteratorIT_T0_EESD_ = comdat any

$_ZNK9__gnu_cxx17__normal_iteratorIPKPKcSt6vectorIS2_SaIS2_EEEdeEv = comdat any

$_ZN9__gnu_cxx17__normal_iteratorIPKPKcSt6vectorIS2_SaIS2_EEEppEv = comdat any

$_Z19check_frame_variantILb1ELb0ELb0ELb0ELb0EEbiRVi = comdat any

$_Z19check_frame_variantILb0ELb0ELb0ELb0ELb0EEbiRVi = comdat any

$_Z19check_frame_variantILb1ELb1ELb0ELb0ELb0EEbiRVi = comdat any

$_Z19check_frame_variantILb0ELb1ELb0ELb0ELb0EEbiRVi = comdat any

$_Z19check_frame_variantILb1ELb0ELb1ELb0ELb0EEbiRVi = comdat any

$_Z19check_frame_variantILb0ELb0ELb1ELb0ELb0EEbiRVi = comdat any

$_Z19check_frame_variantILb1ELb1ELb1ELb0ELb0EEbiRVi = comdat any

$_Z19check_frame_variantILb0ELb1ELb1ELb0ELb0EEbiRVi = comdat any

$_Z19check_frame_variantILb1ELb0ELb0ELb1ELb0EEbiRVi = comdat any

$_Z19check_frame_variantILb0ELb0ELb0ELb1ELb0EEbiRVi = comdat any

$_Z19check_frame_variantILb1ELb1ELb0ELb1ELb0EEbiRVi = comdat any

$_Z19check_frame_variantILb0ELb1ELb0ELb1ELb0EEbiRVi = comdat any

$_Z19check_frame_variantILb1ELb0ELb1ELb1ELb0EEbiRVi = comdat any

$_Z19check_frame_variantILb0ELb0ELb1ELb1ELb0EEbiRVi = comdat any

$_Z19check_frame_variantILb1ELb1ELb1ELb1ELb0EEbiRVi = comdat any

$_Z19check_frame_variantILb0ELb1ELb1ELb1ELb0EEbiRVi = comdat any

$_Z19check_frame_variantILb1ELb0ELb0ELb0ELb1EEbiRVi = comdat any

$_Z19check_frame_variantILb0ELb0ELb0ELb0ELb1EEbiRVi = comdat any

$_Z19check_frame_variantILb1ELb1ELb0ELb0ELb1EEbiRVi = comdat any

$_Z19check_frame_variantILb0ELb1ELb0ELb0ELb1EEbiRVi = comdat any

$_Z19check_frame_variantILb1ELb0ELb1ELb0ELb1EEbiRVi = comdat any

$_Z19check_frame_variantILb0ELb0ELb1ELb0ELb1EEbiRVi = comdat any

$_Z19check_frame_variantILb1ELb1ELb1ELb0ELb1EEbiRVi = comdat any

$_Z19check_frame_variantILb0ELb1ELb1ELb0ELb1EEbiRVi = comdat any

$_Z19check_frame_variantILb1ELb0ELb0ELb1ELb1EEbiRVi = comdat any

$_Z19check_frame_variantILb0ELb0ELb0ELb1ELb1EEbiRVi = comdat any

$_Z19check_frame_variantILb1ELb1ELb0ELb1ELb1EEbiRVi = comdat any

$_Z19check_frame_variantILb0ELb1ELb0ELb1ELb1EEbiRVi = comdat any

$_Z19check_frame_variantILb1ELb0ELb1ELb1ELb1EEbiRVi = comdat any

$_Z19check_frame_variantILb0ELb0ELb1ELb1ELb1EEbiRVi = comdat any

$_Z19check_frame_variantILb1ELb1ELb1ELb1ELb1EEbiRVi = comdat any

$_Z19check_frame_variantILb0ELb1ELb1ELb1ELb1EEbiRVi = comdat any

$_ZNSt15__new_allocatorIcED2Ev = comdat any

$_ZNSt15__new_allocatorIPKcED2Ev = comdat any

$_ZNSt12_Vector_baseIPKcSaIS1_EEC2ERKS2_ = comdat any

$_ZNSt6vectorIPKcSaIS1_EE19_M_range_initializeIPKS1_EEvT_S7_St20forward_iterator_tag = comdat any

$_ZNKSt16initializer_listIPKcE5beginEv = comdat any

$_ZNKSt16initializer_listIPKcE3endEv = comdat any

$_ZNSt12_Vector_baseIPKcSaIS1_EED2Ev = comdat any

$_ZNSt12_Vector_baseIPKcSaIS1_EE12_Vector_implC2ERKS2_ = comdat any

$_ZNSt12_Vector_baseIPKcSaIS1_EE17_Vector_impl_dataC2Ev = comdat any

$_ZNSt12_Vector_baseIPKcSaIS1_EE11_M_allocateEm = comdat any

$_ZNSt6vectorIPKcSaIS1_EE17_S_check_init_lenEmRKS2_ = comdat any

$_ZNSt12_Vector_baseIPKcSaIS1_EE19_M_get_Tp_allocatorEv = comdat any

$_ZSt22__uninitialized_copy_aIPKPKcPS1_S1_ET0_T_S6_S5_RSaIT1_E = comdat any

$_ZNSt15__new_allocatorIPKcE8allocateEmPKv = comdat any

$_ZNSt6vectorIPKcSaIS1_EE11_S_max_sizeERKS2_ = comdat any

$_ZSt3minImERKT_S2_S2_ = comdat any

$__clang_call_terminate = comdat any

$_ZSt18uninitialized_copyIPKPKcPS1_ET0_T_S6_S5_ = comdat any

$_ZNSt20__uninitialized_copyILb1EE13__uninit_copyIPKPKcPS3_EET0_T_S8_S7_ = comdat any

$_ZSt4copyIPKPKcPS1_ET0_T_S6_S5_ = comdat any

$_ZSt13__copy_move_aILb0EPKPKcPS1_ET1_T0_S6_S5_ = comdat any

$_ZSt12__miter_baseIPKPKcET_S4_ = comdat any

$_ZSt12__niter_wrapIPPKcET_RKS3_S3_ = comdat any

$_ZSt14__copy_move_a1ILb0EPKPKcPS1_ET1_T0_S6_S5_ = comdat any

$_ZSt12__niter_baseIPKPKcET_S4_ = comdat any

$_ZSt12__niter_baseIPPKcET_S3_ = comdat any

$_ZSt14__copy_move_a2ILb0EPKPKcPS1_ET1_T0_S6_S5_ = comdat any

$_ZNSt11__copy_moveILb0ELb1ESt26random_access_iterator_tagE8__copy_mIKPKcS4_EEPT0_PT_S9_S7_ = comdat any

$_ZNSt11__copy_moveILb0ELb0ESt26random_access_iterator_tagE12__assign_oneIPKcKS4_EEvPT_PT0_ = comdat any

$_ZNKSt16initializer_listIPKcE4sizeEv = comdat any

$_ZNSt12_Vector_baseIPKcSaIS1_EE13_M_deallocateEPS1_m = comdat any

$_ZNSt12_Vector_baseIPKcSaIS1_EE12_Vector_implD2Ev = comdat any

$_ZNSt15__new_allocatorIPKcE10deallocateEPS1_m = comdat any

$_ZSt8_DestroyIPPKcEvT_S3_ = comdat any

$_ZNSt12_Destroy_auxILb1EE9__destroyIPPKcEEvT_S5_ = comdat any

$_ZNSt11char_traitsIcE6lengthEPKc = comdat any

$_ZNSt7__cxx1112basic_stringIcSt11char_traitsIcESaIcEE12_M_constructIPKcEEvT_S8_St20forward_iterator_tag = comdat any

$_ZNSt7__cxx1112basic_stringIcSt11char_traitsIcESaIcEE12_Alloc_hiderD2Ev = comdat any

$_ZZNSt7__cxx1112basic_stringIcSt11char_traitsIcESaIcEE12_M_constructIPKcEEvT_S8_St20forward_iterator_tagEN6_GuardC2EPS4_ = comdat any

$_ZZNSt7__cxx1112basic_stringIcSt11char_traitsIcESaIcEE12_M_constructIPKcEEvT_S8_St20forward_iterator_tagEN6_GuardD2Ev = comdat any

$_ZN9__gnu_cxx17__normal_iteratorIPKPKcSt6vectorIS2_SaIS2_EEEC2ERKS4_ = comdat any

$_ZNK9__gnu_cxx17__normal_iteratorIPKPKcSt6vectorIS2_SaIS2_EEE4baseEv = comdat any

$_Z10test_frameILj4096ELb0ELj2048ELb0ELb0EJEEvDpT4_jPKcP13trace_elementd = comdat any

$_Z10test_frameILj2ELb0ELj2048ELb0ELb0EJEEvDpT4_jPKcP13trace_elementd = comdat any

$_Z10test_frameILj4096ELb1ELj2048ELb0ELb0EJEEvDpT4_jPKcP13trace_elementd = comdat any

$_Z10test_frameILj2ELb1ELj2048ELb0ELb0EJEEvDpT4_jPKcP13trace_elementd = comdat any

$_Z10test_frameILj4096ELb0ELj2048ELb1ELb0EJEEvDpT4_jPKcP13trace_elementd = comdat any

$_Z10test_frameILj2ELb0ELj2048ELb1ELb0EJEEvDpT4_jPKcP13trace_elementd = comdat any

$_Z10test_frameILj4096ELb1ELj2048ELb1ELb0EJEEvDpT4_jPKcP13trace_elementd = comdat any

$_Z10test_frameILj2ELb1ELj2048ELb1ELb0EJEEvDpT4_jPKcP13trace_elementd = comdat any

$_Z10test_frameILj4096ELb0ELj2048ELb0ELb0EJiiiiiiiiiiiiiiiiiiiiddddddddddddddddddddEEvDpT4_jPKcP13trace_elementd = comdat any

$_Z10test_frameILj2ELb0ELj2048ELb0ELb0EJiiiiiiiiiiiiiiiiiiiiddddddddddddddddddddEEvDpT4_jPKcP13trace_elementd = comdat any

$_Z10test_frameILj4096ELb1ELj2048ELb0ELb0EJiiiiiiiiiiiiiiiiiiiiddddddddddddddddddddEEvDpT4_jPKcP13trace_elementd = comdat any

$_Z10test_frameILj2ELb1ELj2048ELb0ELb0EJiiiiiiiiiiiiiiiiiiiiddddddddddddddddddddEEvDpT4_jPKcP13trace_elementd = comdat any

$_Z10test_frameILj4096ELb0ELj2048ELb1ELb0EJiiiiiiiiiiiiiiiiiiiiddddddddddddddddddddEEvDpT4_jPKcP13trace_elementd = comdat any

$_Z10test_frameILj2ELb0ELj2048ELb1ELb0EJiiiiiiiiiiiiiiiiiiiiddddddddddddddddddddEEvDpT4_jPKcP13trace_elementd = comdat any

$_Z10test_frameILj4096ELb1ELj2048ELb1ELb0EJiiiiiiiiiiiiiiiiiiiiddddddddddddddddddddEEvDpT4_jPKcP13trace_elementd = comdat any

$_Z10test_frameILj2ELb1ELj2048ELb1ELb0EJiiiiiiiiiiiiiiiiiiiiddddddddddddddddddddEEvDpT4_jPKcP13trace_elementd = comdat any

$_Z10test_frameILj4096ELb0ELj2048ELb0ELb1EJEEvDpT4_jPKcP13trace_elementd = comdat any

$_Z10test_frameILj2ELb0ELj2048ELb0ELb1EJEEvDpT4_jPKcP13trace_elementd = comdat any

$_Z10test_frameILj4096ELb1ELj2048ELb0ELb1EJEEvDpT4_jPKcP13trace_elementd = comdat any

$_Z10test_frameILj2ELb1ELj2048ELb0ELb1EJEEvDpT4_jPKcP13trace_elementd = comdat any

$_Z10test_frameILj4096ELb0ELj2048ELb1ELb1EJEEvDpT4_jPKcP13trace_elementd = comdat any

$_Z10test_frameILj2ELb0ELj2048ELb1ELb1EJEEvDpT4_jPKcP13trace_elementd = comdat any

$_Z10test_frameILj4096ELb1ELj2048ELb1ELb1EJEEvDpT4_jPKcP13trace_elementd = comdat any

$_Z10test_frameILj2ELb1ELj2048ELb1ELb1EJEEvDpT4_jPKcP13trace_elementd = comdat any

$_Z10test_frameILj4096ELb0ELj2048ELb0ELb1EJiiiiiiiiiiiiiiiiiiiiddddddddddddddddddddEEvDpT4_jPKcP13trace_elementd = comdat any

$_Z10test_frameILj2ELb0ELj2048ELb0ELb1EJiiiiiiiiiiiiiiiiiiiiddddddddddddddddddddEEvDpT4_jPKcP13trace_elementd = comdat any

$_Z10test_frameILj4096ELb1ELj2048ELb0ELb1EJiiiiiiiiiiiiiiiiiiiiddddddddddddddddddddEEvDpT4_jPKcP13trace_elementd = comdat any

$_Z10test_frameILj2ELb1ELj2048ELb0ELb1EJiiiiiiiiiiiiiiiiiiiiddddddddddddddddddddEEvDpT4_jPKcP13trace_elementd = comdat any

$_Z10test_frameILj4096ELb0ELj2048ELb1ELb1EJiiiiiiiiiiiiiiiiiiiiddddddddddddddddddddEEvDpT4_jPKcP13trace_elementd = comdat any

$_Z10test_frameILj2ELb0ELj2048ELb1ELb1EJiiiiiiiiiiiiiiiiiiiiddddddddddddddddddddEEvDpT4_jPKcP13trace_elementd = comdat any

$_Z10test_frameILj4096ELb1ELj2048ELb1ELb1EJiiiiiiiiiiiiiiiiiiiiddddddddddddddddddddEEvDpT4_jPKcP13trace_elementd = comdat any

$_Z10test_frameILj2ELb1ELj2048ELb1ELb1EJiiiiiiiiiiiiiiiiiiiiddddddddddddddddddddEEvDpT4_jPKcP13trace_elementd = comdat any

@.str = private unnamed_addr constant [12 x i8] c"arg_passing\00", align 1
@.str.1 = private unnamed_addr constant [10 x i8] c"int_local\00", align 1
@.str.2 = private unnamed_addr constant [13 x i8] c"double_local\00", align 1
@.str.3 = private unnamed_addr constant [10 x i8] c"vla_start\00", align 1
@.str.4 = private unnamed_addr constant [8 x i8] c"vla_end\00", align 1
@.str.5 = private unnamed_addr constant [16 x i8] c"callee_save_int\00", align 1
@.str.6 = private unnamed_addr constant [19 x i8] c"callee_save_double\00", align 1
@.str.7 = private unnamed_addr constant [13 x i8] c"thrown_value\00", align 1
@_ZL21testDescriptionHeader = internal global %"class.std::vector" zeroinitializer, align 8
@.str.8 = private unnamed_addr constant [6 x i8] c"AVCAE\00", align 1
@.str.9 = private unnamed_addr constant [6 x i8] c"LLARX\00", align 1
@.str.10 = private unnamed_addr constant [6 x i8] c"IALGC\00", align 1
@.str.11 = private unnamed_addr constant [6 x i8] c"G|LSE\00", align 1
@.str.12 = private unnamed_addr constant [6 x i8] c"N|E P\00", align 1
@.str.13 = private unnamed_addr constant [6 x i8] c"E|EOT\00", align 1
@.str.14 = private unnamed_addr constant [6 x i8] c"D| NI\00", align 1
@.str.15 = private unnamed_addr constant [6 x i8] c" |S O\00", align 1
@.str.16 = private unnamed_addr constant [6 x i8] c"L|ASN\00", align 1
@.str.17 = private unnamed_addr constant [6 x i8] c"O|VT|\00", align 1
@.str.18 = private unnamed_addr constant [6 x i8] c"C|EA|\00", align 1
@.str.19 = private unnamed_addr constant [6 x i8] c"A||C|\00", align 1
@.str.20 = private unnamed_addr constant [6 x i8] c"L||K|\00", align 1
@.str.21 = private unnamed_addr constant [6 x i8] c"S||||\00", align 1
@.str.22 = private unnamed_addr constant [6 x i8] c"|||||\00", align 1
@.str.23 = private unnamed_addr constant [6 x i8] c"VVVVV\00", align 1
@constinit = private constant [16 x ptr] [ptr @.str.8, ptr @.str.9, ptr @.str.10, ptr @.str.11, ptr @.str.12, ptr @.str.13, ptr @.str.14, ptr @.str.15, ptr @.str.16, ptr @.str.17, ptr @.str.18, ptr @.str.19, ptr @.str.20, ptr @.str.21, ptr @.str.22, ptr @.str.23], align 8
@__dso_handle = external hidden global i8
@.str.24 = private unnamed_addr constant [1 x i8] zeroinitializer, align 1
@.str.25 = private unnamed_addr constant [2 x i8] c"+\00", align 1
@.str.26 = private unnamed_addr constant [2 x i8] c"-\00", align 1
@_ZSt4cout = external global %"class.std::basic_ostream", align 8
@.str.27 = private unnamed_addr constant [3 x i8] c", \00", align 1
@.str.28 = private unnamed_addr constant [14 x i8] c", alignment: \00", align 1
@.str.29 = private unnamed_addr constant [4 x i8] c" OK\00", align 1
@.str.30 = private unnamed_addr constant [29 x i8] c" ALIGNMENT NOT AS EXPECTED: \00", align 1
@.str.31 = private unnamed_addr constant [27 x i8] c" CONTENT NOT AS EXPECTED: \00", align 1
@.str.32 = private unnamed_addr constant [13 x i8] c" instead of \00", align 1
@.str.33 = private unnamed_addr constant [49 x i8] c"cannot create std::vector larger than max_size()\00", align 1
@.str.34 = private unnamed_addr constant [50 x i8] c"basic_string: construction from null is not valid\00", align 1
@.str.35 = private unnamed_addr constant [27 x i8] c"abcdefghijklmnopqrstuvwxyz\00", align 1
@_ZTIi = external constant ptr
@llvm.global_ctors = appending global [1 x { i32, ptr, ptr }] [{ i32, ptr, ptr } { i32 65535, ptr @_GLOBAL__sub_I_frame_layout.cpp, ptr null }]

; Function Attrs: noinline uwtable
define dso_local noundef zeroext i1 @_Z11check_tracePKcS0_PK13trace_elementdjbjjbbi(ptr noundef %variant, ptr noundef %input, ptr noundef %trace, double noundef %expected_d_value, i32 noundef %locals_alignment, i1 noundef zeroext %with_vla, i32 noundef %vla_size, i32 noundef %vla_alignment, i1 noundef zeroext %force_callee_save, i1 noundef zeroext %throw_exception, i32 noundef %exception_value) #0 {
entry:
  %i = alloca %struct.LotsOfLiveValues, align 4
  %d = alloca %struct.LotsOfLiveValues.0, align 8
  %frombool = zext i1 %with_vla to i8
  %frombool1 = zext i1 %force_callee_save to i8
  %frombool2 = zext i1 %throw_exception to i8
  %incdec.ptr = getelementptr inbounds %union.trace_element, ptr %trace, i32 1
  %0 = load double, ptr %trace, align 8
  %call = call noundef zeroext i1 @_ZL35check_and_print_value_and_alignmentIdEbPKcS1_jPKvT_S4_(ptr noundef %variant, ptr noundef @.str, i32 noundef 0, ptr noundef null, double noundef %0, double noundef %expected_d_value)
  %frombool3 = zext i1 %call to i8
  %incdec.ptr4 = getelementptr inbounds %union.trace_element, ptr %incdec.ptr, i32 1
  %1 = load i32, ptr %incdec.ptr, align 8
  %incdec.ptr5 = getelementptr inbounds %union.trace_element, ptr %incdec.ptr4, i32 1
  %2 = load ptr, ptr %incdec.ptr4, align 8
  %incdec.ptr6 = getelementptr inbounds %union.trace_element, ptr %incdec.ptr5, i32 1
  %3 = load double, ptr %incdec.ptr5, align 8
  %incdec.ptr7 = getelementptr inbounds %union.trace_element, ptr %incdec.ptr6, i32 1
  %4 = load ptr, ptr %incdec.ptr6, align 8
  %incdec.ptr8 = getelementptr inbounds i8, ptr %input, i32 1
  %5 = load i8, ptr %input, align 1
  %conv = sext i8 %5 to i32
  %call9 = call noundef zeroext i1 @_ZL35check_and_print_value_and_alignmentIiEbPKcS1_jPKvT_S4_(ptr noundef %variant, ptr noundef @.str.1, i32 noundef %locals_alignment, ptr noundef %2, i32 noundef %1, i32 noundef %conv)
  %conv10 = zext i1 %call9 to i32
  %tobool = trunc i8 %frombool3 to i1
  %conv11 = zext i1 %tobool to i32
  %or = or i32 %conv11, %conv10
  %tobool12 = icmp ne i32 %or, 0
  %frombool13 = zext i1 %tobool12 to i8
  %incdec.ptr14 = getelementptr inbounds i8, ptr %incdec.ptr8, i32 1
  %6 = load i8, ptr %incdec.ptr8, align 1
  %conv15 = sitofp i8 %6 to double
  %call16 = call noundef zeroext i1 @_ZL35check_and_print_value_and_alignmentIdEbPKcS1_jPKvT_S4_(ptr noundef %variant, ptr noundef @.str.2, i32 noundef %locals_alignment, ptr noundef %4, double noundef %3, double noundef %conv15)
  %conv17 = zext i1 %call16 to i32
  %tobool18 = trunc i8 %frombool13 to i1
  %conv19 = zext i1 %tobool18 to i32
  %or20 = or i32 %conv19, %conv17
  %tobool21 = icmp ne i32 %or20, 0
  %frombool22 = zext i1 %tobool21 to i8
  %tobool23 = trunc i8 %frombool to i1
  br i1 %tobool23, label %if.then, label %if.end

if.then:                                          ; preds = %entry
  %incdec.ptr24 = getelementptr inbounds i8, ptr %incdec.ptr14, i32 1
  %7 = load i8, ptr %incdec.ptr14, align 1
  %incdec.ptr25 = getelementptr inbounds i8, ptr %incdec.ptr24, i32 1
  %8 = load i8, ptr %incdec.ptr24, align 1
  %incdec.ptr26 = getelementptr inbounds %union.trace_element, ptr %incdec.ptr7, i32 1
  %9 = load i32, ptr %incdec.ptr7, align 8
  %conv27 = trunc i32 %9 to i8
  %incdec.ptr28 = getelementptr inbounds %union.trace_element, ptr %incdec.ptr26, i32 1
  %10 = load ptr, ptr %incdec.ptr26, align 8
  %incdec.ptr29 = getelementptr inbounds %union.trace_element, ptr %incdec.ptr28, i32 1
  %11 = load i32, ptr %incdec.ptr28, align 8
  %conv30 = trunc i32 %11 to i8
  %incdec.ptr31 = getelementptr inbounds %union.trace_element, ptr %incdec.ptr29, i32 1
  %12 = load ptr, ptr %incdec.ptr29, align 8
  %call32 = call noundef zeroext i1 @_ZL35check_and_print_value_and_alignmentIcEbPKcS1_jPKvT_S4_(ptr noundef %variant, ptr noundef @.str.3, i32 noundef %vla_alignment, ptr noundef %10, i8 noundef signext %conv27, i8 noundef signext %7)
  %conv33 = zext i1 %call32 to i32
  %tobool34 = trunc i8 %frombool22 to i1
  %conv35 = zext i1 %tobool34 to i32
  %or36 = or i32 %conv35, %conv33
  %tobool37 = icmp ne i32 %or36, 0
  %frombool38 = zext i1 %tobool37 to i8
  %call39 = call noundef zeroext i1 @_ZL35check_and_print_value_and_alignmentIcEbPKcS1_jPKvT_S4_(ptr noundef %variant, ptr noundef @.str.4, i32 noundef 1, ptr noundef %12, i8 noundef signext %conv30, i8 noundef signext %8)
  %conv40 = zext i1 %call39 to i32
  %tobool41 = trunc i8 %frombool38 to i1
  %conv42 = zext i1 %tobool41 to i32
  %or43 = or i32 %conv42, %conv40
  %tobool44 = icmp ne i32 %or43, 0
  %frombool45 = zext i1 %tobool44 to i8
  br label %if.end

if.end:                                           ; preds = %if.then, %entry
  %input.addr.0 = phi ptr [ %incdec.ptr25, %if.then ], [ %incdec.ptr14, %entry ]
  %trace.addr.0 = phi ptr [ %incdec.ptr31, %if.then ], [ %incdec.ptr7, %entry ]
  %problem_found.0 = phi i8 [ %frombool45, %if.then ], [ %frombool22, %entry ]
  %tobool46 = trunc i8 %frombool1 to i1
  br i1 %tobool46, label %if.then47, label %if.end74

if.then47:                                        ; preds = %if.end
  %incdec.ptr48 = getelementptr inbounds i8, ptr %input.addr.0, i32 1
  %13 = load i8, ptr %input.addr.0, align 1
  %conv49 = sext i8 %13 to i32
  store i32 %conv49, ptr %i, align 4
  %d2.i = getelementptr inbounds %struct.LotsOfLiveValues, ptr %i, i32 0, i32 1
  %add.i6 = call i32 @_wyvern_slice__Z11check_tracePKcS0_PK13trace_elementdjbjjbbi_add.i_79638110()
  store i32 %add.i6, ptr %d2.i, align 4
  %d3.i = getelementptr inbounds %struct.LotsOfLiveValues, ptr %i, i32 0, i32 2
  %add6.i1 = call i32 @_wyvern_slice__Z11check_tracePKcS0_PK13trace_elementdjbjjbbi_add6.i_725666043()
  store i32 %add6.i1, ptr %d3.i, align 4
  %d4.i = getelementptr inbounds %struct.LotsOfLiveValues, ptr %i, i32 0, i32 3
  %add9.i7 = call i32 @_wyvern_slice__Z11check_tracePKcS0_PK13trace_elementdjbjjbbi_add9.i_778015173()
  store i32 %add9.i7, ptr %d4.i, align 4
  %d5.i = getelementptr inbounds %struct.LotsOfLiveValues, ptr %i, i32 0, i32 4
  %add12.i8 = call i32 @_wyvern_slice__Z11check_tracePKcS0_PK13trace_elementdjbjjbbi_add12.i_871992298()
  store i32 %add12.i8, ptr %d5.i, align 4
  %d6.i = getelementptr inbounds %struct.LotsOfLiveValues, ptr %i, i32 0, i32 5
  %add15.i9 = call i32 @_wyvern_slice__Z11check_tracePKcS0_PK13trace_elementdjbjjbbi_add15.i_699640918()
  store i32 %add15.i9, ptr %d6.i, align 4
  %d7.i = getelementptr inbounds %struct.LotsOfLiveValues, ptr %i, i32 0, i32 6
  %add18.i10 = call i32 @_wyvern_slice__Z11check_tracePKcS0_PK13trace_elementdjbjjbbi_add18.i_229401483()
  store i32 %add18.i10, ptr %d7.i, align 4
  %d8.i = getelementptr inbounds %struct.LotsOfLiveValues, ptr %i, i32 0, i32 7
  %add21.i11 = call i32 @_wyvern_slice__Z11check_tracePKcS0_PK13trace_elementdjbjjbbi_add21.i_453874021()
  store i32 %add21.i11, ptr %d8.i, align 4
  %d9.i = getelementptr inbounds %struct.LotsOfLiveValues, ptr %i, i32 0, i32 8
  %add24.i2 = call i32 @_wyvern_slice__Z11check_tracePKcS0_PK13trace_elementdjbjjbbi_add24.i_379413497()
  store i32 %add24.i2, ptr %d9.i, align 4
  %d10.i = getelementptr inbounds %struct.LotsOfLiveValues, ptr %i, i32 0, i32 9
  %add27.i3 = call i32 @_wyvern_slice__Z11check_tracePKcS0_PK13trace_elementdjbjjbbi_add27.i_116684249()
  store i32 %add27.i3, ptr %d10.i, align 4
  %d11.i = getelementptr inbounds %struct.LotsOfLiveValues, ptr %i, i32 0, i32 10
  %add30.i12 = call i32 @_wyvern_slice__Z11check_tracePKcS0_PK13trace_elementdjbjjbbi_add30.i_452335753()
  store i32 %add30.i12, ptr %d11.i, align 4
  %d1231.i = getelementptr inbounds %struct.LotsOfLiveValues, ptr %i, i32 0, i32 11
  %add34.i13 = call i32 @_wyvern_slice__Z11check_tracePKcS0_PK13trace_elementdjbjjbbi_add34.i_947872048()
  store i32 %add34.i13, ptr %d1231.i, align 4
  %d1335.i = getelementptr inbounds %struct.LotsOfLiveValues, ptr %i, i32 0, i32 12
  %add38.i14 = call i32 @_wyvern_slice__Z11check_tracePKcS0_PK13trace_elementdjbjjbbi_add38.i_539862683()
  store i32 %add38.i14, ptr %d1335.i, align 4
  %d1439.i = getelementptr inbounds %struct.LotsOfLiveValues, ptr %i, i32 0, i32 13
  %add42.i15 = call i32 @_wyvern_slice__Z11check_tracePKcS0_PK13trace_elementdjbjjbbi_add42.i_14667220()
  store i32 %add42.i15, ptr %d1439.i, align 4
  %d15.i = getelementptr inbounds %struct.LotsOfLiveValues, ptr %i, i32 0, i32 14
  %add45.i16 = call i32 @_wyvern_slice__Z11check_tracePKcS0_PK13trace_elementdjbjjbbi_add45.i_54703108()
  store i32 %add45.i16, ptr %d15.i, align 4
  %d16.i = getelementptr inbounds %struct.LotsOfLiveValues, ptr %i, i32 0, i32 15
  %add48.i17 = call i32 @_wyvern_slice__Z11check_tracePKcS0_PK13trace_elementdjbjjbbi_add48.i_980930456()
  store i32 %add48.i17, ptr %d16.i, align 4
  %d1749.i = getelementptr inbounds %struct.LotsOfLiveValues, ptr %i, i32 0, i32 16
  %add52.i18 = call i32 @_wyvern_slice__Z11check_tracePKcS0_PK13trace_elementdjbjjbbi_add52.i_352864048()
  store i32 %add52.i18, ptr %d1749.i, align 4
  %d18.i = getelementptr inbounds %struct.LotsOfLiveValues, ptr %i, i32 0, i32 17
  %add55.i19 = call i32 @_wyvern_slice__Z11check_tracePKcS0_PK13trace_elementdjbjjbbi_add55.i_242678122()
  store i32 %add55.i19, ptr %d18.i, align 4
  %d19.i = getelementptr inbounds %struct.LotsOfLiveValues, ptr %i, i32 0, i32 18
  %add58.i20 = call i32 @_wyvern_slice__Z11check_tracePKcS0_PK13trace_elementdjbjjbbi_add58.i_561959204()
  store i32 %add58.i20, ptr %d19.i, align 4
  %d20.i = getelementptr inbounds %struct.LotsOfLiveValues, ptr %i, i32 0, i32 19
  %add61.i21 = call i32 @_wyvern_slice__Z11check_tracePKcS0_PK13trace_elementdjbjjbbi_add61.i_793751076()
  store i32 %add61.i21, ptr %d20.i, align 4
  %d21.i = getelementptr inbounds %struct.LotsOfLiveValues, ptr %i, i32 0, i32 20
  %add64.i22 = call i32 @_wyvern_slice__Z11check_tracePKcS0_PK13trace_elementdjbjjbbi_add64.i_717717205()
  store i32 %add64.i22, ptr %d21.i, align 4
  %d22.i = getelementptr inbounds %struct.LotsOfLiveValues, ptr %i, i32 0, i32 21
  %add67.i23 = call i32 @_wyvern_slice__Z11check_tracePKcS0_PK13trace_elementdjbjjbbi_add67.i_548130757()
  store i32 %add67.i23, ptr %d22.i, align 4
  %d23.i = getelementptr inbounds %struct.LotsOfLiveValues, ptr %i, i32 0, i32 22
  %add70.i24 = call i32 @_wyvern_slice__Z11check_tracePKcS0_PK13trace_elementdjbjjbbi_add70.i_402764612()
  store i32 %add70.i24, ptr %d23.i, align 4
  %d24.i = getelementptr inbounds %struct.LotsOfLiveValues, ptr %i, i32 0, i32 23
  %add73.i25 = call i32 @_wyvern_slice__Z11check_tracePKcS0_PK13trace_elementdjbjjbbi_add73.i_647489565()
  store i32 %add73.i25, ptr %d24.i, align 4
  %d2574.i = getelementptr inbounds %struct.LotsOfLiveValues, ptr %i, i32 0, i32 24
  %add77.i26 = call i32 @_wyvern_slice__Z11check_tracePKcS0_PK13trace_elementdjbjjbbi_add77.i_762575852()
  store i32 %add77.i26, ptr %d2574.i, align 4
  %d26.i = getelementptr inbounds %struct.LotsOfLiveValues, ptr %i, i32 0, i32 25
  %add80.i27 = call i32 @_wyvern_slice__Z11check_tracePKcS0_PK13trace_elementdjbjjbbi_add80.i_276811972()
  store i32 %add80.i27, ptr %d26.i, align 4
  %d27.i = getelementptr inbounds %struct.LotsOfLiveValues, ptr %i, i32 0, i32 26
  %add83.i4 = call i32 @_wyvern_slice__Z11check_tracePKcS0_PK13trace_elementdjbjjbbi_add83.i_441878893()
  store i32 %add83.i4, ptr %d27.i, align 4
  %d28.i = getelementptr inbounds %struct.LotsOfLiveValues, ptr %i, i32 0, i32 27
  %add86.i5 = call i32 @_wyvern_slice__Z11check_tracePKcS0_PK13trace_elementdjbjjbbi_add86.i_379141477()
  store i32 %add86.i5, ptr %d28.i, align 4
  %d29.i = getelementptr inbounds %struct.LotsOfLiveValues, ptr %i, i32 0, i32 28
  %add89.i44 = call i32 @_wyvern_slice__Z11check_tracePKcS0_PK13trace_elementdjbjjbbi_add89.i_957463967()
  store i32 %add89.i44, ptr %d29.i, align 4
  %d30.i = getelementptr inbounds %struct.LotsOfLiveValues, ptr %i, i32 0, i32 29
  %add92.i45 = call i32 @_wyvern_slice__Z11check_tracePKcS0_PK13trace_elementdjbjjbbi_add92.i_189182820()
  store i32 %add92.i45, ptr %d30.i, align 4
  %d31.i = getelementptr inbounds %struct.LotsOfLiveValues, ptr %i, i32 0, i32 30
  %add95.i46 = call i32 @_wyvern_slice__Z11check_tracePKcS0_PK13trace_elementdjbjjbbi_add95.i_246433034()
  store i32 %add95.i46, ptr %d31.i, align 4
  %d32.i = getelementptr inbounds %struct.LotsOfLiveValues, ptr %i, i32 0, i32 31
  %add98.i47 = call i32 @_wyvern_slice__Z11check_tracePKcS0_PK13trace_elementdjbjjbbi_add98.i_416170815()
  store i32 %add98.i47, ptr %d32.i, align 4
  %d33.i = getelementptr inbounds %struct.LotsOfLiveValues, ptr %i, i32 0, i32 32
  %add101.i48 = call i32 @_wyvern_slice__Z11check_tracePKcS0_PK13trace_elementdjbjjbbi_add101.i_123092476()
  store i32 %add101.i48, ptr %d33.i, align 4
  %d34.i = getelementptr inbounds %struct.LotsOfLiveValues, ptr %i, i32 0, i32 33
  %add104.i49 = call i32 @_wyvern_slice__Z11check_tracePKcS0_PK13trace_elementdjbjjbbi_add104.i_776359929()
  store i32 %add104.i49, ptr %d34.i, align 4
  %d35.i = getelementptr inbounds %struct.LotsOfLiveValues, ptr %i, i32 0, i32 34
  %add107.i50 = call i32 @_wyvern_slice__Z11check_tracePKcS0_PK13trace_elementdjbjjbbi_add107.i_252932971()
  store i32 %add107.i50, ptr %d35.i, align 4
  %d36.i = getelementptr inbounds %struct.LotsOfLiveValues, ptr %i, i32 0, i32 35
  %add110.i51 = call i32 @_wyvern_slice__Z11check_tracePKcS0_PK13trace_elementdjbjjbbi_add110.i_340675789()
  store i32 %add110.i51, ptr %d36.i, align 4
  %d37.i = getelementptr inbounds %struct.LotsOfLiveValues, ptr %i, i32 0, i32 36
  %add113.i52 = call i32 @_wyvern_slice__Z11check_tracePKcS0_PK13trace_elementdjbjjbbi_add113.i_426944689()
  store i32 %add113.i52, ptr %d37.i, align 4
  %d38114.i = getelementptr inbounds %struct.LotsOfLiveValues, ptr %i, i32 0, i32 37
  %add117.i53 = call i32 @_wyvern_slice__Z11check_tracePKcS0_PK13trace_elementdjbjjbbi_add117.i_990889366()
  store i32 %add117.i53, ptr %d38114.i, align 4
  %d39.i = getelementptr inbounds %struct.LotsOfLiveValues, ptr %i, i32 0, i32 38
  %add120.i54 = call i32 @_wyvern_slice__Z11check_tracePKcS0_PK13trace_elementdjbjjbbi_add120.i_5187494()
  store i32 %add120.i54, ptr %d39.i, align 4
  %incdec.ptr50 = getelementptr inbounds i8, ptr %incdec.ptr48, i32 1
  %14 = load i8, ptr %incdec.ptr48, align 1
  %conv51 = sitofp i8 %14 to double
  store double %conv51, ptr %d, align 8
  %d2.i87 = getelementptr inbounds %struct.LotsOfLiveValues.0, ptr %d, i32 0, i32 1
  %15 = load double, ptr %d, align 8
  %16 = load double, ptr %d, align 8
  %add.i88 = fadd double %15, %16
  store double %add.i88, ptr %d2.i87, align 8
  %d3.i89 = getelementptr inbounds %struct.LotsOfLiveValues.0, ptr %d, i32 0, i32 2
  %17 = load double, ptr %d, align 8
  %d25.i90 = getelementptr inbounds %struct.LotsOfLiveValues.0, ptr %d, i32 0, i32 1
  %18 = load double, ptr %d25.i90, align 8
  %add6.i91 = fadd double %17, %18
  store double %add6.i91, ptr %d3.i89, align 8
  %d4.i92 = getelementptr inbounds %struct.LotsOfLiveValues.0, ptr %d, i32 0, i32 3
  %19 = load double, ptr %d, align 8
  %d38.i93 = getelementptr inbounds %struct.LotsOfLiveValues.0, ptr %d, i32 0, i32 2
  %20 = load double, ptr %d38.i93, align 8
  %add9.i94 = fadd double %19, %20
  store double %add9.i94, ptr %d4.i92, align 8
  %d5.i95 = getelementptr inbounds %struct.LotsOfLiveValues.0, ptr %d, i32 0, i32 4
  %21 = load double, ptr %d, align 8
  %d411.i96 = getelementptr inbounds %struct.LotsOfLiveValues.0, ptr %d, i32 0, i32 3
  %22 = load double, ptr %d411.i96, align 8
  %add12.i97 = fadd double %21, %22
  store double %add12.i97, ptr %d5.i95, align 8
  %d6.i98 = getelementptr inbounds %struct.LotsOfLiveValues.0, ptr %d, i32 0, i32 5
  %23 = load double, ptr %d, align 8
  %d514.i99 = getelementptr inbounds %struct.LotsOfLiveValues.0, ptr %d, i32 0, i32 4
  %24 = load double, ptr %d514.i99, align 8
  %add15.i100 = fadd double %23, %24
  store double %add15.i100, ptr %d6.i98, align 8
  %d7.i101 = getelementptr inbounds %struct.LotsOfLiveValues.0, ptr %d, i32 0, i32 6
  %25 = load double, ptr %d, align 8
  %d617.i102 = getelementptr inbounds %struct.LotsOfLiveValues.0, ptr %d, i32 0, i32 5
  %26 = load double, ptr %d617.i102, align 8
  %add18.i103 = fadd double %25, %26
  store double %add18.i103, ptr %d7.i101, align 8
  %d8.i104 = getelementptr inbounds %struct.LotsOfLiveValues.0, ptr %d, i32 0, i32 7
  %27 = load double, ptr %d, align 8
  %d720.i105 = getelementptr inbounds %struct.LotsOfLiveValues.0, ptr %d, i32 0, i32 6
  %28 = load double, ptr %d720.i105, align 8
  %add21.i106 = fadd double %27, %28
  store double %add21.i106, ptr %d8.i104, align 8
  %d9.i107 = getelementptr inbounds %struct.LotsOfLiveValues.0, ptr %d, i32 0, i32 8
  %29 = load double, ptr %d, align 8
  %d823.i108 = getelementptr inbounds %struct.LotsOfLiveValues.0, ptr %d, i32 0, i32 7
  %30 = load double, ptr %d823.i108, align 8
  %add24.i109 = fadd double %29, %30
  store double %add24.i109, ptr %d9.i107, align 8
  %d10.i110 = getelementptr inbounds %struct.LotsOfLiveValues.0, ptr %d, i32 0, i32 9
  %31 = load double, ptr %d, align 8
  %d926.i111 = getelementptr inbounds %struct.LotsOfLiveValues.0, ptr %d, i32 0, i32 8
  %32 = load double, ptr %d926.i111, align 8
  %add27.i112 = fadd double %31, %32
  store double %add27.i112, ptr %d10.i110, align 8
  %d11.i113 = getelementptr inbounds %struct.LotsOfLiveValues.0, ptr %d, i32 0, i32 10
  %33 = load double, ptr %d, align 8
  %d1029.i114 = getelementptr inbounds %struct.LotsOfLiveValues.0, ptr %d, i32 0, i32 9
  %34 = load double, ptr %d1029.i114, align 8
  %add30.i115 = fadd double %33, %34
  store double %add30.i115, ptr %d11.i113, align 8
  %d1231.i116 = getelementptr inbounds %struct.LotsOfLiveValues.0, ptr %d, i32 0, i32 11
  %35 = load double, ptr %d, align 8
  %d1133.i117 = getelementptr inbounds %struct.LotsOfLiveValues.0, ptr %d, i32 0, i32 10
  %36 = load double, ptr %d1133.i117, align 8
  %add34.i118 = fadd double %35, %36
  store double %add34.i118, ptr %d1231.i116, align 8
  %d1335.i119 = getelementptr inbounds %struct.LotsOfLiveValues.0, ptr %d, i32 0, i32 12
  %37 = load double, ptr %d, align 8
  %d1237.i120 = getelementptr inbounds %struct.LotsOfLiveValues.0, ptr %d, i32 0, i32 11
  %38 = load double, ptr %d1237.i120, align 8
  %add38.i121 = fadd double %37, %38
  store double %add38.i121, ptr %d1335.i119, align 8
  %d1439.i122 = getelementptr inbounds %struct.LotsOfLiveValues.0, ptr %d, i32 0, i32 13
  %39 = load double, ptr %d, align 8
  %d1341.i123 = getelementptr inbounds %struct.LotsOfLiveValues.0, ptr %d, i32 0, i32 12
  %40 = load double, ptr %d1341.i123, align 8
  %add42.i124 = fadd double %39, %40
  store double %add42.i124, ptr %d1439.i122, align 8
  %d15.i125 = getelementptr inbounds %struct.LotsOfLiveValues.0, ptr %d, i32 0, i32 14
  %41 = load double, ptr %d, align 8
  %d1444.i126 = getelementptr inbounds %struct.LotsOfLiveValues.0, ptr %d, i32 0, i32 13
  %42 = load double, ptr %d1444.i126, align 8
  %add45.i127 = fadd double %41, %42
  store double %add45.i127, ptr %d15.i125, align 8
  %d16.i128 = getelementptr inbounds %struct.LotsOfLiveValues.0, ptr %d, i32 0, i32 15
  %43 = load double, ptr %d, align 8
  %d1547.i129 = getelementptr inbounds %struct.LotsOfLiveValues.0, ptr %d, i32 0, i32 14
  %44 = load double, ptr %d1547.i129, align 8
  %add48.i130 = fadd double %43, %44
  store double %add48.i130, ptr %d16.i128, align 8
  %d1749.i131 = getelementptr inbounds %struct.LotsOfLiveValues.0, ptr %d, i32 0, i32 16
  %45 = load double, ptr %d, align 8
  %d1651.i132 = getelementptr inbounds %struct.LotsOfLiveValues.0, ptr %d, i32 0, i32 15
  %46 = load double, ptr %d1651.i132, align 8
  %add52.i133 = fadd double %45, %46
  store double %add52.i133, ptr %d1749.i131, align 8
  %d18.i134 = getelementptr inbounds %struct.LotsOfLiveValues.0, ptr %d, i32 0, i32 17
  %47 = load double, ptr %d, align 8
  %d1754.i135 = getelementptr inbounds %struct.LotsOfLiveValues.0, ptr %d, i32 0, i32 16
  %48 = load double, ptr %d1754.i135, align 8
  %add55.i136 = fadd double %47, %48
  store double %add55.i136, ptr %d18.i134, align 8
  %d19.i137 = getelementptr inbounds %struct.LotsOfLiveValues.0, ptr %d, i32 0, i32 18
  %49 = load double, ptr %d, align 8
  %d1857.i138 = getelementptr inbounds %struct.LotsOfLiveValues.0, ptr %d, i32 0, i32 17
  %50 = load double, ptr %d1857.i138, align 8
  %add58.i139 = fadd double %49, %50
  store double %add58.i139, ptr %d19.i137, align 8
  %d20.i140 = getelementptr inbounds %struct.LotsOfLiveValues.0, ptr %d, i32 0, i32 19
  %51 = load double, ptr %d, align 8
  %d1960.i141 = getelementptr inbounds %struct.LotsOfLiveValues.0, ptr %d, i32 0, i32 18
  %52 = load double, ptr %d1960.i141, align 8
  %add61.i142 = fadd double %51, %52
  store double %add61.i142, ptr %d20.i140, align 8
  %d21.i143 = getelementptr inbounds %struct.LotsOfLiveValues.0, ptr %d, i32 0, i32 20
  %53 = load double, ptr %d, align 8
  %d2063.i144 = getelementptr inbounds %struct.LotsOfLiveValues.0, ptr %d, i32 0, i32 19
  %54 = load double, ptr %d2063.i144, align 8
  %add64.i145 = fadd double %53, %54
  store double %add64.i145, ptr %d21.i143, align 8
  %d22.i146 = getelementptr inbounds %struct.LotsOfLiveValues.0, ptr %d, i32 0, i32 21
  %55 = load double, ptr %d, align 8
  %d2166.i147 = getelementptr inbounds %struct.LotsOfLiveValues.0, ptr %d, i32 0, i32 20
  %56 = load double, ptr %d2166.i147, align 8
  %add67.i148 = fadd double %55, %56
  store double %add67.i148, ptr %d22.i146, align 8
  %d23.i149 = getelementptr inbounds %struct.LotsOfLiveValues.0, ptr %d, i32 0, i32 22
  %57 = load double, ptr %d, align 8
  %d2269.i150 = getelementptr inbounds %struct.LotsOfLiveValues.0, ptr %d, i32 0, i32 21
  %58 = load double, ptr %d2269.i150, align 8
  %add70.i151 = fadd double %57, %58
  store double %add70.i151, ptr %d23.i149, align 8
  %d24.i152 = getelementptr inbounds %struct.LotsOfLiveValues.0, ptr %d, i32 0, i32 23
  %59 = load double, ptr %d, align 8
  %d2372.i153 = getelementptr inbounds %struct.LotsOfLiveValues.0, ptr %d, i32 0, i32 22
  %60 = load double, ptr %d2372.i153, align 8
  %add73.i154 = fadd double %59, %60
  store double %add73.i154, ptr %d24.i152, align 8
  %d2574.i155 = getelementptr inbounds %struct.LotsOfLiveValues.0, ptr %d, i32 0, i32 24
  %61 = load double, ptr %d, align 8
  %d2476.i156 = getelementptr inbounds %struct.LotsOfLiveValues.0, ptr %d, i32 0, i32 23
  %62 = load double, ptr %d2476.i156, align 8
  %add77.i157 = fadd double %61, %62
  store double %add77.i157, ptr %d2574.i155, align 8
  %d26.i158 = getelementptr inbounds %struct.LotsOfLiveValues.0, ptr %d, i32 0, i32 25
  %63 = load double, ptr %d, align 8
  %d2579.i159 = getelementptr inbounds %struct.LotsOfLiveValues.0, ptr %d, i32 0, i32 24
  %64 = load double, ptr %d2579.i159, align 8
  %add80.i160 = fadd double %63, %64
  store double %add80.i160, ptr %d26.i158, align 8
  %d27.i161 = getelementptr inbounds %struct.LotsOfLiveValues.0, ptr %d, i32 0, i32 26
  %65 = load double, ptr %d, align 8
  %d2682.i162 = getelementptr inbounds %struct.LotsOfLiveValues.0, ptr %d, i32 0, i32 25
  %66 = load double, ptr %d2682.i162, align 8
  %add83.i163 = fadd double %65, %66
  store double %add83.i163, ptr %d27.i161, align 8
  %d28.i164 = getelementptr inbounds %struct.LotsOfLiveValues.0, ptr %d, i32 0, i32 27
  %67 = load double, ptr %d, align 8
  %d2785.i165 = getelementptr inbounds %struct.LotsOfLiveValues.0, ptr %d, i32 0, i32 26
  %68 = load double, ptr %d2785.i165, align 8
  %add86.i166 = fadd double %67, %68
  store double %add86.i166, ptr %d28.i164, align 8
  %d29.i167 = getelementptr inbounds %struct.LotsOfLiveValues.0, ptr %d, i32 0, i32 28
  %69 = load double, ptr %d, align 8
  %d2888.i168 = getelementptr inbounds %struct.LotsOfLiveValues.0, ptr %d, i32 0, i32 27
  %70 = load double, ptr %d2888.i168, align 8
  %add89.i169 = fadd double %69, %70
  store double %add89.i169, ptr %d29.i167, align 8
  %d30.i170 = getelementptr inbounds %struct.LotsOfLiveValues.0, ptr %d, i32 0, i32 29
  %71 = load double, ptr %d, align 8
  %d2991.i171 = getelementptr inbounds %struct.LotsOfLiveValues.0, ptr %d, i32 0, i32 28
  %72 = load double, ptr %d2991.i171, align 8
  %add92.i172 = fadd double %71, %72
  store double %add92.i172, ptr %d30.i170, align 8
  %d31.i173 = getelementptr inbounds %struct.LotsOfLiveValues.0, ptr %d, i32 0, i32 30
  %73 = load double, ptr %d, align 8
  %d3094.i174 = getelementptr inbounds %struct.LotsOfLiveValues.0, ptr %d, i32 0, i32 29
  %74 = load double, ptr %d3094.i174, align 8
  %add95.i175 = fadd double %73, %74
  store double %add95.i175, ptr %d31.i173, align 8
  %d32.i176 = getelementptr inbounds %struct.LotsOfLiveValues.0, ptr %d, i32 0, i32 31
  %75 = load double, ptr %d, align 8
  %d3197.i177 = getelementptr inbounds %struct.LotsOfLiveValues.0, ptr %d, i32 0, i32 30
  %76 = load double, ptr %d3197.i177, align 8
  %add98.i178 = fadd double %75, %76
  store double %add98.i178, ptr %d32.i176, align 8
  %d33.i179 = getelementptr inbounds %struct.LotsOfLiveValues.0, ptr %d, i32 0, i32 32
  %77 = load double, ptr %d, align 8
  %d32100.i180 = getelementptr inbounds %struct.LotsOfLiveValues.0, ptr %d, i32 0, i32 31
  %78 = load double, ptr %d32100.i180, align 8
  %add101.i181 = fadd double %77, %78
  store double %add101.i181, ptr %d33.i179, align 8
  %d34.i182 = getelementptr inbounds %struct.LotsOfLiveValues.0, ptr %d, i32 0, i32 33
  %79 = load double, ptr %d, align 8
  %d33103.i183 = getelementptr inbounds %struct.LotsOfLiveValues.0, ptr %d, i32 0, i32 32
  %80 = load double, ptr %d33103.i183, align 8
  %add104.i184 = fadd double %79, %80
  store double %add104.i184, ptr %d34.i182, align 8
  %d35.i185 = getelementptr inbounds %struct.LotsOfLiveValues.0, ptr %d, i32 0, i32 34
  %81 = load double, ptr %d, align 8
  %d34106.i186 = getelementptr inbounds %struct.LotsOfLiveValues.0, ptr %d, i32 0, i32 33
  %82 = load double, ptr %d34106.i186, align 8
  %add107.i187 = fadd double %81, %82
  store double %add107.i187, ptr %d35.i185, align 8
  %d36.i188 = getelementptr inbounds %struct.LotsOfLiveValues.0, ptr %d, i32 0, i32 35
  %83 = load double, ptr %d, align 8
  %d35109.i189 = getelementptr inbounds %struct.LotsOfLiveValues.0, ptr %d, i32 0, i32 34
  %84 = load double, ptr %d35109.i189, align 8
  %add110.i190 = fadd double %83, %84
  store double %add110.i190, ptr %d36.i188, align 8
  %d37.i191 = getelementptr inbounds %struct.LotsOfLiveValues.0, ptr %d, i32 0, i32 36
  %85 = load double, ptr %d, align 8
  %d36112.i192 = getelementptr inbounds %struct.LotsOfLiveValues.0, ptr %d, i32 0, i32 35
  %86 = load double, ptr %d36112.i192, align 8
  %add113.i193 = fadd double %85, %86
  store double %add113.i193, ptr %d37.i191, align 8
  %d38114.i194 = getelementptr inbounds %struct.LotsOfLiveValues.0, ptr %d, i32 0, i32 37
  %87 = load double, ptr %d, align 8
  %d37116.i195 = getelementptr inbounds %struct.LotsOfLiveValues.0, ptr %d, i32 0, i32 36
  %88 = load double, ptr %d37116.i195, align 8
  %add117.i196 = fadd double %87, %88
  store double %add117.i196, ptr %d38114.i194, align 8
  %d39.i197 = getelementptr inbounds %struct.LotsOfLiveValues.0, ptr %d, i32 0, i32 38
  %89 = load double, ptr %d, align 8
  %d38119.i198 = getelementptr inbounds %struct.LotsOfLiveValues.0, ptr %d, i32 0, i32 37
  %90 = load double, ptr %d38119.i198, align 8
  %add120.i199 = fadd double %89, %90
  store double %add120.i199, ptr %d39.i197, align 8
  %div38.i91 = call i32 @_wyvern_slice__Z11check_tracePKcS0_PK13trace_elementdjbjjbbi_div38.i_292550675()
  %91 = load i32, ptr %i, align 4
  %div38.i320118 = call i32 @_wyvern_slice__Z11check_tracePKcS0_PK13trace_elementdjbjjbbi_div38.i320_841615971()
  %div39.i = sdiv i32 %div38.i320118, %91
  %mul.i = mul nsw i32 %div38.i91, %div39.i
  %div38.i398152 = call double @_wyvern_slice__Z11check_tracePKcS0_PK13trace_elementdjbjjbbi_div38.i398_556016951()
  %92 = load double, ptr %d, align 8
  %div38.i477190 = call double @_wyvern_slice__Z11check_tracePKcS0_PK13trace_elementdjbjjbbi_div38.i477_808997262()
  %div39.i478 = fdiv double %div38.i477190, %92
  %mul.i206 = fmul double %div38.i398152, %div39.i478
  %incdec.ptr54 = getelementptr inbounds %union.trace_element, ptr %trace.addr.0, i32 1
  %93 = load i32, ptr %trace.addr.0, align 8
  %conv55 = trunc i32 %93 to i8
  %conv56 = trunc i32 %mul.i to i8
  %call57 = call noundef zeroext i1 @_ZL35check_and_print_value_and_alignmentIcEbPKcS1_jPKvT_S4_(ptr noundef %variant, ptr noundef @.str.5, i32 noundef 1, ptr noundef null, i8 noundef signext %conv55, i8 noundef signext %conv56)
  %conv58 = zext i1 %call57 to i32
  %tobool59 = trunc i8 %problem_found.0 to i1
  %conv60 = zext i1 %tobool59 to i32
  %or61 = or i32 %conv60, %conv58
  %tobool62 = icmp ne i32 %or61, 0
  %frombool63 = zext i1 %tobool62 to i8
  %incdec.ptr64 = getelementptr inbounds %union.trace_element, ptr %incdec.ptr54, i32 1
  %94 = load double, ptr %incdec.ptr54, align 8
  %conv65 = fptosi double %94 to i8
  %conv66 = fptosi double %mul.i206 to i8
  %call67 = call noundef zeroext i1 @_ZL35check_and_print_value_and_alignmentIcEbPKcS1_jPKvT_S4_(ptr noundef %variant, ptr noundef @.str.6, i32 noundef 1, ptr noundef null, i8 noundef signext %conv65, i8 noundef signext %conv66)
  %conv68 = zext i1 %call67 to i32
  %tobool69 = trunc i8 %frombool63 to i1
  %conv70 = zext i1 %tobool69 to i32
  %or71 = or i32 %conv70, %conv68
  %tobool72 = icmp ne i32 %or71, 0
  %frombool73 = zext i1 %tobool72 to i8
  br label %if.end74

if.end74:                                         ; preds = %if.then47, %if.end
  %problem_found.1 = phi i8 [ %frombool73, %if.then47 ], [ %problem_found.0, %if.end ]
  %tobool75 = trunc i8 %frombool2 to i1
  %95 = zext i1 %tobool75 to i64
  %cond = select i1 %tobool75, i32 42, i32 -1
  %call76 = call noundef zeroext i1 @_ZL35check_and_print_value_and_alignmentIiEbPKcS1_jPKvT_S4_(ptr noundef %variant, ptr noundef @.str.7, i32 noundef 1, ptr noundef null, i32 noundef %exception_value, i32 noundef %cond)
  %conv77 = zext i1 %call76 to i32
  %tobool78 = trunc i8 %problem_found.1 to i1
  %conv79 = zext i1 %tobool78 to i32
  %or80 = or i32 %conv79, %conv77
  %tobool81 = icmp ne i32 %or80, 0
  %frombool82 = zext i1 %tobool81 to i8
  %tobool83 = trunc i8 %frombool82 to i1
  ret i1 %tobool83
}

; Function Attrs: mustprogress noinline uwtable
define internal noundef zeroext i1 @_ZL35check_and_print_value_and_alignmentIdEbPKcS1_jPKvT_S4_(ptr noundef %variant, ptr noundef %label, i32 noundef %expected_alignment, ptr noundef %p, double noundef %value, double noundef %expected_value) #1 {
entry:
  %call = call noundef zeroext i1 @_ZL24is_alignment_as_expectedPKvj(ptr noundef %p, i32 noundef %expected_alignment)
  %frombool = zext i1 %call to i8
  %cmp = fcmp oeq double %value, %expected_value
  %frombool1 = zext i1 %cmp to i8
  %call2 = call noundef nonnull align 8 dereferenceable(8) ptr @_ZStlsISt11char_traitsIcEERSt13basic_ostreamIcT_ES5_PKc(ptr noundef nonnull align 8 dereferenceable(8) @_ZSt4cout, ptr noundef %variant)
  %call3 = call noundef nonnull align 8 dereferenceable(8) ptr @_ZStlsISt11char_traitsIcEERSt13basic_ostreamIcT_ES5_PKc(ptr noundef nonnull align 8 dereferenceable(8) %call2, ptr noundef @.str.27)
  %call4 = call noundef nonnull align 8 dereferenceable(8) ptr @_ZStlsISt11char_traitsIcEERSt13basic_ostreamIcT_ES5_PKc(ptr noundef nonnull align 8 dereferenceable(8) %call3, ptr noundef %label)
  %call5 = call noundef nonnull align 8 dereferenceable(8) ptr @_ZStlsISt11char_traitsIcEERSt13basic_ostreamIcT_ES5_PKc(ptr noundef nonnull align 8 dereferenceable(8) %call4, ptr noundef @.str.28)
  %call6 = call noundef nonnull align 8 dereferenceable(8) ptr @_ZNSolsEj(ptr noundef nonnull align 8 dereferenceable(8) %call5, i32 noundef %expected_alignment)
  %tobool = trunc i8 %frombool to i1
  br i1 %tobool, label %land.lhs.true, label %if.else

land.lhs.true:                                    ; preds = %entry
  %tobool7 = trunc i8 %frombool1 to i1
  br i1 %tobool7, label %if.then, label %if.else

if.then:                                          ; preds = %land.lhs.true
  %call8 = call noundef nonnull align 8 dereferenceable(8) ptr @_ZStlsISt11char_traitsIcEERSt13basic_ostreamIcT_ES5_PKc(ptr noundef nonnull align 8 dereferenceable(8) @_ZSt4cout, ptr noundef @.str.29)
  br label %if.end20

if.else:                                          ; preds = %land.lhs.true, %entry
  %tobool9 = trunc i8 %frombool to i1
  br i1 %tobool9, label %if.end, label %if.then10

if.then10:                                        ; preds = %if.else
  %call11 = call noundef nonnull align 8 dereferenceable(8) ptr @_ZStlsISt11char_traitsIcEERSt13basic_ostreamIcT_ES5_PKc(ptr noundef nonnull align 8 dereferenceable(8) @_ZSt4cout, ptr noundef @.str.30)
  %call12 = call noundef nonnull align 8 dereferenceable(8) ptr @_ZNSolsEPKv(ptr noundef nonnull align 8 dereferenceable(8) %call11, ptr noundef %p)
  br label %if.end

if.end:                                           ; preds = %if.then10, %if.else
  %tobool13 = trunc i8 %frombool1 to i1
  br i1 %tobool13, label %if.end20, label %if.then14

if.then14:                                        ; preds = %if.end
  %call15 = call noundef nonnull align 8 dereferenceable(8) ptr @_ZStlsISt11char_traitsIcEERSt13basic_ostreamIcT_ES5_PKc(ptr noundef nonnull align 8 dereferenceable(8) @_ZSt4cout, ptr noundef @.str.31)
  %call16 = call noundef nonnull align 8 dereferenceable(8) ptr @_ZNSolsEd(ptr noundef nonnull align 8 dereferenceable(8) %call15, double noundef %value)
  %call17 = call noundef nonnull align 8 dereferenceable(8) ptr @_ZStlsISt11char_traitsIcEERSt13basic_ostreamIcT_ES5_PKc(ptr noundef nonnull align 8 dereferenceable(8) %call16, ptr noundef @.str.32)
  %call18 = call noundef nonnull align 8 dereferenceable(8) ptr @_ZNSolsEd(ptr noundef nonnull align 8 dereferenceable(8) %call17, double noundef %expected_value)
  br label %if.end20

if.end20:                                         ; preds = %if.end, %if.then14, %if.then
  %call21 = call noundef nonnull align 8 dereferenceable(8) ptr @_ZNSolsEPFRSoS_E(ptr noundef nonnull align 8 dereferenceable(8) @_ZSt4cout, ptr noundef @_ZSt4endlIcSt11char_traitsIcEERSt13basic_ostreamIT_T0_ES6_)
  %tobool22 = trunc i8 %frombool to i1
  %tobool23 = trunc i8 %frombool1 to i1
  %spec.select = select i1 %tobool22, i1 %tobool23, i1 false
  %lnot = xor i1 %spec.select, true
  ret i1 %lnot
}

; Function Attrs: mustprogress noinline uwtable
define internal noundef zeroext i1 @_ZL35check_and_print_value_and_alignmentIiEbPKcS1_jPKvT_S4_(ptr noundef %variant, ptr noundef %label, i32 noundef %expected_alignment, ptr noundef %p, i32 noundef %value, i32 noundef %expected_value) #1 {
entry:
  %call = call noundef zeroext i1 @_ZL24is_alignment_as_expectedPKvj(ptr noundef %p, i32 noundef %expected_alignment)
  %frombool = zext i1 %call to i8
  %cmp = icmp eq i32 %value, %expected_value
  %frombool1 = zext i1 %cmp to i8
  %call2 = call noundef nonnull align 8 dereferenceable(8) ptr @_ZStlsISt11char_traitsIcEERSt13basic_ostreamIcT_ES5_PKc(ptr noundef nonnull align 8 dereferenceable(8) @_ZSt4cout, ptr noundef %variant)
  %call3 = call noundef nonnull align 8 dereferenceable(8) ptr @_ZStlsISt11char_traitsIcEERSt13basic_ostreamIcT_ES5_PKc(ptr noundef nonnull align 8 dereferenceable(8) %call2, ptr noundef @.str.27)
  %call4 = call noundef nonnull align 8 dereferenceable(8) ptr @_ZStlsISt11char_traitsIcEERSt13basic_ostreamIcT_ES5_PKc(ptr noundef nonnull align 8 dereferenceable(8) %call3, ptr noundef %label)
  %call5 = call noundef nonnull align 8 dereferenceable(8) ptr @_ZStlsISt11char_traitsIcEERSt13basic_ostreamIcT_ES5_PKc(ptr noundef nonnull align 8 dereferenceable(8) %call4, ptr noundef @.str.28)
  %call6 = call noundef nonnull align 8 dereferenceable(8) ptr @_ZNSolsEj(ptr noundef nonnull align 8 dereferenceable(8) %call5, i32 noundef %expected_alignment)
  %tobool = trunc i8 %frombool to i1
  br i1 %tobool, label %land.lhs.true, label %if.else

land.lhs.true:                                    ; preds = %entry
  %tobool7 = trunc i8 %frombool1 to i1
  br i1 %tobool7, label %if.then, label %if.else

if.then:                                          ; preds = %land.lhs.true
  %call8 = call noundef nonnull align 8 dereferenceable(8) ptr @_ZStlsISt11char_traitsIcEERSt13basic_ostreamIcT_ES5_PKc(ptr noundef nonnull align 8 dereferenceable(8) @_ZSt4cout, ptr noundef @.str.29)
  br label %if.end20

if.else:                                          ; preds = %land.lhs.true, %entry
  %tobool9 = trunc i8 %frombool to i1
  br i1 %tobool9, label %if.end, label %if.then10

if.then10:                                        ; preds = %if.else
  %call11 = call noundef nonnull align 8 dereferenceable(8) ptr @_ZStlsISt11char_traitsIcEERSt13basic_ostreamIcT_ES5_PKc(ptr noundef nonnull align 8 dereferenceable(8) @_ZSt4cout, ptr noundef @.str.30)
  %call12 = call noundef nonnull align 8 dereferenceable(8) ptr @_ZNSolsEPKv(ptr noundef nonnull align 8 dereferenceable(8) %call11, ptr noundef %p)
  br label %if.end

if.end:                                           ; preds = %if.then10, %if.else
  %tobool13 = trunc i8 %frombool1 to i1
  br i1 %tobool13, label %if.end20, label %if.then14

if.then14:                                        ; preds = %if.end
  %call15 = call noundef nonnull align 8 dereferenceable(8) ptr @_ZStlsISt11char_traitsIcEERSt13basic_ostreamIcT_ES5_PKc(ptr noundef nonnull align 8 dereferenceable(8) @_ZSt4cout, ptr noundef @.str.31)
  %call16 = call noundef nonnull align 8 dereferenceable(8) ptr @_ZNSolsEi(ptr noundef nonnull align 8 dereferenceable(8) %call15, i32 noundef %value)
  %call17 = call noundef nonnull align 8 dereferenceable(8) ptr @_ZStlsISt11char_traitsIcEERSt13basic_ostreamIcT_ES5_PKc(ptr noundef nonnull align 8 dereferenceable(8) %call16, ptr noundef @.str.32)
  %call18 = call noundef nonnull align 8 dereferenceable(8) ptr @_ZNSolsEi(ptr noundef nonnull align 8 dereferenceable(8) %call17, i32 noundef %expected_value)
  br label %if.end20

if.end20:                                         ; preds = %if.end, %if.then14, %if.then
  %call21 = call noundef nonnull align 8 dereferenceable(8) ptr @_ZNSolsEPFRSoS_E(ptr noundef nonnull align 8 dereferenceable(8) @_ZSt4cout, ptr noundef @_ZSt4endlIcSt11char_traitsIcEERSt13basic_ostreamIT_T0_ES6_)
  %tobool22 = trunc i8 %frombool to i1
  %tobool23 = trunc i8 %frombool1 to i1
  %spec.select = select i1 %tobool22, i1 %tobool23, i1 false
  %lnot = xor i1 %spec.select, true
  ret i1 %lnot
}

; Function Attrs: mustprogress noinline uwtable
define internal noundef zeroext i1 @_ZL35check_and_print_value_and_alignmentIcEbPKcS1_jPKvT_S4_(ptr noundef %variant, ptr noundef %label, i32 noundef %expected_alignment, ptr noundef %p, i8 noundef signext %value, i8 noundef signext %expected_value) #1 {
entry:
  %call = call noundef zeroext i1 @_ZL24is_alignment_as_expectedPKvj(ptr noundef %p, i32 noundef %expected_alignment)
  %frombool = zext i1 %call to i8
  %conv = sext i8 %value to i32
  %conv1 = sext i8 %expected_value to i32
  %cmp = icmp eq i32 %conv, %conv1
  %frombool2 = zext i1 %cmp to i8
  %call3 = call noundef nonnull align 8 dereferenceable(8) ptr @_ZStlsISt11char_traitsIcEERSt13basic_ostreamIcT_ES5_PKc(ptr noundef nonnull align 8 dereferenceable(8) @_ZSt4cout, ptr noundef %variant)
  %call4 = call noundef nonnull align 8 dereferenceable(8) ptr @_ZStlsISt11char_traitsIcEERSt13basic_ostreamIcT_ES5_PKc(ptr noundef nonnull align 8 dereferenceable(8) %call3, ptr noundef @.str.27)
  %call5 = call noundef nonnull align 8 dereferenceable(8) ptr @_ZStlsISt11char_traitsIcEERSt13basic_ostreamIcT_ES5_PKc(ptr noundef nonnull align 8 dereferenceable(8) %call4, ptr noundef %label)
  %call6 = call noundef nonnull align 8 dereferenceable(8) ptr @_ZStlsISt11char_traitsIcEERSt13basic_ostreamIcT_ES5_PKc(ptr noundef nonnull align 8 dereferenceable(8) %call5, ptr noundef @.str.28)
  %call7 = call noundef nonnull align 8 dereferenceable(8) ptr @_ZNSolsEj(ptr noundef nonnull align 8 dereferenceable(8) %call6, i32 noundef %expected_alignment)
  %tobool = trunc i8 %frombool to i1
  br i1 %tobool, label %land.lhs.true, label %if.else

land.lhs.true:                                    ; preds = %entry
  %tobool8 = trunc i8 %frombool2 to i1
  br i1 %tobool8, label %if.then, label %if.else

if.then:                                          ; preds = %land.lhs.true
  %call9 = call noundef nonnull align 8 dereferenceable(8) ptr @_ZStlsISt11char_traitsIcEERSt13basic_ostreamIcT_ES5_PKc(ptr noundef nonnull align 8 dereferenceable(8) @_ZSt4cout, ptr noundef @.str.29)
  br label %if.end21

if.else:                                          ; preds = %land.lhs.true, %entry
  %tobool10 = trunc i8 %frombool to i1
  br i1 %tobool10, label %if.end, label %if.then11

if.then11:                                        ; preds = %if.else
  %call12 = call noundef nonnull align 8 dereferenceable(8) ptr @_ZStlsISt11char_traitsIcEERSt13basic_ostreamIcT_ES5_PKc(ptr noundef nonnull align 8 dereferenceable(8) @_ZSt4cout, ptr noundef @.str.30)
  %call13 = call noundef nonnull align 8 dereferenceable(8) ptr @_ZNSolsEPKv(ptr noundef nonnull align 8 dereferenceable(8) %call12, ptr noundef %p)
  br label %if.end

if.end:                                           ; preds = %if.then11, %if.else
  %tobool14 = trunc i8 %frombool2 to i1
  br i1 %tobool14, label %if.end21, label %if.then15

if.then15:                                        ; preds = %if.end
  %call16 = call noundef nonnull align 8 dereferenceable(8) ptr @_ZStlsISt11char_traitsIcEERSt13basic_ostreamIcT_ES5_PKc(ptr noundef nonnull align 8 dereferenceable(8) @_ZSt4cout, ptr noundef @.str.31)
  %call17 = call noundef nonnull align 8 dereferenceable(8) ptr @_ZStlsISt11char_traitsIcEERSt13basic_ostreamIcT_ES5_c(ptr noundef nonnull align 8 dereferenceable(8) %call16, i8 noundef signext %value)
  %call18 = call noundef nonnull align 8 dereferenceable(8) ptr @_ZStlsISt11char_traitsIcEERSt13basic_ostreamIcT_ES5_PKc(ptr noundef nonnull align 8 dereferenceable(8) %call17, ptr noundef @.str.32)
  %call19 = call noundef nonnull align 8 dereferenceable(8) ptr @_ZStlsISt11char_traitsIcEERSt13basic_ostreamIcT_ES5_c(ptr noundef nonnull align 8 dereferenceable(8) %call18, i8 noundef signext %expected_value)
  br label %if.end21

if.end21:                                         ; preds = %if.end, %if.then15, %if.then
  %call22 = call noundef nonnull align 8 dereferenceable(8) ptr @_ZNSolsEPFRSoS_E(ptr noundef nonnull align 8 dereferenceable(8) @_ZSt4cout, ptr noundef @_ZSt4endlIcSt11char_traitsIcEERSt13basic_ostreamIT_T0_ES6_)
  %tobool23 = trunc i8 %frombool to i1
  %tobool24 = trunc i8 %frombool2 to i1
  %spec.select = select i1 %tobool23, i1 %tobool24, i1 false
  %lnot = xor i1 %spec.select, true
  ret i1 %lnot
}

; Function Attrs: noinline uwtable
define internal void @__cxx_global_var_init() #0 section ".text.startup" personality ptr @__gxx_personality_v0 {
entry:
  %agg.tmp = alloca %"class.std::initializer_list", align 8
  %ref.tmp = alloca [16 x ptr], align 8
  %ref.tmp1 = alloca %"class.std::allocator", align 1
  %arrayinit.begin = getelementptr inbounds [16 x ptr], ptr %ref.tmp, i64 0, i64 0
  call void @llvm.memcpy.p0.p0.i64(ptr align 8 %ref.tmp, ptr align 8 @constinit, i64 128, i1 false)
  %_M_array = getelementptr inbounds %"class.std::initializer_list", ptr %agg.tmp, i32 0, i32 0
  %arraystart = getelementptr inbounds [16 x ptr], ptr %ref.tmp, i64 0, i64 0
  store ptr %arraystart, ptr %_M_array, align 8
  %_M_len = getelementptr inbounds %"class.std::initializer_list", ptr %agg.tmp, i32 0, i32 1
  store i64 16, ptr %_M_len, align 8
  %0 = getelementptr inbounds { ptr, i64 }, ptr %agg.tmp, i32 0, i32 0
  %1 = load ptr, ptr %0, align 8
  %2 = getelementptr inbounds { ptr, i64 }, ptr %agg.tmp, i32 0, i32 1
  %3 = load i64, ptr %2, align 8
  invoke void @_ZNSt6vectorIPKcSaIS1_EEC2ESt16initializer_listIS1_ERKS2_(ptr noundef nonnull align 8 dereferenceable(24) @_ZL21testDescriptionHeader, ptr %1, i64 %3, ptr noundef nonnull align 1 dereferenceable(1) %ref.tmp1)
          to label %invoke.cont unwind label %lpad

invoke.cont:                                      ; preds = %entry
  call void @_ZNSt15__new_allocatorIPKcED2Ev(ptr noundef nonnull align 1 dereferenceable(1) %ref.tmp1) #4
  %4 = call i32 @__cxa_atexit(ptr @_ZNSt6vectorIPKcSaIS1_EED2Ev, ptr @_ZL21testDescriptionHeader, ptr @__dso_handle) #4
  ret void

lpad:                                             ; preds = %entry
  %5 = landingpad { ptr, i32 }
          cleanup
  %6 = extractvalue { ptr, i32 } %5, 0
  %7 = extractvalue { ptr, i32 } %5, 1
  call void @_ZNSt15__new_allocatorIPKcED2Ev(ptr noundef nonnull align 1 dereferenceable(1) %ref.tmp1) #4
  br label %eh.resume

eh.resume:                                        ; preds = %lpad
  %lpad.val = insertvalue { ptr, i32 } poison, ptr %6, 0
  %lpad.val2 = insertvalue { ptr, i32 } %lpad.val, i32 %7, 1
  resume { ptr, i32 } %lpad.val2
}

; Function Attrs: nocallback nofree nounwind willreturn memory(argmem: readwrite)
declare void @llvm.memcpy.p0.p0.i64(ptr noalias nocapture writeonly, ptr noalias nocapture readonly, i64, i1 immarg) #2

; Function Attrs: noinline uwtable
define linkonce_odr dso_local void @_ZNSt6vectorIPKcSaIS1_EEC2ESt16initializer_listIS1_ERKS2_(ptr noundef nonnull align 8 dereferenceable(24) %this, ptr %__l.coerce0, i64 %__l.coerce1, ptr noundef nonnull align 1 dereferenceable(1) %__a) unnamed_addr #0 comdat align 2 personality ptr @__gxx_personality_v0 {
entry:
  %__l = alloca %"class.std::initializer_list", align 8
  %0 = getelementptr inbounds { ptr, i64 }, ptr %__l, i32 0, i32 0
  store ptr %__l.coerce0, ptr %0, align 8
  %1 = getelementptr inbounds { ptr, i64 }, ptr %__l, i32 0, i32 1
  store i64 %__l.coerce1, ptr %1, align 8
  call void @_ZNSt12_Vector_baseIPKcSaIS1_EEC2ERKS2_(ptr noundef nonnull align 8 dereferenceable(24) %this, ptr noundef nonnull align 1 dereferenceable(1) %__a) #4
  %call = call noundef ptr @_ZNKSt16initializer_listIPKcE5beginEv(ptr noundef nonnull align 8 dereferenceable(16) %__l) #4
  %call2 = call noundef ptr @_ZNKSt16initializer_listIPKcE3endEv(ptr noundef nonnull align 8 dereferenceable(16) %__l) #4
  invoke void @_ZNSt6vectorIPKcSaIS1_EE19_M_range_initializeIPKS1_EEvT_S7_St20forward_iterator_tag(ptr noundef nonnull align 8 dereferenceable(24) %this, ptr noundef %call, ptr noundef %call2)
          to label %invoke.cont unwind label %lpad

invoke.cont:                                      ; preds = %entry
  ret void

lpad:                                             ; preds = %entry
  %2 = landingpad { ptr, i32 }
          cleanup
  %3 = extractvalue { ptr, i32 } %2, 0
  %4 = extractvalue { ptr, i32 } %2, 1
  call void @_ZNSt12_Vector_baseIPKcSaIS1_EED2Ev(ptr noundef nonnull align 8 dereferenceable(24) %this) #4
  br label %eh.resume

eh.resume:                                        ; preds = %lpad
  %lpad.val = insertvalue { ptr, i32 } poison, ptr %3, 0
  %lpad.val3 = insertvalue { ptr, i32 } %lpad.val, i32 %4, 1
  resume { ptr, i32 } %lpad.val3
}

declare i32 @__gxx_personality_v0(...)

; Function Attrs: noinline nounwind uwtable
define linkonce_odr dso_local void @_ZNSt6vectorIPKcSaIS1_EED2Ev(ptr noundef nonnull align 8 dereferenceable(24) %this) unnamed_addr #3 comdat align 2 personality ptr @__gxx_personality_v0 {
entry:
  %_M_impl = getelementptr inbounds %"struct.std::_Vector_base", ptr %this, i32 0, i32 0
  %_M_start = getelementptr inbounds %"struct.std::_Vector_base<const char *, std::allocator<const char *>>::_Vector_impl_data", ptr %_M_impl, i32 0, i32 0
  %0 = load ptr, ptr %_M_start, align 8
  %_M_impl2 = getelementptr inbounds %"struct.std::_Vector_base", ptr %this, i32 0, i32 0
  %_M_finish = getelementptr inbounds %"struct.std::_Vector_base<const char *, std::allocator<const char *>>::_Vector_impl_data", ptr %_M_impl2, i32 0, i32 1
  %1 = load ptr, ptr %_M_finish, align 8
  %call = call noundef nonnull align 1 dereferenceable(1) ptr @_ZNSt12_Vector_baseIPKcSaIS1_EE19_M_get_Tp_allocatorEv(ptr noundef nonnull align 8 dereferenceable(24) %this) #4
  invoke void @_ZSt8_DestroyIPPKcEvT_S3_(ptr noundef %0, ptr noundef %1)
          to label %_ZSt8_DestroyIPPKcS1_EvT_S3_RSaIT0_E.exit unwind label %terminate.lpad

_ZSt8_DestroyIPPKcS1_EvT_S3_RSaIT0_E.exit:        ; preds = %entry
  br label %invoke.cont

invoke.cont:                                      ; preds = %_ZSt8_DestroyIPPKcS1_EvT_S3_RSaIT0_E.exit
  call void @_ZNSt12_Vector_baseIPKcSaIS1_EED2Ev(ptr noundef nonnull align 8 dereferenceable(24) %this) #4
  ret void

terminate.lpad:                                   ; preds = %entry
  %2 = landingpad { ptr, i32 }
          catch ptr null
  %3 = extractvalue { ptr, i32 } %2, 0
  call void @__clang_call_terminate(ptr %3) #17
  unreachable
}

; Function Attrs: nounwind
declare i32 @__cxa_atexit(ptr, ptr, ptr) #4

; Function Attrs: noinline uwtable
define dso_local void @_Z24getTestDescriptionStringB5cxx11bbbbb(ptr noalias sret(%"class.std::__cxx11::basic_string") align 8 %agg.result, i1 noundef zeroext %overaligned_locals, i1 noundef zeroext %with_vla, i1 noundef zeroext %force_callee_save_and_spills, i1 noundef zeroext %ensure_args_go_on_stack, i1 noundef zeroext %throw_exception) #0 personality ptr @__gxx_personality_v0 {
entry:
  %ref.tmp = alloca %"class.std::__cxx11::basic_string", align 8
  %ref.tmp5 = alloca %"class.std::__cxx11::basic_string", align 8
  %ref.tmp6 = alloca %"class.std::__cxx11::basic_string", align 8
  %ref.tmp7 = alloca %"class.std::__cxx11::basic_string", align 8
  %ref.tmp8 = alloca %"class.std::__cxx11::basic_string", align 8
  %ref.tmp9 = alloca %"class.std::allocator.1", align 1
  %frombool = zext i1 %overaligned_locals to i8
  %frombool1 = zext i1 %with_vla to i8
  %frombool2 = zext i1 %force_callee_save_and_spills to i8
  %frombool3 = zext i1 %ensure_args_go_on_stack to i8
  %frombool4 = zext i1 %throw_exception to i8
  invoke void @_ZNSt7__cxx1112basic_stringIcSt11char_traitsIcESaIcEEC2IS3_EEPKcRKS3_(ptr noundef nonnull align 8 dereferenceable(32) %ref.tmp8, ptr noundef @.str.24, ptr noundef nonnull align 1 dereferenceable(1) %ref.tmp9)
          to label %invoke.cont unwind label %lpad

invoke.cont:                                      ; preds = %entry
  %tobool = trunc i8 %frombool to i1
  br i1 %tobool, label %cond.true, label %cond.false

cond.true:                                        ; preds = %invoke.cont
  br label %cond.end

cond.false:                                       ; preds = %invoke.cont
  br label %cond.end

cond.end:                                         ; preds = %cond.false, %cond.true
  %cond-lvalue = phi ptr [ @.str.25, %cond.true ], [ @.str.26, %cond.false ]
  %arraydecay = getelementptr inbounds [2 x i8], ptr %cond-lvalue, i64 0, i64 0
  invoke void @_ZStplIcSt11char_traitsIcESaIcEENSt7__cxx1112basic_stringIT_T0_T1_EEOS8_PKS5_(ptr sret(%"class.std::__cxx11::basic_string") align 8 %ref.tmp7, ptr noundef nonnull align 8 dereferenceable(32) %ref.tmp8, ptr noundef %arraydecay)
          to label %invoke.cont11 unwind label %lpad10

invoke.cont11:                                    ; preds = %cond.end
  %tobool12 = trunc i8 %frombool1 to i1
  br i1 %tobool12, label %cond.true13, label %cond.false14

cond.true13:                                      ; preds = %invoke.cont11
  br label %cond.end15

cond.false14:                                     ; preds = %invoke.cont11
  br label %cond.end15

cond.end15:                                       ; preds = %cond.false14, %cond.true13
  %cond-lvalue16 = phi ptr [ @.str.25, %cond.true13 ], [ @.str.26, %cond.false14 ]
  %arraydecay17 = getelementptr inbounds [2 x i8], ptr %cond-lvalue16, i64 0, i64 0
  invoke void @_ZStplIcSt11char_traitsIcESaIcEENSt7__cxx1112basic_stringIT_T0_T1_EEOS8_PKS5_(ptr sret(%"class.std::__cxx11::basic_string") align 8 %ref.tmp6, ptr noundef nonnull align 8 dereferenceable(32) %ref.tmp7, ptr noundef %arraydecay17)
          to label %invoke.cont19 unwind label %lpad18

invoke.cont19:                                    ; preds = %cond.end15
  %tobool20 = trunc i8 %frombool2 to i1
  br i1 %tobool20, label %cond.true21, label %cond.false22

cond.true21:                                      ; preds = %invoke.cont19
  br label %cond.end23

cond.false22:                                     ; preds = %invoke.cont19
  br label %cond.end23

cond.end23:                                       ; preds = %cond.false22, %cond.true21
  %cond-lvalue24 = phi ptr [ @.str.25, %cond.true21 ], [ @.str.26, %cond.false22 ]
  %arraydecay25 = getelementptr inbounds [2 x i8], ptr %cond-lvalue24, i64 0, i64 0
  invoke void @_ZStplIcSt11char_traitsIcESaIcEENSt7__cxx1112basic_stringIT_T0_T1_EEOS8_PKS5_(ptr sret(%"class.std::__cxx11::basic_string") align 8 %ref.tmp5, ptr noundef nonnull align 8 dereferenceable(32) %ref.tmp6, ptr noundef %arraydecay25)
          to label %invoke.cont27 unwind label %lpad26

invoke.cont27:                                    ; preds = %cond.end23
  %tobool28 = trunc i8 %frombool3 to i1
  br i1 %tobool28, label %cond.true29, label %cond.false30

cond.true29:                                      ; preds = %invoke.cont27
  br label %cond.end31

cond.false30:                                     ; preds = %invoke.cont27
  br label %cond.end31

cond.end31:                                       ; preds = %cond.false30, %cond.true29
  %cond-lvalue32 = phi ptr [ @.str.25, %cond.true29 ], [ @.str.26, %cond.false30 ]
  %arraydecay33 = getelementptr inbounds [2 x i8], ptr %cond-lvalue32, i64 0, i64 0
  invoke void @_ZStplIcSt11char_traitsIcESaIcEENSt7__cxx1112basic_stringIT_T0_T1_EEOS8_PKS5_(ptr sret(%"class.std::__cxx11::basic_string") align 8 %ref.tmp, ptr noundef nonnull align 8 dereferenceable(32) %ref.tmp5, ptr noundef %arraydecay33)
          to label %invoke.cont35 unwind label %lpad34

invoke.cont35:                                    ; preds = %cond.end31
  %tobool36 = trunc i8 %frombool4 to i1
  br i1 %tobool36, label %cond.true37, label %cond.false38

cond.true37:                                      ; preds = %invoke.cont35
  br label %cond.end39

cond.false38:                                     ; preds = %invoke.cont35
  br label %cond.end39

cond.end39:                                       ; preds = %cond.false38, %cond.true37
  %cond-lvalue40 = phi ptr [ @.str.25, %cond.true37 ], [ @.str.26, %cond.false38 ]
  %arraydecay41 = getelementptr inbounds [2 x i8], ptr %cond-lvalue40, i64 0, i64 0
  invoke void @_ZStplIcSt11char_traitsIcESaIcEENSt7__cxx1112basic_stringIT_T0_T1_EEOS8_PKS5_(ptr sret(%"class.std::__cxx11::basic_string") align 8 %agg.result, ptr noundef nonnull align 8 dereferenceable(32) %ref.tmp, ptr noundef %arraydecay41)
          to label %invoke.cont43 unwind label %lpad42

invoke.cont43:                                    ; preds = %cond.end39
  call void @_ZNSt7__cxx1112basic_stringIcSt11char_traitsIcESaIcEED1Ev(ptr noundef nonnull align 8 dereferenceable(32) %ref.tmp) #4
  call void @_ZNSt7__cxx1112basic_stringIcSt11char_traitsIcESaIcEED1Ev(ptr noundef nonnull align 8 dereferenceable(32) %ref.tmp5) #4
  call void @_ZNSt7__cxx1112basic_stringIcSt11char_traitsIcESaIcEED1Ev(ptr noundef nonnull align 8 dereferenceable(32) %ref.tmp6) #4
  call void @_ZNSt7__cxx1112basic_stringIcSt11char_traitsIcESaIcEED1Ev(ptr noundef nonnull align 8 dereferenceable(32) %ref.tmp7) #4
  call void @_ZNSt7__cxx1112basic_stringIcSt11char_traitsIcESaIcEED1Ev(ptr noundef nonnull align 8 dereferenceable(32) %ref.tmp8) #4
  call void @_ZNSt15__new_allocatorIcED2Ev(ptr noundef nonnull align 1 dereferenceable(1) %ref.tmp9) #4
  ret void

lpad:                                             ; preds = %entry
  %0 = landingpad { ptr, i32 }
          cleanup
  %1 = extractvalue { ptr, i32 } %0, 0
  %2 = extractvalue { ptr, i32 } %0, 1
  br label %ehcleanup47

lpad10:                                           ; preds = %cond.end
  %3 = landingpad { ptr, i32 }
          cleanup
  %4 = extractvalue { ptr, i32 } %3, 0
  %5 = extractvalue { ptr, i32 } %3, 1
  br label %ehcleanup46

lpad18:                                           ; preds = %cond.end15
  %6 = landingpad { ptr, i32 }
          cleanup
  %7 = extractvalue { ptr, i32 } %6, 0
  %8 = extractvalue { ptr, i32 } %6, 1
  br label %ehcleanup45

lpad26:                                           ; preds = %cond.end23
  %9 = landingpad { ptr, i32 }
          cleanup
  %10 = extractvalue { ptr, i32 } %9, 0
  %11 = extractvalue { ptr, i32 } %9, 1
  br label %ehcleanup44

lpad34:                                           ; preds = %cond.end31
  %12 = landingpad { ptr, i32 }
          cleanup
  %13 = extractvalue { ptr, i32 } %12, 0
  %14 = extractvalue { ptr, i32 } %12, 1
  br label %ehcleanup

lpad42:                                           ; preds = %cond.end39
  %15 = landingpad { ptr, i32 }
          cleanup
  %16 = extractvalue { ptr, i32 } %15, 0
  %17 = extractvalue { ptr, i32 } %15, 1
  call void @_ZNSt7__cxx1112basic_stringIcSt11char_traitsIcESaIcEED1Ev(ptr noundef nonnull align 8 dereferenceable(32) %ref.tmp) #4
  br label %ehcleanup

ehcleanup:                                        ; preds = %lpad42, %lpad34
  %exn.slot.0 = phi ptr [ %16, %lpad42 ], [ %13, %lpad34 ]
  %ehselector.slot.0 = phi i32 [ %17, %lpad42 ], [ %14, %lpad34 ]
  call void @_ZNSt7__cxx1112basic_stringIcSt11char_traitsIcESaIcEED1Ev(ptr noundef nonnull align 8 dereferenceable(32) %ref.tmp5) #4
  br label %ehcleanup44

ehcleanup44:                                      ; preds = %ehcleanup, %lpad26
  %exn.slot.1 = phi ptr [ %exn.slot.0, %ehcleanup ], [ %10, %lpad26 ]
  %ehselector.slot.1 = phi i32 [ %ehselector.slot.0, %ehcleanup ], [ %11, %lpad26 ]
  call void @_ZNSt7__cxx1112basic_stringIcSt11char_traitsIcESaIcEED1Ev(ptr noundef nonnull align 8 dereferenceable(32) %ref.tmp6) #4
  br label %ehcleanup45

ehcleanup45:                                      ; preds = %ehcleanup44, %lpad18
  %exn.slot.2 = phi ptr [ %exn.slot.1, %ehcleanup44 ], [ %7, %lpad18 ]
  %ehselector.slot.2 = phi i32 [ %ehselector.slot.1, %ehcleanup44 ], [ %8, %lpad18 ]
  call void @_ZNSt7__cxx1112basic_stringIcSt11char_traitsIcESaIcEED1Ev(ptr noundef nonnull align 8 dereferenceable(32) %ref.tmp7) #4
  br label %ehcleanup46

ehcleanup46:                                      ; preds = %ehcleanup45, %lpad10
  %exn.slot.3 = phi ptr [ %exn.slot.2, %ehcleanup45 ], [ %4, %lpad10 ]
  %ehselector.slot.3 = phi i32 [ %ehselector.slot.2, %ehcleanup45 ], [ %5, %lpad10 ]
  call void @_ZNSt7__cxx1112basic_stringIcSt11char_traitsIcESaIcEED1Ev(ptr noundef nonnull align 8 dereferenceable(32) %ref.tmp8) #4
  br label %ehcleanup47

ehcleanup47:                                      ; preds = %ehcleanup46, %lpad
  %exn.slot.4 = phi ptr [ %exn.slot.3, %ehcleanup46 ], [ %1, %lpad ]
  %ehselector.slot.4 = phi i32 [ %ehselector.slot.3, %ehcleanup46 ], [ %2, %lpad ]
  call void @_ZNSt15__new_allocatorIcED2Ev(ptr noundef nonnull align 1 dereferenceable(1) %ref.tmp9) #4
  br label %eh.resume

eh.resume:                                        ; preds = %ehcleanup47
  %lpad.val = insertvalue { ptr, i32 } poison, ptr %exn.slot.4, 0
  %lpad.val48 = insertvalue { ptr, i32 } %lpad.val, i32 %ehselector.slot.4, 1
  resume { ptr, i32 } %lpad.val48
}

; Function Attrs: mustprogress noinline uwtable
define linkonce_odr dso_local void @_ZStplIcSt11char_traitsIcESaIcEENSt7__cxx1112basic_stringIT_T0_T1_EEOS8_PKS5_(ptr noalias sret(%"class.std::__cxx11::basic_string") align 8 %agg.result, ptr noundef nonnull align 8 dereferenceable(32) %__lhs, ptr noundef %__rhs) #1 comdat {
entry:
  %call = call noundef nonnull align 8 dereferenceable(32) ptr @_ZNSt7__cxx1112basic_stringIcSt11char_traitsIcESaIcEE6appendEPKc(ptr noundef nonnull align 8 dereferenceable(32) %__lhs, ptr noundef %__rhs)
  call void @_ZNSt7__cxx1112basic_stringIcSt11char_traitsIcESaIcEEC1EOS4_(ptr noundef nonnull align 8 dereferenceable(32) %agg.result, ptr noundef nonnull align 8 dereferenceable(32) %call) #4
  ret void
}

; Function Attrs: noinline uwtable
define linkonce_odr dso_local void @_ZNSt7__cxx1112basic_stringIcSt11char_traitsIcESaIcEEC2IS3_EEPKcRKS3_(ptr noundef nonnull align 8 dereferenceable(32) %this, ptr noundef %__s, ptr noundef nonnull align 1 dereferenceable(1) %__a) unnamed_addr #0 comdat align 2 personality ptr @__gxx_personality_v0 {
entry:
  %_M_dataplus = getelementptr inbounds %"class.std::__cxx11::basic_string", ptr %this, i32 0, i32 0
  %call = call noundef ptr @_ZNSt7__cxx1112basic_stringIcSt11char_traitsIcESaIcEE13_M_local_dataEv(ptr noundef nonnull align 8 dereferenceable(32) %this)
  call void @_ZNSt7__cxx1112basic_stringIcSt11char_traitsIcESaIcEE12_Alloc_hiderC1EPcRKS3_(ptr noundef nonnull align 8 dereferenceable(8) %_M_dataplus, ptr noundef %call, ptr noundef nonnull align 1 dereferenceable(1) %__a)
  %cmp = icmp eq ptr %__s, null
  br i1 %cmp, label %if.then, label %if.end

if.then:                                          ; preds = %entry
  invoke void @_ZSt19__throw_logic_errorPKc(ptr noundef @.str.34) #18
          to label %invoke.cont unwind label %lpad

invoke.cont:                                      ; preds = %if.then
  unreachable

lpad:                                             ; preds = %invoke.cont2, %if.end, %if.then
  %0 = landingpad { ptr, i32 }
          cleanup
  %1 = extractvalue { ptr, i32 } %0, 0
  %2 = extractvalue { ptr, i32 } %0, 1
  call void @_ZNSt7__cxx1112basic_stringIcSt11char_traitsIcESaIcEE12_Alloc_hiderD2Ev(ptr noundef nonnull align 8 dereferenceable(8) %_M_dataplus) #4
  br label %eh.resume

if.end:                                           ; preds = %entry
  %call3 = invoke noundef i64 @_ZNSt11char_traitsIcE6lengthEPKc(ptr noundef %__s)
          to label %invoke.cont2 unwind label %lpad

invoke.cont2:                                     ; preds = %if.end
  %add.ptr = getelementptr inbounds i8, ptr %__s, i64 %call3
  invoke void @_ZNSt7__cxx1112basic_stringIcSt11char_traitsIcESaIcEE12_M_constructIPKcEEvT_S8_St20forward_iterator_tag(ptr noundef nonnull align 8 dereferenceable(32) %this, ptr noundef %__s, ptr noundef %add.ptr)
          to label %invoke.cont4 unwind label %lpad

invoke.cont4:                                     ; preds = %invoke.cont2
  ret void

eh.resume:                                        ; preds = %lpad
  %lpad.val = insertvalue { ptr, i32 } poison, ptr %1, 0
  %lpad.val5 = insertvalue { ptr, i32 } %lpad.val, i32 %2, 1
  resume { ptr, i32 } %lpad.val5
}

; Function Attrs: nounwind
declare void @_ZNSt7__cxx1112basic_stringIcSt11char_traitsIcESaIcEED1Ev(ptr noundef nonnull align 8 dereferenceable(32)) unnamed_addr #5

; Function Attrs: mustprogress noinline norecurse uwtable
define dso_local noundef i32 @main() #6 {
entry:
  %dumping_ground = alloca i32, align 4
  %__begin1 = alloca %"class.__gnu_cxx::__normal_iterator", align 8
  %__end1 = alloca %"class.__gnu_cxx::__normal_iterator", align 8
  %call = call ptr @_ZNKSt6vectorIPKcSaIS1_EE5beginEv(ptr noundef nonnull align 8 dereferenceable(24) @_ZL21testDescriptionHeader) #4
  %coerce.dive = getelementptr inbounds %"class.__gnu_cxx::__normal_iterator", ptr %__begin1, i32 0, i32 0
  store ptr %call, ptr %coerce.dive, align 8
  %call1 = call ptr @_ZNKSt6vectorIPKcSaIS1_EE3endEv(ptr noundef nonnull align 8 dereferenceable(24) @_ZL21testDescriptionHeader) #4
  %coerce.dive2 = getelementptr inbounds %"class.__gnu_cxx::__normal_iterator", ptr %__end1, i32 0, i32 0
  store ptr %call1, ptr %coerce.dive2, align 8
  br label %for.cond

for.cond:                                         ; preds = %for.body, %entry
  %call3 = call noundef zeroext i1 @_ZN9__gnu_cxxneIPKPKcSt6vectorIS2_SaIS2_EEEEbRKNS_17__normal_iteratorIT_T0_EESD_(ptr noundef nonnull align 8 dereferenceable(8) %__begin1, ptr noundef nonnull align 8 dereferenceable(8) %__end1) #4
  br i1 %call3, label %for.body, label %for.end

for.body:                                         ; preds = %for.cond
  %call4 = call noundef nonnull align 8 dereferenceable(8) ptr @_ZNK9__gnu_cxx17__normal_iteratorIPKPKcSt6vectorIS2_SaIS2_EEEdeEv(ptr noundef nonnull align 8 dereferenceable(8) %__begin1) #4
  %0 = load ptr, ptr %call4, align 8
  %call5 = call noundef nonnull align 8 dereferenceable(8) ptr @_ZStlsISt11char_traitsIcEERSt13basic_ostreamIcT_ES5_PKc(ptr noundef nonnull align 8 dereferenceable(8) @_ZSt4cout, ptr noundef %0)
  %call6 = call noundef nonnull align 8 dereferenceable(8) ptr @_ZNSolsEPFRSoS_E(ptr noundef nonnull align 8 dereferenceable(8) %call5, ptr noundef @_ZSt4endlIcSt11char_traitsIcEERSt13basic_ostreamIT_T0_ES6_)
  %call7 = call noundef nonnull align 8 dereferenceable(8) ptr @_ZN9__gnu_cxx17__normal_iteratorIPKPKcSt6vectorIS2_SaIS2_EEEppEv(ptr noundef nonnull align 8 dereferenceable(8) %__begin1) #4
  br label %for.cond

for.end:                                          ; preds = %for.cond
  %call8 = call noundef zeroext i1 @_Z19check_frame_variantILb1ELb0ELb0ELb0ELb0EEbiRVi(i32 noundef 42, ptr noundef nonnull align 4 dereferenceable(4) %dumping_ground)
  %conv = zext i1 %call8 to i32
  %tobool = trunc i8 0 to i1
  %conv9 = zext i1 %tobool to i32
  %or = or i32 %conv9, %conv
  %tobool10 = icmp ne i32 %or, 0
  %frombool = zext i1 %tobool10 to i8
  %call11 = call noundef zeroext i1 @_Z19check_frame_variantILb0ELb0ELb0ELb0ELb0EEbiRVi(i32 noundef 42, ptr noundef nonnull align 4 dereferenceable(4) %dumping_ground)
  %conv12 = zext i1 %call11 to i32
  %tobool13 = trunc i8 %frombool to i1
  %conv14 = zext i1 %tobool13 to i32
  %or15 = or i32 %conv14, %conv12
  %tobool16 = icmp ne i32 %or15, 0
  %frombool17 = zext i1 %tobool16 to i8
  %call18 = call noundef zeroext i1 @_Z19check_frame_variantILb1ELb1ELb0ELb0ELb0EEbiRVi(i32 noundef 42, ptr noundef nonnull align 4 dereferenceable(4) %dumping_ground)
  %conv19 = zext i1 %call18 to i32
  %tobool20 = trunc i8 %frombool17 to i1
  %conv21 = zext i1 %tobool20 to i32
  %or22 = or i32 %conv21, %conv19
  %tobool23 = icmp ne i32 %or22, 0
  %frombool24 = zext i1 %tobool23 to i8
  %call25 = call noundef zeroext i1 @_Z19check_frame_variantILb0ELb1ELb0ELb0ELb0EEbiRVi(i32 noundef 42, ptr noundef nonnull align 4 dereferenceable(4) %dumping_ground)
  %conv26 = zext i1 %call25 to i32
  %tobool27 = trunc i8 %frombool24 to i1
  %conv28 = zext i1 %tobool27 to i32
  %or29 = or i32 %conv28, %conv26
  %tobool30 = icmp ne i32 %or29, 0
  %frombool31 = zext i1 %tobool30 to i8
  %call32 = call noundef zeroext i1 @_Z19check_frame_variantILb1ELb0ELb1ELb0ELb0EEbiRVi(i32 noundef 42, ptr noundef nonnull align 4 dereferenceable(4) %dumping_ground)
  %conv33 = zext i1 %call32 to i32
  %tobool34 = trunc i8 %frombool31 to i1
  %conv35 = zext i1 %tobool34 to i32
  %or36 = or i32 %conv35, %conv33
  %tobool37 = icmp ne i32 %or36, 0
  %frombool38 = zext i1 %tobool37 to i8
  %call39 = call noundef zeroext i1 @_Z19check_frame_variantILb0ELb0ELb1ELb0ELb0EEbiRVi(i32 noundef 42, ptr noundef nonnull align 4 dereferenceable(4) %dumping_ground)
  %conv40 = zext i1 %call39 to i32
  %tobool41 = trunc i8 %frombool38 to i1
  %conv42 = zext i1 %tobool41 to i32
  %or43 = or i32 %conv42, %conv40
  %tobool44 = icmp ne i32 %or43, 0
  %frombool45 = zext i1 %tobool44 to i8
  %call46 = call noundef zeroext i1 @_Z19check_frame_variantILb1ELb1ELb1ELb0ELb0EEbiRVi(i32 noundef 42, ptr noundef nonnull align 4 dereferenceable(4) %dumping_ground)
  %conv47 = zext i1 %call46 to i32
  %tobool48 = trunc i8 %frombool45 to i1
  %conv49 = zext i1 %tobool48 to i32
  %or50 = or i32 %conv49, %conv47
  %tobool51 = icmp ne i32 %or50, 0
  %frombool52 = zext i1 %tobool51 to i8
  %call53 = call noundef zeroext i1 @_Z19check_frame_variantILb0ELb1ELb1ELb0ELb0EEbiRVi(i32 noundef 42, ptr noundef nonnull align 4 dereferenceable(4) %dumping_ground)
  %conv54 = zext i1 %call53 to i32
  %tobool55 = trunc i8 %frombool52 to i1
  %conv56 = zext i1 %tobool55 to i32
  %or57 = or i32 %conv56, %conv54
  %tobool58 = icmp ne i32 %or57, 0
  %frombool59 = zext i1 %tobool58 to i8
  %call60 = call noundef zeroext i1 @_Z19check_frame_variantILb1ELb0ELb0ELb1ELb0EEbiRVi(i32 noundef 42, ptr noundef nonnull align 4 dereferenceable(4) %dumping_ground)
  %conv61 = zext i1 %call60 to i32
  %tobool62 = trunc i8 %frombool59 to i1
  %conv63 = zext i1 %tobool62 to i32
  %or64 = or i32 %conv63, %conv61
  %tobool65 = icmp ne i32 %or64, 0
  %frombool66 = zext i1 %tobool65 to i8
  %call67 = call noundef zeroext i1 @_Z19check_frame_variantILb0ELb0ELb0ELb1ELb0EEbiRVi(i32 noundef 42, ptr noundef nonnull align 4 dereferenceable(4) %dumping_ground)
  %conv68 = zext i1 %call67 to i32
  %tobool69 = trunc i8 %frombool66 to i1
  %conv70 = zext i1 %tobool69 to i32
  %or71 = or i32 %conv70, %conv68
  %tobool72 = icmp ne i32 %or71, 0
  %frombool73 = zext i1 %tobool72 to i8
  %call74 = call noundef zeroext i1 @_Z19check_frame_variantILb1ELb1ELb0ELb1ELb0EEbiRVi(i32 noundef 42, ptr noundef nonnull align 4 dereferenceable(4) %dumping_ground)
  %conv75 = zext i1 %call74 to i32
  %tobool76 = trunc i8 %frombool73 to i1
  %conv77 = zext i1 %tobool76 to i32
  %or78 = or i32 %conv77, %conv75
  %tobool79 = icmp ne i32 %or78, 0
  %frombool80 = zext i1 %tobool79 to i8
  %call81 = call noundef zeroext i1 @_Z19check_frame_variantILb0ELb1ELb0ELb1ELb0EEbiRVi(i32 noundef 42, ptr noundef nonnull align 4 dereferenceable(4) %dumping_ground)
  %conv82 = zext i1 %call81 to i32
  %tobool83 = trunc i8 %frombool80 to i1
  %conv84 = zext i1 %tobool83 to i32
  %or85 = or i32 %conv84, %conv82
  %tobool86 = icmp ne i32 %or85, 0
  %frombool87 = zext i1 %tobool86 to i8
  %call88 = call noundef zeroext i1 @_Z19check_frame_variantILb1ELb0ELb1ELb1ELb0EEbiRVi(i32 noundef 42, ptr noundef nonnull align 4 dereferenceable(4) %dumping_ground)
  %conv89 = zext i1 %call88 to i32
  %tobool90 = trunc i8 %frombool87 to i1
  %conv91 = zext i1 %tobool90 to i32
  %or92 = or i32 %conv91, %conv89
  %tobool93 = icmp ne i32 %or92, 0
  %frombool94 = zext i1 %tobool93 to i8
  %call95 = call noundef zeroext i1 @_Z19check_frame_variantILb0ELb0ELb1ELb1ELb0EEbiRVi(i32 noundef 42, ptr noundef nonnull align 4 dereferenceable(4) %dumping_ground)
  %conv96 = zext i1 %call95 to i32
  %tobool97 = trunc i8 %frombool94 to i1
  %conv98 = zext i1 %tobool97 to i32
  %or99 = or i32 %conv98, %conv96
  %tobool100 = icmp ne i32 %or99, 0
  %frombool101 = zext i1 %tobool100 to i8
  %call102 = call noundef zeroext i1 @_Z19check_frame_variantILb1ELb1ELb1ELb1ELb0EEbiRVi(i32 noundef 42, ptr noundef nonnull align 4 dereferenceable(4) %dumping_ground)
  %conv103 = zext i1 %call102 to i32
  %tobool104 = trunc i8 %frombool101 to i1
  %conv105 = zext i1 %tobool104 to i32
  %or106 = or i32 %conv105, %conv103
  %tobool107 = icmp ne i32 %or106, 0
  %frombool108 = zext i1 %tobool107 to i8
  %call109 = call noundef zeroext i1 @_Z19check_frame_variantILb0ELb1ELb1ELb1ELb0EEbiRVi(i32 noundef 42, ptr noundef nonnull align 4 dereferenceable(4) %dumping_ground)
  %conv110 = zext i1 %call109 to i32
  %tobool111 = trunc i8 %frombool108 to i1
  %conv112 = zext i1 %tobool111 to i32
  %or113 = or i32 %conv112, %conv110
  %tobool114 = icmp ne i32 %or113, 0
  %frombool115 = zext i1 %tobool114 to i8
  %call116 = call noundef zeroext i1 @_Z19check_frame_variantILb1ELb0ELb0ELb0ELb1EEbiRVi(i32 noundef 42, ptr noundef nonnull align 4 dereferenceable(4) %dumping_ground)
  %conv117 = zext i1 %call116 to i32
  %tobool118 = trunc i8 %frombool115 to i1
  %conv119 = zext i1 %tobool118 to i32
  %or120 = or i32 %conv119, %conv117
  %tobool121 = icmp ne i32 %or120, 0
  %frombool122 = zext i1 %tobool121 to i8
  %call123 = call noundef zeroext i1 @_Z19check_frame_variantILb0ELb0ELb0ELb0ELb1EEbiRVi(i32 noundef 42, ptr noundef nonnull align 4 dereferenceable(4) %dumping_ground)
  %conv124 = zext i1 %call123 to i32
  %tobool125 = trunc i8 %frombool122 to i1
  %conv126 = zext i1 %tobool125 to i32
  %or127 = or i32 %conv126, %conv124
  %tobool128 = icmp ne i32 %or127, 0
  %frombool129 = zext i1 %tobool128 to i8
  %call130 = call noundef zeroext i1 @_Z19check_frame_variantILb1ELb1ELb0ELb0ELb1EEbiRVi(i32 noundef 42, ptr noundef nonnull align 4 dereferenceable(4) %dumping_ground)
  %conv131 = zext i1 %call130 to i32
  %tobool132 = trunc i8 %frombool129 to i1
  %conv133 = zext i1 %tobool132 to i32
  %or134 = or i32 %conv133, %conv131
  %tobool135 = icmp ne i32 %or134, 0
  %frombool136 = zext i1 %tobool135 to i8
  %call137 = call noundef zeroext i1 @_Z19check_frame_variantILb0ELb1ELb0ELb0ELb1EEbiRVi(i32 noundef 42, ptr noundef nonnull align 4 dereferenceable(4) %dumping_ground)
  %conv138 = zext i1 %call137 to i32
  %tobool139 = trunc i8 %frombool136 to i1
  %conv140 = zext i1 %tobool139 to i32
  %or141 = or i32 %conv140, %conv138
  %tobool142 = icmp ne i32 %or141, 0
  %frombool143 = zext i1 %tobool142 to i8
  %call144 = call noundef zeroext i1 @_Z19check_frame_variantILb1ELb0ELb1ELb0ELb1EEbiRVi(i32 noundef 42, ptr noundef nonnull align 4 dereferenceable(4) %dumping_ground)
  %conv145 = zext i1 %call144 to i32
  %tobool146 = trunc i8 %frombool143 to i1
  %conv147 = zext i1 %tobool146 to i32
  %or148 = or i32 %conv147, %conv145
  %tobool149 = icmp ne i32 %or148, 0
  %frombool150 = zext i1 %tobool149 to i8
  %call151 = call noundef zeroext i1 @_Z19check_frame_variantILb0ELb0ELb1ELb0ELb1EEbiRVi(i32 noundef 42, ptr noundef nonnull align 4 dereferenceable(4) %dumping_ground)
  %conv152 = zext i1 %call151 to i32
  %tobool153 = trunc i8 %frombool150 to i1
  %conv154 = zext i1 %tobool153 to i32
  %or155 = or i32 %conv154, %conv152
  %tobool156 = icmp ne i32 %or155, 0
  %frombool157 = zext i1 %tobool156 to i8
  %call158 = call noundef zeroext i1 @_Z19check_frame_variantILb1ELb1ELb1ELb0ELb1EEbiRVi(i32 noundef 42, ptr noundef nonnull align 4 dereferenceable(4) %dumping_ground)
  %conv159 = zext i1 %call158 to i32
  %tobool160 = trunc i8 %frombool157 to i1
  %conv161 = zext i1 %tobool160 to i32
  %or162 = or i32 %conv161, %conv159
  %tobool163 = icmp ne i32 %or162, 0
  %frombool164 = zext i1 %tobool163 to i8
  %call165 = call noundef zeroext i1 @_Z19check_frame_variantILb0ELb1ELb1ELb0ELb1EEbiRVi(i32 noundef 42, ptr noundef nonnull align 4 dereferenceable(4) %dumping_ground)
  %conv166 = zext i1 %call165 to i32
  %tobool167 = trunc i8 %frombool164 to i1
  %conv168 = zext i1 %tobool167 to i32
  %or169 = or i32 %conv168, %conv166
  %tobool170 = icmp ne i32 %or169, 0
  %frombool171 = zext i1 %tobool170 to i8
  %call172 = call noundef zeroext i1 @_Z19check_frame_variantILb1ELb0ELb0ELb1ELb1EEbiRVi(i32 noundef 42, ptr noundef nonnull align 4 dereferenceable(4) %dumping_ground)
  %conv173 = zext i1 %call172 to i32
  %tobool174 = trunc i8 %frombool171 to i1
  %conv175 = zext i1 %tobool174 to i32
  %or176 = or i32 %conv175, %conv173
  %tobool177 = icmp ne i32 %or176, 0
  %frombool178 = zext i1 %tobool177 to i8
  %call179 = call noundef zeroext i1 @_Z19check_frame_variantILb0ELb0ELb0ELb1ELb1EEbiRVi(i32 noundef 42, ptr noundef nonnull align 4 dereferenceable(4) %dumping_ground)
  %conv180 = zext i1 %call179 to i32
  %tobool181 = trunc i8 %frombool178 to i1
  %conv182 = zext i1 %tobool181 to i32
  %or183 = or i32 %conv182, %conv180
  %tobool184 = icmp ne i32 %or183, 0
  %frombool185 = zext i1 %tobool184 to i8
  %call186 = call noundef zeroext i1 @_Z19check_frame_variantILb1ELb1ELb0ELb1ELb1EEbiRVi(i32 noundef 42, ptr noundef nonnull align 4 dereferenceable(4) %dumping_ground)
  %conv187 = zext i1 %call186 to i32
  %tobool188 = trunc i8 %frombool185 to i1
  %conv189 = zext i1 %tobool188 to i32
  %or190 = or i32 %conv189, %conv187
  %tobool191 = icmp ne i32 %or190, 0
  %frombool192 = zext i1 %tobool191 to i8
  %call193 = call noundef zeroext i1 @_Z19check_frame_variantILb0ELb1ELb0ELb1ELb1EEbiRVi(i32 noundef 42, ptr noundef nonnull align 4 dereferenceable(4) %dumping_ground)
  %conv194 = zext i1 %call193 to i32
  %tobool195 = trunc i8 %frombool192 to i1
  %conv196 = zext i1 %tobool195 to i32
  %or197 = or i32 %conv196, %conv194
  %tobool198 = icmp ne i32 %or197, 0
  %frombool199 = zext i1 %tobool198 to i8
  %call200 = call noundef zeroext i1 @_Z19check_frame_variantILb1ELb0ELb1ELb1ELb1EEbiRVi(i32 noundef 42, ptr noundef nonnull align 4 dereferenceable(4) %dumping_ground)
  %conv201 = zext i1 %call200 to i32
  %tobool202 = trunc i8 %frombool199 to i1
  %conv203 = zext i1 %tobool202 to i32
  %or204 = or i32 %conv203, %conv201
  %tobool205 = icmp ne i32 %or204, 0
  %frombool206 = zext i1 %tobool205 to i8
  %call207 = call noundef zeroext i1 @_Z19check_frame_variantILb0ELb0ELb1ELb1ELb1EEbiRVi(i32 noundef 42, ptr noundef nonnull align 4 dereferenceable(4) %dumping_ground)
  %conv208 = zext i1 %call207 to i32
  %tobool209 = trunc i8 %frombool206 to i1
  %conv210 = zext i1 %tobool209 to i32
  %or211 = or i32 %conv210, %conv208
  %tobool212 = icmp ne i32 %or211, 0
  %frombool213 = zext i1 %tobool212 to i8
  %call214 = call noundef zeroext i1 @_Z19check_frame_variantILb1ELb1ELb1ELb1ELb1EEbiRVi(i32 noundef 42, ptr noundef nonnull align 4 dereferenceable(4) %dumping_ground)
  %conv215 = zext i1 %call214 to i32
  %tobool216 = trunc i8 %frombool213 to i1
  %conv217 = zext i1 %tobool216 to i32
  %or218 = or i32 %conv217, %conv215
  %tobool219 = icmp ne i32 %or218, 0
  %frombool220 = zext i1 %tobool219 to i8
  %call221 = call noundef zeroext i1 @_Z19check_frame_variantILb0ELb1ELb1ELb1ELb1EEbiRVi(i32 noundef 42, ptr noundef nonnull align 4 dereferenceable(4) %dumping_ground)
  %conv222 = zext i1 %call221 to i32
  %tobool223 = trunc i8 %frombool220 to i1
  %conv224 = zext i1 %tobool223 to i32
  %or225 = or i32 %conv224, %conv222
  %tobool226 = icmp ne i32 %or225, 0
  %frombool227 = zext i1 %tobool226 to i8
  %tobool228 = trunc i8 %frombool227 to i1
  %1 = zext i1 %tobool228 to i64
  %cond = select i1 %tobool228, i32 -1, i32 0
  ret i32 %cond
}

; Function Attrs: mustprogress noinline nounwind uwtable
define linkonce_odr dso_local ptr @_ZNKSt6vectorIPKcSaIS1_EE5beginEv(ptr noundef nonnull align 8 dereferenceable(24) %this) #7 comdat align 2 {
entry:
  %retval = alloca %"class.__gnu_cxx::__normal_iterator", align 8
  %_M_impl = getelementptr inbounds %"struct.std::_Vector_base", ptr %this, i32 0, i32 0
  %_M_start = getelementptr inbounds %"struct.std::_Vector_base<const char *, std::allocator<const char *>>::_Vector_impl_data", ptr %_M_impl, i32 0, i32 0
  call void @_ZN9__gnu_cxx17__normal_iteratorIPKPKcSt6vectorIS2_SaIS2_EEEC2ERKS4_(ptr noundef nonnull align 8 dereferenceable(8) %retval, ptr noundef nonnull align 8 dereferenceable(8) %_M_start) #4
  %coerce.dive = getelementptr inbounds %"class.__gnu_cxx::__normal_iterator", ptr %retval, i32 0, i32 0
  %0 = load ptr, ptr %coerce.dive, align 8
  ret ptr %0
}

; Function Attrs: mustprogress noinline nounwind uwtable
define linkonce_odr dso_local ptr @_ZNKSt6vectorIPKcSaIS1_EE3endEv(ptr noundef nonnull align 8 dereferenceable(24) %this) #7 comdat align 2 {
entry:
  %retval = alloca %"class.__gnu_cxx::__normal_iterator", align 8
  %_M_impl = getelementptr inbounds %"struct.std::_Vector_base", ptr %this, i32 0, i32 0
  %_M_finish = getelementptr inbounds %"struct.std::_Vector_base<const char *, std::allocator<const char *>>::_Vector_impl_data", ptr %_M_impl, i32 0, i32 1
  call void @_ZN9__gnu_cxx17__normal_iteratorIPKPKcSt6vectorIS2_SaIS2_EEEC2ERKS4_(ptr noundef nonnull align 8 dereferenceable(8) %retval, ptr noundef nonnull align 8 dereferenceable(8) %_M_finish) #4
  %coerce.dive = getelementptr inbounds %"class.__gnu_cxx::__normal_iterator", ptr %retval, i32 0, i32 0
  %0 = load ptr, ptr %coerce.dive, align 8
  ret ptr %0
}

; Function Attrs: mustprogress noinline nounwind uwtable
define linkonce_odr dso_local noundef zeroext i1 @_ZN9__gnu_cxxneIPKPKcSt6vectorIS2_SaIS2_EEEEbRKNS_17__normal_iteratorIT_T0_EESD_(ptr noundef nonnull align 8 dereferenceable(8) %__lhs, ptr noundef nonnull align 8 dereferenceable(8) %__rhs) #7 comdat {
entry:
  %call = call noundef nonnull align 8 dereferenceable(8) ptr @_ZNK9__gnu_cxx17__normal_iteratorIPKPKcSt6vectorIS2_SaIS2_EEE4baseEv(ptr noundef nonnull align 8 dereferenceable(8) %__lhs) #4
  %0 = load ptr, ptr %call, align 8
  %call1 = call noundef nonnull align 8 dereferenceable(8) ptr @_ZNK9__gnu_cxx17__normal_iteratorIPKPKcSt6vectorIS2_SaIS2_EEE4baseEv(ptr noundef nonnull align 8 dereferenceable(8) %__rhs) #4
  %1 = load ptr, ptr %call1, align 8
  %cmp = icmp ne ptr %0, %1
  ret i1 %cmp
}

; Function Attrs: mustprogress noinline nounwind uwtable
define linkonce_odr dso_local noundef nonnull align 8 dereferenceable(8) ptr @_ZNK9__gnu_cxx17__normal_iteratorIPKPKcSt6vectorIS2_SaIS2_EEEdeEv(ptr noundef nonnull align 8 dereferenceable(8) %this) #7 comdat align 2 {
entry:
  %_M_current = getelementptr inbounds %"class.__gnu_cxx::__normal_iterator", ptr %this, i32 0, i32 0
  %0 = load ptr, ptr %_M_current, align 8
  ret ptr %0
}

declare noundef nonnull align 8 dereferenceable(8) ptr @_ZStlsISt11char_traitsIcEERSt13basic_ostreamIcT_ES5_PKc(ptr noundef nonnull align 8 dereferenceable(8), ptr noundef) #8

declare noundef nonnull align 8 dereferenceable(8) ptr @_ZNSolsEPFRSoS_E(ptr noundef nonnull align 8 dereferenceable(8), ptr noundef) #8

declare noundef nonnull align 8 dereferenceable(8) ptr @_ZSt4endlIcSt11char_traitsIcEERSt13basic_ostreamIT_T0_ES6_(ptr noundef nonnull align 8 dereferenceable(8)) #8

; Function Attrs: mustprogress noinline nounwind uwtable
define linkonce_odr dso_local noundef nonnull align 8 dereferenceable(8) ptr @_ZN9__gnu_cxx17__normal_iteratorIPKPKcSt6vectorIS2_SaIS2_EEEppEv(ptr noundef nonnull align 8 dereferenceable(8) %this) #7 comdat align 2 {
entry:
  %_M_current = getelementptr inbounds %"class.__gnu_cxx::__normal_iterator", ptr %this, i32 0, i32 0
  %0 = load ptr, ptr %_M_current, align 8
  %incdec.ptr = getelementptr inbounds ptr, ptr %0, i32 1
  store ptr %incdec.ptr, ptr %_M_current, align 8
  ret ptr %this
}

; Function Attrs: noinline uwtable
define linkonce_odr dso_local noundef zeroext i1 @_Z19check_frame_variantILb1ELb0ELb0ELb0ELb0EEbiRVi(i32 noundef %seed, ptr noundef nonnull align 4 dereferenceable(4) %dumping_ground) #0 comdat personality ptr @__gxx_personality_v0 {
entry:
  %trace = alloca [100 x %union.trace_element], align 16
  %test_description = alloca %"class.std::__cxx11::basic_string", align 8
  %liveValues_double = alloca %struct.LotsOfLiveValues.0, align 8
  %liveValues_int = alloca %struct.LotsOfLiveValues, align 4
  call void @_Z24getTestDescriptionStringB5cxx11bbbbb(ptr sret(%"class.std::__cxx11::basic_string") align 8 %test_description, i1 noundef zeroext true, i1 noundef zeroext false, i1 noundef zeroext false, i1 noundef zeroext false, i1 noundef zeroext false)
  %conv = sitofp i32 %seed to double
  store double %conv, ptr %liveValues_double, align 8
  %d2.i23 = getelementptr inbounds %struct.LotsOfLiveValues.0, ptr %liveValues_double, i32 0, i32 1
  %add.i2462 = call double @_wyvern_slice__Z10test_frameILj2ELb0ELj2048ELb1ELb0EJEEvDpT4_jPKcP13trace_elementd_add.i19_192950886()
  store double %add.i2462, ptr %d2.i23, align 8
  %d3.i25 = getelementptr inbounds %struct.LotsOfLiveValues.0, ptr %liveValues_double, i32 0, i32 2
  %add6.i2763 = call double @_wyvern_slice__Z10test_frameILj2ELb0ELj2048ELb1ELb0EJEEvDpT4_jPKcP13trace_elementd_add6.i22_294959648()
  store double %add6.i2763, ptr %d3.i25, align 8
  %d4.i28 = getelementptr inbounds %struct.LotsOfLiveValues.0, ptr %liveValues_double, i32 0, i32 3
  %add9.i3064 = call double @_wyvern_slice__Z10test_frameILj2ELb0ELj2048ELb1ELb0EJEEvDpT4_jPKcP13trace_elementd_add9.i25_957574556()
  store double %add9.i3064, ptr %d4.i28, align 8
  %d5.i31 = getelementptr inbounds %struct.LotsOfLiveValues.0, ptr %liveValues_double, i32 0, i32 4
  %add12.i3365 = call double @_wyvern_slice__Z10test_frameILj2ELb0ELj2048ELb1ELb0EJEEvDpT4_jPKcP13trace_elementd_add12.i28_450856346()
  store double %add12.i3365, ptr %d5.i31, align 8
  %d6.i34 = getelementptr inbounds %struct.LotsOfLiveValues.0, ptr %liveValues_double, i32 0, i32 5
  %add15.i3667 = call double @_wyvern_slice__Z10test_frameILj2ELb0ELj2048ELb1ELb0EJEEvDpT4_jPKcP13trace_elementd_add15.i31_616743252()
  store double %add15.i3667, ptr %d6.i34, align 8
  %d7.i37 = getelementptr inbounds %struct.LotsOfLiveValues.0, ptr %liveValues_double, i32 0, i32 6
  %add18.i3968 = call double @_wyvern_slice__Z10test_frameILj2ELb0ELj2048ELb1ELb0EJEEvDpT4_jPKcP13trace_elementd_add18.i34_570002413()
  store double %add18.i3968, ptr %d7.i37, align 8
  %d8.i40 = getelementptr inbounds %struct.LotsOfLiveValues.0, ptr %liveValues_double, i32 0, i32 7
  %add21.i4269 = call double @_wyvern_slice__Z10test_frameILj2ELb0ELj2048ELb1ELb0EJEEvDpT4_jPKcP13trace_elementd_add21.i37_365101202()
  store double %add21.i4269, ptr %d8.i40, align 8
  %d9.i43 = getelementptr inbounds %struct.LotsOfLiveValues.0, ptr %liveValues_double, i32 0, i32 8
  %add24.i4570 = call double @_wyvern_slice__Z10test_frameILj2ELb0ELj2048ELb1ELb0EJEEvDpT4_jPKcP13trace_elementd_add24.i40_196998609()
  store double %add24.i4570, ptr %d9.i43, align 8
  %d10.i46 = getelementptr inbounds %struct.LotsOfLiveValues.0, ptr %liveValues_double, i32 0, i32 9
  %add27.i4866 = call double @_wyvern_slice__Z10test_frameILj2ELb0ELj2048ELb1ELb0EJEEvDpT4_jPKcP13trace_elementd_add27.i43_157696020()
  store double %add27.i4866, ptr %d10.i46, align 8
  %d11.i49 = getelementptr inbounds %struct.LotsOfLiveValues.0, ptr %liveValues_double, i32 0, i32 10
  %add30.i5171 = call double @_wyvern_slice__Z10test_frameILj2ELb0ELj2048ELb1ELb0EJEEvDpT4_jPKcP13trace_elementd_add30.i46_642723472()
  store double %add30.i5171, ptr %d11.i49, align 8
  %d1231.i52 = getelementptr inbounds %struct.LotsOfLiveValues.0, ptr %liveValues_double, i32 0, i32 11
  %add34.i5472 = call double @_wyvern_slice__Z10test_frameILj2ELb0ELj2048ELb1ELb0EJEEvDpT4_jPKcP13trace_elementd_add34.i49_384078398()
  store double %add34.i5472, ptr %d1231.i52, align 8
  %d1335.i55 = getelementptr inbounds %struct.LotsOfLiveValues.0, ptr %liveValues_double, i32 0, i32 12
  %add38.i5773 = call double @_wyvern_slice__Z10test_frameILj2ELb0ELj2048ELb1ELb0EJEEvDpT4_jPKcP13trace_elementd_add38.i52_408075486()
  store double %add38.i5773, ptr %d1335.i55, align 8
  %d1439.i58 = getelementptr inbounds %struct.LotsOfLiveValues.0, ptr %liveValues_double, i32 0, i32 13
  %add42.i6074 = call double @_wyvern_slice__Z10test_frameILj2ELb0ELj2048ELb1ELb0EJEEvDpT4_jPKcP13trace_elementd_add42.i55_222632963()
  store double %add42.i6074, ptr %d1439.i58, align 8
  %d15.i61 = getelementptr inbounds %struct.LotsOfLiveValues.0, ptr %liveValues_double, i32 0, i32 14
  %add45.i6375 = call double @_wyvern_slice__Z10test_frameILj2ELb0ELj2048ELb1ELb0EJEEvDpT4_jPKcP13trace_elementd_add45.i58_970821214()
  store double %add45.i6375, ptr %d15.i61, align 8
  %d16.i64 = getelementptr inbounds %struct.LotsOfLiveValues.0, ptr %liveValues_double, i32 0, i32 15
  %add48.i6677 = call double @_wyvern_slice__Z10test_frameILj2ELb0ELj2048ELb1ELb0EJEEvDpT4_jPKcP13trace_elementd_add48.i61_161615902()
  store double %add48.i6677, ptr %d16.i64, align 8
  %d1749.i67 = getelementptr inbounds %struct.LotsOfLiveValues.0, ptr %liveValues_double, i32 0, i32 16
  %add52.i6978 = call double @_wyvern_slice__Z10test_frameILj2ELb0ELj2048ELb1ELb0EJEEvDpT4_jPKcP13trace_elementd_add52.i64_97095800()
  store double %add52.i6978, ptr %d1749.i67, align 8
  %d18.i70 = getelementptr inbounds %struct.LotsOfLiveValues.0, ptr %liveValues_double, i32 0, i32 17
  %add55.i7279 = call double @_wyvern_slice__Z10test_frameILj2ELb0ELj2048ELb1ELb0EJEEvDpT4_jPKcP13trace_elementd_add55.i67_395463972()
  store double %add55.i7279, ptr %d18.i70, align 8
  %d19.i73 = getelementptr inbounds %struct.LotsOfLiveValues.0, ptr %liveValues_double, i32 0, i32 18
  %add58.i7580 = call double @_wyvern_slice__Z10test_frameILj2ELb0ELj2048ELb1ELb0EJEEvDpT4_jPKcP13trace_elementd_add58.i70_535739741()
  store double %add58.i7580, ptr %d19.i73, align 8
  %d20.i76 = getelementptr inbounds %struct.LotsOfLiveValues.0, ptr %liveValues_double, i32 0, i32 19
  %add61.i7881 = call double @_wyvern_slice__Z10test_frameILj2ELb0ELj2048ELb1ELb0EJEEvDpT4_jPKcP13trace_elementd_add61.i73_725737234()
  store double %add61.i7881, ptr %d20.i76, align 8
  %d21.i79 = getelementptr inbounds %struct.LotsOfLiveValues.0, ptr %liveValues_double, i32 0, i32 20
  %add64.i8182 = call double @_wyvern_slice__Z10test_frameILj2ELb0ELj2048ELb1ELb0EJEEvDpT4_jPKcP13trace_elementd_add64.i76_169302242()
  store double %add64.i8182, ptr %d21.i79, align 8
  %d22.i82 = getelementptr inbounds %struct.LotsOfLiveValues.0, ptr %liveValues_double, i32 0, i32 21
  %add67.i8483 = call double @_wyvern_slice__Z10test_frameILj2ELb0ELj2048ELb1ELb0EJEEvDpT4_jPKcP13trace_elementd_add67.i79_680623634()
  store double %add67.i8483, ptr %d22.i82, align 8
  %d23.i85 = getelementptr inbounds %struct.LotsOfLiveValues.0, ptr %liveValues_double, i32 0, i32 22
  %add70.i8784 = call double @_wyvern_slice__Z10test_frameILj2ELb0ELj2048ELb1ELb0EJEEvDpT4_jPKcP13trace_elementd_add70.i82_649348830()
  store double %add70.i8784, ptr %d23.i85, align 8
  %d24.i88 = getelementptr inbounds %struct.LotsOfLiveValues.0, ptr %liveValues_double, i32 0, i32 23
  %add73.i9085 = call double @_wyvern_slice__Z10test_frameILj2ELb0ELj2048ELb1ELb0EJEEvDpT4_jPKcP13trace_elementd_add73.i85_278475279()
  store double %add73.i9085, ptr %d24.i88, align 8
  %d2574.i91 = getelementptr inbounds %struct.LotsOfLiveValues.0, ptr %liveValues_double, i32 0, i32 24
  %add77.i9386 = call double @_wyvern_slice__Z10test_frameILj2ELb0ELj2048ELb1ELb0EJEEvDpT4_jPKcP13trace_elementd_add77.i88_263343217()
  store double %add77.i9386, ptr %d2574.i91, align 8
  %d26.i94 = getelementptr inbounds %struct.LotsOfLiveValues.0, ptr %liveValues_double, i32 0, i32 25
  %add80.i9687 = call double @_wyvern_slice__Z10test_frameILj2ELb0ELj2048ELb1ELb0EJEEvDpT4_jPKcP13trace_elementd_add80.i91_5195837()
  store double %add80.i9687, ptr %d26.i94, align 8
  %d27.i97 = getelementptr inbounds %struct.LotsOfLiveValues.0, ptr %liveValues_double, i32 0, i32 26
  %add83.i9988 = call double @_wyvern_slice__Z10test_frameILj2ELb0ELj2048ELb1ELb0EJEEvDpT4_jPKcP13trace_elementd_add83.i94_333108408()
  store double %add83.i9988, ptr %d27.i97, align 8
  %d28.i100 = getelementptr inbounds %struct.LotsOfLiveValues.0, ptr %liveValues_double, i32 0, i32 27
  %add86.i10289 = call double @_wyvern_slice__Z10test_frameILj2ELb0ELj2048ELb1ELb0EJEEvDpT4_jPKcP13trace_elementd_add86.i97_878325942()
  store double %add86.i10289, ptr %d28.i100, align 8
  %d29.i103 = getelementptr inbounds %struct.LotsOfLiveValues.0, ptr %liveValues_double, i32 0, i32 28
  %add89.i10590 = call double @_wyvern_slice__Z10test_frameILj2ELb0ELj2048ELb1ELb0EJEEvDpT4_jPKcP13trace_elementd_add89.i100_995026150()
  store double %add89.i10590, ptr %d29.i103, align 8
  %d30.i106 = getelementptr inbounds %struct.LotsOfLiveValues.0, ptr %liveValues_double, i32 0, i32 29
  %add92.i10891 = call double @_wyvern_slice__Z10test_frameILj2ELb0ELj2048ELb1ELb0EJEEvDpT4_jPKcP13trace_elementd_add92.i103_714370376()
  store double %add92.i10891, ptr %d30.i106, align 8
  %d31.i109 = getelementptr inbounds %struct.LotsOfLiveValues.0, ptr %liveValues_double, i32 0, i32 30
  %add95.i11192 = call double @_wyvern_slice__Z10test_frameILj2ELb0ELj2048ELb1ELb0EJEEvDpT4_jPKcP13trace_elementd_add95.i106_947008786()
  store double %add95.i11192, ptr %d31.i109, align 8
  %d32.i112 = getelementptr inbounds %struct.LotsOfLiveValues.0, ptr %liveValues_double, i32 0, i32 31
  %add98.i11476 = call double @_wyvern_slice__Z10test_frameILj2ELb0ELj2048ELb1ELb0EJEEvDpT4_jPKcP13trace_elementd_add98.i109_359479818()
  store double %add98.i11476, ptr %d32.i112, align 8
  %d33.i115 = getelementptr inbounds %struct.LotsOfLiveValues.0, ptr %liveValues_double, i32 0, i32 32
  %add101.i11796 = call double @_wyvern_slice__Z10test_frameILj2ELb0ELj2048ELb1ELb0EJEEvDpT4_jPKcP13trace_elementd_add101.i112_89831981()
  store double %add101.i11796, ptr %d33.i115, align 8
  %d34.i118 = getelementptr inbounds %struct.LotsOfLiveValues.0, ptr %liveValues_double, i32 0, i32 33
  %add104.i12097 = call double @_wyvern_slice__Z10test_frameILj2ELb0ELj2048ELb1ELb0EJEEvDpT4_jPKcP13trace_elementd_add104.i115_303427264()
  store double %add104.i12097, ptr %d34.i118, align 8
  %d35.i121 = getelementptr inbounds %struct.LotsOfLiveValues.0, ptr %liveValues_double, i32 0, i32 34
  %add107.i12398 = call double @_wyvern_slice__Z10test_frameILj2ELb0ELj2048ELb1ELb0EJEEvDpT4_jPKcP13trace_elementd_add107.i118_241094378()
  store double %add107.i12398, ptr %d35.i121, align 8
  %d36.i124 = getelementptr inbounds %struct.LotsOfLiveValues.0, ptr %liveValues_double, i32 0, i32 35
  %add110.i12699 = call double @_wyvern_slice__Z10test_frameILj2ELb0ELj2048ELb1ELb0EJEEvDpT4_jPKcP13trace_elementd_add110.i121_876500502()
  store double %add110.i12699, ptr %d36.i124, align 8
  %d37.i127 = getelementptr inbounds %struct.LotsOfLiveValues.0, ptr %liveValues_double, i32 0, i32 36
  %add113.i129100 = call double @_wyvern_slice__Z10test_frameILj2ELb0ELj2048ELb1ELb0EJEEvDpT4_jPKcP13trace_elementd_add113.i124_227393457()
  store double %add113.i129100, ptr %d37.i127, align 8
  %d38114.i130 = getelementptr inbounds %struct.LotsOfLiveValues.0, ptr %liveValues_double, i32 0, i32 37
  %add117.i132101 = call double @_wyvern_slice__Z10test_frameILj2ELb0ELj2048ELb1ELb0EJEEvDpT4_jPKcP13trace_elementd_add117.i127_471695309()
  store double %add117.i132101, ptr %d38114.i130, align 8
  %d39.i133 = getelementptr inbounds %struct.LotsOfLiveValues.0, ptr %liveValues_double, i32 0, i32 38
  %add120.i135102 = call double @_wyvern_slice__Z10test_frameILj2ELb0ELj2048ELb1ELb0EJEEvDpT4_jPKcP13trace_elementd_add120.i130_436310927()
  store double %add120.i135102, ptr %d39.i133, align 8
  store i32 %seed, ptr %liveValues_int, align 4
  %d2.i = getelementptr inbounds %struct.LotsOfLiveValues, ptr %liveValues_int, i32 0, i32 1
  %add.i103 = call i32 @_wyvern_slice__Z11check_tracePKcS0_PK13trace_elementdjbjjbbi_add.i_79638110()
  store i32 %add.i103, ptr %d2.i, align 4
  %d3.i = getelementptr inbounds %struct.LotsOfLiveValues, ptr %liveValues_int, i32 0, i32 2
  %add6.i104 = call i32 @_wyvern_slice__Z11check_tracePKcS0_PK13trace_elementdjbjjbbi_add6.i_725666043()
  store i32 %add6.i104, ptr %d3.i, align 4
  %d4.i = getelementptr inbounds %struct.LotsOfLiveValues, ptr %liveValues_int, i32 0, i32 3
  %add9.i105 = call i32 @_wyvern_slice__Z11check_tracePKcS0_PK13trace_elementdjbjjbbi_add9.i_778015173()
  store i32 %add9.i105, ptr %d4.i, align 4
  %d5.i = getelementptr inbounds %struct.LotsOfLiveValues, ptr %liveValues_int, i32 0, i32 4
  %add12.i106 = call i32 @_wyvern_slice__Z11check_tracePKcS0_PK13trace_elementdjbjjbbi_add12.i_871992298()
  store i32 %add12.i106, ptr %d5.i, align 4
  %d6.i = getelementptr inbounds %struct.LotsOfLiveValues, ptr %liveValues_int, i32 0, i32 5
  %add15.i107 = call i32 @_wyvern_slice__Z11check_tracePKcS0_PK13trace_elementdjbjjbbi_add15.i_699640918()
  store i32 %add15.i107, ptr %d6.i, align 4
  %d7.i = getelementptr inbounds %struct.LotsOfLiveValues, ptr %liveValues_int, i32 0, i32 6
  %add18.i108 = call i32 @_wyvern_slice__Z11check_tracePKcS0_PK13trace_elementdjbjjbbi_add18.i_229401483()
  store i32 %add18.i108, ptr %d7.i, align 4
  %d8.i = getelementptr inbounds %struct.LotsOfLiveValues, ptr %liveValues_int, i32 0, i32 7
  %add21.i109 = call i32 @_wyvern_slice__Z11check_tracePKcS0_PK13trace_elementdjbjjbbi_add21.i_453874021()
  store i32 %add21.i109, ptr %d8.i, align 4
  %d9.i = getelementptr inbounds %struct.LotsOfLiveValues, ptr %liveValues_int, i32 0, i32 8
  %add24.i110 = call i32 @_wyvern_slice__Z11check_tracePKcS0_PK13trace_elementdjbjjbbi_add24.i_379413497()
  store i32 %add24.i110, ptr %d9.i, align 4
  %d10.i = getelementptr inbounds %struct.LotsOfLiveValues, ptr %liveValues_int, i32 0, i32 9
  %add27.i111 = call i32 @_wyvern_slice__Z11check_tracePKcS0_PK13trace_elementdjbjjbbi_add27.i_116684249()
  store i32 %add27.i111, ptr %d10.i, align 4
  %d11.i = getelementptr inbounds %struct.LotsOfLiveValues, ptr %liveValues_int, i32 0, i32 10
  %add30.i112 = call i32 @_wyvern_slice__Z11check_tracePKcS0_PK13trace_elementdjbjjbbi_add30.i_452335753()
  store i32 %add30.i112, ptr %d11.i, align 4
  %d1231.i = getelementptr inbounds %struct.LotsOfLiveValues, ptr %liveValues_int, i32 0, i32 11
  %add34.i113 = call i32 @_wyvern_slice__Z11check_tracePKcS0_PK13trace_elementdjbjjbbi_add34.i_947872048()
  store i32 %add34.i113, ptr %d1231.i, align 4
  %d1335.i = getelementptr inbounds %struct.LotsOfLiveValues, ptr %liveValues_int, i32 0, i32 12
  %add38.i114 = call i32 @_wyvern_slice__Z11check_tracePKcS0_PK13trace_elementdjbjjbbi_add38.i_539862683()
  store i32 %add38.i114, ptr %d1335.i, align 4
  %d1439.i = getelementptr inbounds %struct.LotsOfLiveValues, ptr %liveValues_int, i32 0, i32 13
  %add42.i115 = call i32 @_wyvern_slice__Z11check_tracePKcS0_PK13trace_elementdjbjjbbi_add42.i_14667220()
  store i32 %add42.i115, ptr %d1439.i, align 4
  %d15.i = getelementptr inbounds %struct.LotsOfLiveValues, ptr %liveValues_int, i32 0, i32 14
  %add45.i116 = call i32 @_wyvern_slice__Z11check_tracePKcS0_PK13trace_elementdjbjjbbi_add45.i_54703108()
  store i32 %add45.i116, ptr %d15.i, align 4
  %d16.i = getelementptr inbounds %struct.LotsOfLiveValues, ptr %liveValues_int, i32 0, i32 15
  %add48.i117 = call i32 @_wyvern_slice__Z11check_tracePKcS0_PK13trace_elementdjbjjbbi_add48.i_980930456()
  store i32 %add48.i117, ptr %d16.i, align 4
  %d1749.i = getelementptr inbounds %struct.LotsOfLiveValues, ptr %liveValues_int, i32 0, i32 16
  %add52.i118 = call i32 @_wyvern_slice__Z11check_tracePKcS0_PK13trace_elementdjbjjbbi_add52.i_352864048()
  store i32 %add52.i118, ptr %d1749.i, align 4
  %d18.i = getelementptr inbounds %struct.LotsOfLiveValues, ptr %liveValues_int, i32 0, i32 17
  %add55.i119 = call i32 @_wyvern_slice__Z11check_tracePKcS0_PK13trace_elementdjbjjbbi_add55.i_242678122()
  store i32 %add55.i119, ptr %d18.i, align 4
  %d19.i = getelementptr inbounds %struct.LotsOfLiveValues, ptr %liveValues_int, i32 0, i32 18
  %add58.i120 = call i32 @_wyvern_slice__Z11check_tracePKcS0_PK13trace_elementdjbjjbbi_add58.i_561959204()
  store i32 %add58.i120, ptr %d19.i, align 4
  %d20.i = getelementptr inbounds %struct.LotsOfLiveValues, ptr %liveValues_int, i32 0, i32 19
  %add61.i121 = call i32 @_wyvern_slice__Z11check_tracePKcS0_PK13trace_elementdjbjjbbi_add61.i_793751076()
  store i32 %add61.i121, ptr %d20.i, align 4
  %d21.i = getelementptr inbounds %struct.LotsOfLiveValues, ptr %liveValues_int, i32 0, i32 20
  %add64.i122 = call i32 @_wyvern_slice__Z11check_tracePKcS0_PK13trace_elementdjbjjbbi_add64.i_717717205()
  store i32 %add64.i122, ptr %d21.i, align 4
  %d22.i = getelementptr inbounds %struct.LotsOfLiveValues, ptr %liveValues_int, i32 0, i32 21
  %add67.i123 = call i32 @_wyvern_slice__Z11check_tracePKcS0_PK13trace_elementdjbjjbbi_add67.i_548130757()
  store i32 %add67.i123, ptr %d22.i, align 4
  %d23.i = getelementptr inbounds %struct.LotsOfLiveValues, ptr %liveValues_int, i32 0, i32 22
  %add70.i124 = call i32 @_wyvern_slice__Z11check_tracePKcS0_PK13trace_elementdjbjjbbi_add70.i_402764612()
  store i32 %add70.i124, ptr %d23.i, align 4
  %d24.i = getelementptr inbounds %struct.LotsOfLiveValues, ptr %liveValues_int, i32 0, i32 23
  %add73.i125 = call i32 @_wyvern_slice__Z11check_tracePKcS0_PK13trace_elementdjbjjbbi_add73.i_647489565()
  store i32 %add73.i125, ptr %d24.i, align 4
  %d2574.i = getelementptr inbounds %struct.LotsOfLiveValues, ptr %liveValues_int, i32 0, i32 24
  %add77.i126 = call i32 @_wyvern_slice__Z11check_tracePKcS0_PK13trace_elementdjbjjbbi_add77.i_762575852()
  store i32 %add77.i126, ptr %d2574.i, align 4
  %d26.i = getelementptr inbounds %struct.LotsOfLiveValues, ptr %liveValues_int, i32 0, i32 25
  %add80.i93 = call i32 @_wyvern_slice__Z11check_tracePKcS0_PK13trace_elementdjbjjbbi_add80.i_276811972()
  store i32 %add80.i93, ptr %d26.i, align 4
  %d27.i = getelementptr inbounds %struct.LotsOfLiveValues, ptr %liveValues_int, i32 0, i32 26
  %add83.i94 = call i32 @_wyvern_slice__Z11check_tracePKcS0_PK13trace_elementdjbjjbbi_add83.i_441878893()
  store i32 %add83.i94, ptr %d27.i, align 4
  %d28.i = getelementptr inbounds %struct.LotsOfLiveValues, ptr %liveValues_int, i32 0, i32 27
  %add86.i95 = call i32 @_wyvern_slice__Z11check_tracePKcS0_PK13trace_elementdjbjjbbi_add86.i_379141477()
  store i32 %add86.i95, ptr %d28.i, align 4
  %d29.i = getelementptr inbounds %struct.LotsOfLiveValues, ptr %liveValues_int, i32 0, i32 28
  %add89.i141 = call i32 @_wyvern_slice__Z11check_tracePKcS0_PK13trace_elementdjbjjbbi_add89.i_957463967()
  store i32 %add89.i141, ptr %d29.i, align 4
  %d30.i = getelementptr inbounds %struct.LotsOfLiveValues, ptr %liveValues_int, i32 0, i32 29
  %add92.i142 = call i32 @_wyvern_slice__Z11check_tracePKcS0_PK13trace_elementdjbjjbbi_add92.i_189182820()
  store i32 %add92.i142, ptr %d30.i, align 4
  %d31.i = getelementptr inbounds %struct.LotsOfLiveValues, ptr %liveValues_int, i32 0, i32 30
  %add95.i143 = call i32 @_wyvern_slice__Z11check_tracePKcS0_PK13trace_elementdjbjjbbi_add95.i_246433034()
  store i32 %add95.i143, ptr %d31.i, align 4
  %d32.i = getelementptr inbounds %struct.LotsOfLiveValues, ptr %liveValues_int, i32 0, i32 31
  %add98.i144 = call i32 @_wyvern_slice__Z11check_tracePKcS0_PK13trace_elementdjbjjbbi_add98.i_416170815()
  store i32 %add98.i144, ptr %d32.i, align 4
  %d33.i = getelementptr inbounds %struct.LotsOfLiveValues, ptr %liveValues_int, i32 0, i32 32
  %add101.i145 = call i32 @_wyvern_slice__Z11check_tracePKcS0_PK13trace_elementdjbjjbbi_add101.i_123092476()
  store i32 %add101.i145, ptr %d33.i, align 4
  %d34.i = getelementptr inbounds %struct.LotsOfLiveValues, ptr %liveValues_int, i32 0, i32 33
  %add104.i146 = call i32 @_wyvern_slice__Z11check_tracePKcS0_PK13trace_elementdjbjjbbi_add104.i_776359929()
  store i32 %add104.i146, ptr %d34.i, align 4
  %d35.i = getelementptr inbounds %struct.LotsOfLiveValues, ptr %liveValues_int, i32 0, i32 34
  %add107.i147 = call i32 @_wyvern_slice__Z11check_tracePKcS0_PK13trace_elementdjbjjbbi_add107.i_252932971()
  store i32 %add107.i147, ptr %d35.i, align 4
  %d36.i = getelementptr inbounds %struct.LotsOfLiveValues, ptr %liveValues_int, i32 0, i32 35
  %add110.i148 = call i32 @_wyvern_slice__Z11check_tracePKcS0_PK13trace_elementdjbjjbbi_add110.i_340675789()
  store i32 %add110.i148, ptr %d36.i, align 4
  %d37.i = getelementptr inbounds %struct.LotsOfLiveValues, ptr %liveValues_int, i32 0, i32 36
  %add113.i149 = call i32 @_wyvern_slice__Z11check_tracePKcS0_PK13trace_elementdjbjjbbi_add113.i_426944689()
  store i32 %add113.i149, ptr %d37.i, align 4
  %d38114.i = getelementptr inbounds %struct.LotsOfLiveValues, ptr %liveValues_int, i32 0, i32 37
  %add117.i150 = call i32 @_wyvern_slice__Z11check_tracePKcS0_PK13trace_elementdjbjjbbi_add117.i_990889366()
  store i32 %add117.i150, ptr %d38114.i, align 4
  %d39.i = getelementptr inbounds %struct.LotsOfLiveValues, ptr %liveValues_int, i32 0, i32 38
  %add120.i151 = call i32 @_wyvern_slice__Z11check_tracePKcS0_PK13trace_elementdjbjjbbi_add120.i_5187494()
  store i32 %add120.i151, ptr %d39.i, align 4
  %add129 = call double @_wyvern_slice__Z19check_frame_variantILb0ELb0ELb0ELb0ELb0EEbiRVi_add_252228540()
  %arraydecay = getelementptr inbounds [100 x %union.trace_element], ptr %trace, i64 0, i64 0
  invoke void @_Z10test_frameILj4096ELb0ELj2048ELb0ELb0EJEEvDpT4_jPKcP13trace_elementd(i32 noundef 100, ptr noundef @.str.35, ptr noundef %arraydecay, double noundef %add129)
          to label %invoke.cont5 unwind label %lpad4

invoke.cont5:                                     ; preds = %entry
  %add12233 = call i32 @_wyvern_slice__Z19check_frame_variantILb0ELb0ELb0ELb0ELb0EEbiRVi_add12_539135297(ptr %dumping_ground)
  store volatile i32 %add12233, ptr %dumping_ground, align 4
  br label %try.cont

lpad:                                             ; preds = %try.cont
  %0 = landingpad { ptr, i32 }
          cleanup
  %1 = extractvalue { ptr, i32 } %0, 0
  %2 = extractvalue { ptr, i32 } %0, 1
  br label %ehcleanup

lpad4:                                            ; preds = %entry
  %3 = landingpad { ptr, i32 }
          cleanup
          catch ptr @_ZTIi
  %4 = extractvalue { ptr, i32 } %3, 0
  %5 = extractvalue { ptr, i32 } %3, 1
  %6 = call i32 @llvm.eh.typeid.for(ptr @_ZTIi) #4
  %matches = icmp eq i32 %5, %6
  br i1 %matches, label %catch, label %ehcleanup

catch:                                            ; preds = %lpad4
  %7 = call ptr @__cxa_begin_catch(ptr %4) #4
  %8 = load i32, ptr %7, align 4
  call void @__cxa_end_catch() #4
  br label %try.cont

try.cont:                                         ; preds = %catch, %invoke.cont5
  %exception_value.0 = phi i32 [ -1, %invoke.cont5 ], [ %8, %catch ]
  %call13 = call noundef ptr @_ZNKSt7__cxx1112basic_stringIcSt11char_traitsIcESaIcEE5c_strEv(ptr noundef nonnull align 8 dereferenceable(32) %test_description) #4
  %arraydecay14 = getelementptr inbounds [100 x %union.trace_element], ptr %trace, i64 0, i64 0
  %call16 = invoke noundef zeroext i1 @_Z11check_tracePKcS0_PK13trace_elementdjbjjbbi(ptr noundef %call13, ptr noundef @.str.35, ptr noundef %arraydecay14, double noundef %add129, i32 noundef 4096, i1 noundef zeroext false, i32 noundef 100, i32 noundef 2048, i1 noundef zeroext false, i1 noundef zeroext false, i32 noundef %exception_value.0)
          to label %invoke.cont15 unwind label %lpad

invoke.cont15:                                    ; preds = %try.cont
  call void @_ZNSt7__cxx1112basic_stringIcSt11char_traitsIcESaIcEED1Ev(ptr noundef nonnull align 8 dereferenceable(32) %test_description) #4
  ret i1 %call16

ehcleanup:                                        ; preds = %lpad4, %lpad
  %exn.slot.0 = phi ptr [ %1, %lpad ], [ %4, %lpad4 ]
  %ehselector.slot.0 = phi i32 [ %2, %lpad ], [ %5, %lpad4 ]
  call void @_ZNSt7__cxx1112basic_stringIcSt11char_traitsIcESaIcEED1Ev(ptr noundef nonnull align 8 dereferenceable(32) %test_description) #4
  %lpad.val = insertvalue { ptr, i32 } poison, ptr %exn.slot.0, 0
  %lpad.val19 = insertvalue { ptr, i32 } %lpad.val, i32 %ehselector.slot.0, 1
  resume { ptr, i32 } %lpad.val19
}

; Function Attrs: noinline uwtable
define linkonce_odr dso_local noundef zeroext i1 @_Z19check_frame_variantILb0ELb0ELb0ELb0ELb0EEbiRVi(i32 noundef %seed, ptr noundef nonnull align 4 dereferenceable(4) %dumping_ground) #0 comdat personality ptr @__gxx_personality_v0 {
entry:
  %trace = alloca [100 x %union.trace_element], align 16
  %test_description = alloca %"class.std::__cxx11::basic_string", align 8
  %liveValues_double = alloca %struct.LotsOfLiveValues.0, align 8
  %liveValues_int = alloca %struct.LotsOfLiveValues, align 4
  call void @_Z24getTestDescriptionStringB5cxx11bbbbb(ptr sret(%"class.std::__cxx11::basic_string") align 8 %test_description, i1 noundef zeroext false, i1 noundef zeroext false, i1 noundef zeroext false, i1 noundef zeroext false, i1 noundef zeroext false)
  %conv = sitofp i32 %seed to double
  store double %conv, ptr %liveValues_double, align 8
  %d2.i23 = getelementptr inbounds %struct.LotsOfLiveValues.0, ptr %liveValues_double, i32 0, i32 1
  %add.i242 = call double @_wyvern_slice__Z10test_frameILj2ELb0ELj2048ELb1ELb0EJEEvDpT4_jPKcP13trace_elementd_add.i19_192950886()
  store double %add.i242, ptr %d2.i23, align 8
  %d3.i25 = getelementptr inbounds %struct.LotsOfLiveValues.0, ptr %liveValues_double, i32 0, i32 2
  %add6.i271 = call double @_wyvern_slice__Z10test_frameILj2ELb0ELj2048ELb1ELb0EJEEvDpT4_jPKcP13trace_elementd_add6.i22_294959648()
  store double %add6.i271, ptr %d3.i25, align 8
  %d4.i28 = getelementptr inbounds %struct.LotsOfLiveValues.0, ptr %liveValues_double, i32 0, i32 3
  %add9.i303 = call double @_wyvern_slice__Z10test_frameILj2ELb0ELj2048ELb1ELb0EJEEvDpT4_jPKcP13trace_elementd_add9.i25_957574556()
  store double %add9.i303, ptr %d4.i28, align 8
  %d5.i31 = getelementptr inbounds %struct.LotsOfLiveValues.0, ptr %liveValues_double, i32 0, i32 4
  %add12.i334 = call double @_wyvern_slice__Z10test_frameILj2ELb0ELj2048ELb1ELb0EJEEvDpT4_jPKcP13trace_elementd_add12.i28_450856346()
  store double %add12.i334, ptr %d5.i31, align 8
  %d6.i34 = getelementptr inbounds %struct.LotsOfLiveValues.0, ptr %liveValues_double, i32 0, i32 5
  %add15.i366 = call double @_wyvern_slice__Z10test_frameILj2ELb0ELj2048ELb1ELb0EJEEvDpT4_jPKcP13trace_elementd_add15.i31_616743252()
  store double %add15.i366, ptr %d6.i34, align 8
  %d7.i37 = getelementptr inbounds %struct.LotsOfLiveValues.0, ptr %liveValues_double, i32 0, i32 6
  %add18.i397 = call double @_wyvern_slice__Z10test_frameILj2ELb0ELj2048ELb1ELb0EJEEvDpT4_jPKcP13trace_elementd_add18.i34_570002413()
  store double %add18.i397, ptr %d7.i37, align 8
  %d8.i40 = getelementptr inbounds %struct.LotsOfLiveValues.0, ptr %liveValues_double, i32 0, i32 7
  %add21.i428 = call double @_wyvern_slice__Z10test_frameILj2ELb0ELj2048ELb1ELb0EJEEvDpT4_jPKcP13trace_elementd_add21.i37_365101202()
  store double %add21.i428, ptr %d8.i40, align 8
  %d9.i43 = getelementptr inbounds %struct.LotsOfLiveValues.0, ptr %liveValues_double, i32 0, i32 8
  %add24.i459 = call double @_wyvern_slice__Z10test_frameILj2ELb0ELj2048ELb1ELb0EJEEvDpT4_jPKcP13trace_elementd_add24.i40_196998609()
  store double %add24.i459, ptr %d9.i43, align 8
  %d10.i46 = getelementptr inbounds %struct.LotsOfLiveValues.0, ptr %liveValues_double, i32 0, i32 9
  %add27.i485 = call double @_wyvern_slice__Z10test_frameILj2ELb0ELj2048ELb1ELb0EJEEvDpT4_jPKcP13trace_elementd_add27.i43_157696020()
  store double %add27.i485, ptr %d10.i46, align 8
  %d11.i49 = getelementptr inbounds %struct.LotsOfLiveValues.0, ptr %liveValues_double, i32 0, i32 10
  %add30.i5110 = call double @_wyvern_slice__Z10test_frameILj2ELb0ELj2048ELb1ELb0EJEEvDpT4_jPKcP13trace_elementd_add30.i46_642723472()
  store double %add30.i5110, ptr %d11.i49, align 8
  %d1231.i52 = getelementptr inbounds %struct.LotsOfLiveValues.0, ptr %liveValues_double, i32 0, i32 11
  %add34.i5411 = call double @_wyvern_slice__Z10test_frameILj2ELb0ELj2048ELb1ELb0EJEEvDpT4_jPKcP13trace_elementd_add34.i49_384078398()
  store double %add34.i5411, ptr %d1231.i52, align 8
  %d1335.i55 = getelementptr inbounds %struct.LotsOfLiveValues.0, ptr %liveValues_double, i32 0, i32 12
  %add38.i5712 = call double @_wyvern_slice__Z10test_frameILj2ELb0ELj2048ELb1ELb0EJEEvDpT4_jPKcP13trace_elementd_add38.i52_408075486()
  store double %add38.i5712, ptr %d1335.i55, align 8
  %d1439.i58 = getelementptr inbounds %struct.LotsOfLiveValues.0, ptr %liveValues_double, i32 0, i32 13
  %add42.i6013 = call double @_wyvern_slice__Z10test_frameILj2ELb0ELj2048ELb1ELb0EJEEvDpT4_jPKcP13trace_elementd_add42.i55_222632963()
  store double %add42.i6013, ptr %d1439.i58, align 8
  %d15.i61 = getelementptr inbounds %struct.LotsOfLiveValues.0, ptr %liveValues_double, i32 0, i32 14
  %add45.i6314 = call double @_wyvern_slice__Z10test_frameILj2ELb0ELj2048ELb1ELb0EJEEvDpT4_jPKcP13trace_elementd_add45.i58_970821214()
  store double %add45.i6314, ptr %d15.i61, align 8
  %d16.i64 = getelementptr inbounds %struct.LotsOfLiveValues.0, ptr %liveValues_double, i32 0, i32 15
  %add48.i6616 = call double @_wyvern_slice__Z10test_frameILj2ELb0ELj2048ELb1ELb0EJEEvDpT4_jPKcP13trace_elementd_add48.i61_161615902()
  store double %add48.i6616, ptr %d16.i64, align 8
  %d1749.i67 = getelementptr inbounds %struct.LotsOfLiveValues.0, ptr %liveValues_double, i32 0, i32 16
  %add52.i6917 = call double @_wyvern_slice__Z10test_frameILj2ELb0ELj2048ELb1ELb0EJEEvDpT4_jPKcP13trace_elementd_add52.i64_97095800()
  store double %add52.i6917, ptr %d1749.i67, align 8
  %d18.i70 = getelementptr inbounds %struct.LotsOfLiveValues.0, ptr %liveValues_double, i32 0, i32 17
  %add55.i7218 = call double @_wyvern_slice__Z10test_frameILj2ELb0ELj2048ELb1ELb0EJEEvDpT4_jPKcP13trace_elementd_add55.i67_395463972()
  store double %add55.i7218, ptr %d18.i70, align 8
  %d19.i73 = getelementptr inbounds %struct.LotsOfLiveValues.0, ptr %liveValues_double, i32 0, i32 18
  %add58.i7519 = call double @_wyvern_slice__Z10test_frameILj2ELb0ELj2048ELb1ELb0EJEEvDpT4_jPKcP13trace_elementd_add58.i70_535739741()
  store double %add58.i7519, ptr %d19.i73, align 8
  %d20.i76 = getelementptr inbounds %struct.LotsOfLiveValues.0, ptr %liveValues_double, i32 0, i32 19
  %add61.i7820 = call double @_wyvern_slice__Z10test_frameILj2ELb0ELj2048ELb1ELb0EJEEvDpT4_jPKcP13trace_elementd_add61.i73_725737234()
  store double %add61.i7820, ptr %d20.i76, align 8
  %d21.i79 = getelementptr inbounds %struct.LotsOfLiveValues.0, ptr %liveValues_double, i32 0, i32 20
  %add64.i8121 = call double @_wyvern_slice__Z10test_frameILj2ELb0ELj2048ELb1ELb0EJEEvDpT4_jPKcP13trace_elementd_add64.i76_169302242()
  store double %add64.i8121, ptr %d21.i79, align 8
  %d22.i82 = getelementptr inbounds %struct.LotsOfLiveValues.0, ptr %liveValues_double, i32 0, i32 21
  %add67.i8422 = call double @_wyvern_slice__Z10test_frameILj2ELb0ELj2048ELb1ELb0EJEEvDpT4_jPKcP13trace_elementd_add67.i79_680623634()
  store double %add67.i8422, ptr %d22.i82, align 8
  %d23.i85 = getelementptr inbounds %struct.LotsOfLiveValues.0, ptr %liveValues_double, i32 0, i32 22
  %add70.i8723 = call double @_wyvern_slice__Z10test_frameILj2ELb0ELj2048ELb1ELb0EJEEvDpT4_jPKcP13trace_elementd_add70.i82_649348830()
  store double %add70.i8723, ptr %d23.i85, align 8
  %d24.i88 = getelementptr inbounds %struct.LotsOfLiveValues.0, ptr %liveValues_double, i32 0, i32 23
  %add73.i9024 = call double @_wyvern_slice__Z10test_frameILj2ELb0ELj2048ELb1ELb0EJEEvDpT4_jPKcP13trace_elementd_add73.i85_278475279()
  store double %add73.i9024, ptr %d24.i88, align 8
  %d2574.i91 = getelementptr inbounds %struct.LotsOfLiveValues.0, ptr %liveValues_double, i32 0, i32 24
  %add77.i9325 = call double @_wyvern_slice__Z10test_frameILj2ELb0ELj2048ELb1ELb0EJEEvDpT4_jPKcP13trace_elementd_add77.i88_263343217()
  store double %add77.i9325, ptr %d2574.i91, align 8
  %d26.i94 = getelementptr inbounds %struct.LotsOfLiveValues.0, ptr %liveValues_double, i32 0, i32 25
  %add80.i9626 = call double @_wyvern_slice__Z10test_frameILj2ELb0ELj2048ELb1ELb0EJEEvDpT4_jPKcP13trace_elementd_add80.i91_5195837()
  store double %add80.i9626, ptr %d26.i94, align 8
  %d27.i97 = getelementptr inbounds %struct.LotsOfLiveValues.0, ptr %liveValues_double, i32 0, i32 26
  %add83.i9927 = call double @_wyvern_slice__Z10test_frameILj2ELb0ELj2048ELb1ELb0EJEEvDpT4_jPKcP13trace_elementd_add83.i94_333108408()
  store double %add83.i9927, ptr %d27.i97, align 8
  %d28.i100 = getelementptr inbounds %struct.LotsOfLiveValues.0, ptr %liveValues_double, i32 0, i32 27
  %add86.i10228 = call double @_wyvern_slice__Z10test_frameILj2ELb0ELj2048ELb1ELb0EJEEvDpT4_jPKcP13trace_elementd_add86.i97_878325942()
  store double %add86.i10228, ptr %d28.i100, align 8
  %d29.i103 = getelementptr inbounds %struct.LotsOfLiveValues.0, ptr %liveValues_double, i32 0, i32 28
  %add89.i10529 = call double @_wyvern_slice__Z10test_frameILj2ELb0ELj2048ELb1ELb0EJEEvDpT4_jPKcP13trace_elementd_add89.i100_995026150()
  store double %add89.i10529, ptr %d29.i103, align 8
  %d30.i106 = getelementptr inbounds %struct.LotsOfLiveValues.0, ptr %liveValues_double, i32 0, i32 29
  %add92.i10830 = call double @_wyvern_slice__Z10test_frameILj2ELb0ELj2048ELb1ELb0EJEEvDpT4_jPKcP13trace_elementd_add92.i103_714370376()
  store double %add92.i10830, ptr %d30.i106, align 8
  %d31.i109 = getelementptr inbounds %struct.LotsOfLiveValues.0, ptr %liveValues_double, i32 0, i32 30
  %add95.i11131 = call double @_wyvern_slice__Z10test_frameILj2ELb0ELj2048ELb1ELb0EJEEvDpT4_jPKcP13trace_elementd_add95.i106_947008786()
  store double %add95.i11131, ptr %d31.i109, align 8
  %d32.i112 = getelementptr inbounds %struct.LotsOfLiveValues.0, ptr %liveValues_double, i32 0, i32 31
  %add98.i11415 = call double @_wyvern_slice__Z10test_frameILj2ELb0ELj2048ELb1ELb0EJEEvDpT4_jPKcP13trace_elementd_add98.i109_359479818()
  store double %add98.i11415, ptr %d32.i112, align 8
  %d33.i115 = getelementptr inbounds %struct.LotsOfLiveValues.0, ptr %liveValues_double, i32 0, i32 32
  %add101.i11735 = call double @_wyvern_slice__Z10test_frameILj2ELb0ELj2048ELb1ELb0EJEEvDpT4_jPKcP13trace_elementd_add101.i112_89831981()
  store double %add101.i11735, ptr %d33.i115, align 8
  %d34.i118 = getelementptr inbounds %struct.LotsOfLiveValues.0, ptr %liveValues_double, i32 0, i32 33
  %add104.i12036 = call double @_wyvern_slice__Z10test_frameILj2ELb0ELj2048ELb1ELb0EJEEvDpT4_jPKcP13trace_elementd_add104.i115_303427264()
  store double %add104.i12036, ptr %d34.i118, align 8
  %d35.i121 = getelementptr inbounds %struct.LotsOfLiveValues.0, ptr %liveValues_double, i32 0, i32 34
  %add107.i12337 = call double @_wyvern_slice__Z10test_frameILj2ELb0ELj2048ELb1ELb0EJEEvDpT4_jPKcP13trace_elementd_add107.i118_241094378()
  store double %add107.i12337, ptr %d35.i121, align 8
  %d36.i124 = getelementptr inbounds %struct.LotsOfLiveValues.0, ptr %liveValues_double, i32 0, i32 35
  %add110.i12638 = call double @_wyvern_slice__Z10test_frameILj2ELb0ELj2048ELb1ELb0EJEEvDpT4_jPKcP13trace_elementd_add110.i121_876500502()
  store double %add110.i12638, ptr %d36.i124, align 8
  %d37.i127 = getelementptr inbounds %struct.LotsOfLiveValues.0, ptr %liveValues_double, i32 0, i32 36
  %add113.i12939 = call double @_wyvern_slice__Z10test_frameILj2ELb0ELj2048ELb1ELb0EJEEvDpT4_jPKcP13trace_elementd_add113.i124_227393457()
  store double %add113.i12939, ptr %d37.i127, align 8
  %d38114.i130 = getelementptr inbounds %struct.LotsOfLiveValues.0, ptr %liveValues_double, i32 0, i32 37
  %add117.i13240 = call double @_wyvern_slice__Z10test_frameILj2ELb0ELj2048ELb1ELb0EJEEvDpT4_jPKcP13trace_elementd_add117.i127_471695309()
  store double %add117.i13240, ptr %d38114.i130, align 8
  %d39.i133 = getelementptr inbounds %struct.LotsOfLiveValues.0, ptr %liveValues_double, i32 0, i32 38
  %add120.i13541 = call double @_wyvern_slice__Z10test_frameILj2ELb0ELj2048ELb1ELb0EJEEvDpT4_jPKcP13trace_elementd_add120.i130_436310927()
  store double %add120.i13541, ptr %d39.i133, align 8
  store i32 %seed, ptr %liveValues_int, align 4
  %d2.i = getelementptr inbounds %struct.LotsOfLiveValues, ptr %liveValues_int, i32 0, i32 1
  %add.i42 = call i32 @_wyvern_slice__Z11check_tracePKcS0_PK13trace_elementdjbjjbbi_add.i_79638110()
  store i32 %add.i42, ptr %d2.i, align 4
  %d3.i = getelementptr inbounds %struct.LotsOfLiveValues, ptr %liveValues_int, i32 0, i32 2
  %add6.i43 = call i32 @_wyvern_slice__Z11check_tracePKcS0_PK13trace_elementdjbjjbbi_add6.i_725666043()
  store i32 %add6.i43, ptr %d3.i, align 4
  %d4.i = getelementptr inbounds %struct.LotsOfLiveValues, ptr %liveValues_int, i32 0, i32 3
  %add9.i44 = call i32 @_wyvern_slice__Z11check_tracePKcS0_PK13trace_elementdjbjjbbi_add9.i_778015173()
  store i32 %add9.i44, ptr %d4.i, align 4
  %d5.i = getelementptr inbounds %struct.LotsOfLiveValues, ptr %liveValues_int, i32 0, i32 4
  %add12.i45 = call i32 @_wyvern_slice__Z11check_tracePKcS0_PK13trace_elementdjbjjbbi_add12.i_871992298()
  store i32 %add12.i45, ptr %d5.i, align 4
  %d6.i = getelementptr inbounds %struct.LotsOfLiveValues, ptr %liveValues_int, i32 0, i32 5
  %add15.i46 = call i32 @_wyvern_slice__Z11check_tracePKcS0_PK13trace_elementdjbjjbbi_add15.i_699640918()
  store i32 %add15.i46, ptr %d6.i, align 4
  %d7.i = getelementptr inbounds %struct.LotsOfLiveValues, ptr %liveValues_int, i32 0, i32 6
  %add18.i47 = call i32 @_wyvern_slice__Z11check_tracePKcS0_PK13trace_elementdjbjjbbi_add18.i_229401483()
  store i32 %add18.i47, ptr %d7.i, align 4
  %d8.i = getelementptr inbounds %struct.LotsOfLiveValues, ptr %liveValues_int, i32 0, i32 7
  %add21.i48 = call i32 @_wyvern_slice__Z11check_tracePKcS0_PK13trace_elementdjbjjbbi_add21.i_453874021()
  store i32 %add21.i48, ptr %d8.i, align 4
  %d9.i = getelementptr inbounds %struct.LotsOfLiveValues, ptr %liveValues_int, i32 0, i32 8
  %add24.i49 = call i32 @_wyvern_slice__Z11check_tracePKcS0_PK13trace_elementdjbjjbbi_add24.i_379413497()
  store i32 %add24.i49, ptr %d9.i, align 4
  %d10.i = getelementptr inbounds %struct.LotsOfLiveValues, ptr %liveValues_int, i32 0, i32 9
  %add27.i50 = call i32 @_wyvern_slice__Z11check_tracePKcS0_PK13trace_elementdjbjjbbi_add27.i_116684249()
  store i32 %add27.i50, ptr %d10.i, align 4
  %d11.i = getelementptr inbounds %struct.LotsOfLiveValues, ptr %liveValues_int, i32 0, i32 10
  %add30.i52 = call i32 @_wyvern_slice__Z11check_tracePKcS0_PK13trace_elementdjbjjbbi_add30.i_452335753()
  store i32 %add30.i52, ptr %d11.i, align 4
  %d1231.i = getelementptr inbounds %struct.LotsOfLiveValues, ptr %liveValues_int, i32 0, i32 11
  %add34.i53 = call i32 @_wyvern_slice__Z11check_tracePKcS0_PK13trace_elementdjbjjbbi_add34.i_947872048()
  store i32 %add34.i53, ptr %d1231.i, align 4
  %d1335.i = getelementptr inbounds %struct.LotsOfLiveValues, ptr %liveValues_int, i32 0, i32 12
  %add38.i54 = call i32 @_wyvern_slice__Z11check_tracePKcS0_PK13trace_elementdjbjjbbi_add38.i_539862683()
  store i32 %add38.i54, ptr %d1335.i, align 4
  %d1439.i = getelementptr inbounds %struct.LotsOfLiveValues, ptr %liveValues_int, i32 0, i32 13
  %add42.i55 = call i32 @_wyvern_slice__Z11check_tracePKcS0_PK13trace_elementdjbjjbbi_add42.i_14667220()
  store i32 %add42.i55, ptr %d1439.i, align 4
  %d15.i = getelementptr inbounds %struct.LotsOfLiveValues, ptr %liveValues_int, i32 0, i32 14
  %add45.i56 = call i32 @_wyvern_slice__Z11check_tracePKcS0_PK13trace_elementdjbjjbbi_add45.i_54703108()
  store i32 %add45.i56, ptr %d15.i, align 4
  %d16.i = getelementptr inbounds %struct.LotsOfLiveValues, ptr %liveValues_int, i32 0, i32 15
  %add48.i57 = call i32 @_wyvern_slice__Z11check_tracePKcS0_PK13trace_elementdjbjjbbi_add48.i_980930456()
  store i32 %add48.i57, ptr %d16.i, align 4
  %d1749.i = getelementptr inbounds %struct.LotsOfLiveValues, ptr %liveValues_int, i32 0, i32 16
  %add52.i58 = call i32 @_wyvern_slice__Z11check_tracePKcS0_PK13trace_elementdjbjjbbi_add52.i_352864048()
  store i32 %add52.i58, ptr %d1749.i, align 4
  %d18.i = getelementptr inbounds %struct.LotsOfLiveValues, ptr %liveValues_int, i32 0, i32 17
  %add55.i59 = call i32 @_wyvern_slice__Z11check_tracePKcS0_PK13trace_elementdjbjjbbi_add55.i_242678122()
  store i32 %add55.i59, ptr %d18.i, align 4
  %d19.i = getelementptr inbounds %struct.LotsOfLiveValues, ptr %liveValues_int, i32 0, i32 18
  %add58.i60 = call i32 @_wyvern_slice__Z11check_tracePKcS0_PK13trace_elementdjbjjbbi_add58.i_561959204()
  store i32 %add58.i60, ptr %d19.i, align 4
  %d20.i = getelementptr inbounds %struct.LotsOfLiveValues, ptr %liveValues_int, i32 0, i32 19
  %add61.i61 = call i32 @_wyvern_slice__Z11check_tracePKcS0_PK13trace_elementdjbjjbbi_add61.i_793751076()
  store i32 %add61.i61, ptr %d20.i, align 4
  %d21.i = getelementptr inbounds %struct.LotsOfLiveValues, ptr %liveValues_int, i32 0, i32 20
  %add64.i62 = call i32 @_wyvern_slice__Z11check_tracePKcS0_PK13trace_elementdjbjjbbi_add64.i_717717205()
  store i32 %add64.i62, ptr %d21.i, align 4
  %d22.i = getelementptr inbounds %struct.LotsOfLiveValues, ptr %liveValues_int, i32 0, i32 21
  %add67.i63 = call i32 @_wyvern_slice__Z11check_tracePKcS0_PK13trace_elementdjbjjbbi_add67.i_548130757()
  store i32 %add67.i63, ptr %d22.i, align 4
  %d23.i = getelementptr inbounds %struct.LotsOfLiveValues, ptr %liveValues_int, i32 0, i32 22
  %add70.i64 = call i32 @_wyvern_slice__Z11check_tracePKcS0_PK13trace_elementdjbjjbbi_add70.i_402764612()
  store i32 %add70.i64, ptr %d23.i, align 4
  %d24.i = getelementptr inbounds %struct.LotsOfLiveValues, ptr %liveValues_int, i32 0, i32 23
  %add73.i65 = call i32 @_wyvern_slice__Z11check_tracePKcS0_PK13trace_elementdjbjjbbi_add73.i_647489565()
  store i32 %add73.i65, ptr %d24.i, align 4
  %d2574.i = getelementptr inbounds %struct.LotsOfLiveValues, ptr %liveValues_int, i32 0, i32 24
  %add77.i66 = call i32 @_wyvern_slice__Z11check_tracePKcS0_PK13trace_elementdjbjjbbi_add77.i_762575852()
  store i32 %add77.i66, ptr %d2574.i, align 4
  %d26.i = getelementptr inbounds %struct.LotsOfLiveValues, ptr %liveValues_int, i32 0, i32 25
  %add80.i32 = call i32 @_wyvern_slice__Z11check_tracePKcS0_PK13trace_elementdjbjjbbi_add80.i_276811972()
  store i32 %add80.i32, ptr %d26.i, align 4
  %d27.i = getelementptr inbounds %struct.LotsOfLiveValues, ptr %liveValues_int, i32 0, i32 26
  %add83.i33 = call i32 @_wyvern_slice__Z11check_tracePKcS0_PK13trace_elementdjbjjbbi_add83.i_441878893()
  store i32 %add83.i33, ptr %d27.i, align 4
  %d28.i = getelementptr inbounds %struct.LotsOfLiveValues, ptr %liveValues_int, i32 0, i32 27
  %add86.i34 = call i32 @_wyvern_slice__Z11check_tracePKcS0_PK13trace_elementdjbjjbbi_add86.i_379141477()
  store i32 %add86.i34, ptr %d28.i, align 4
  %d29.i = getelementptr inbounds %struct.LotsOfLiveValues, ptr %liveValues_int, i32 0, i32 28
  %add89.i80 = call i32 @_wyvern_slice__Z11check_tracePKcS0_PK13trace_elementdjbjjbbi_add89.i_957463967()
  store i32 %add89.i80, ptr %d29.i, align 4
  %d30.i = getelementptr inbounds %struct.LotsOfLiveValues, ptr %liveValues_int, i32 0, i32 29
  %add92.i81 = call i32 @_wyvern_slice__Z11check_tracePKcS0_PK13trace_elementdjbjjbbi_add92.i_189182820()
  store i32 %add92.i81, ptr %d30.i, align 4
  %d31.i = getelementptr inbounds %struct.LotsOfLiveValues, ptr %liveValues_int, i32 0, i32 30
  %add95.i82 = call i32 @_wyvern_slice__Z11check_tracePKcS0_PK13trace_elementdjbjjbbi_add95.i_246433034()
  store i32 %add95.i82, ptr %d31.i, align 4
  %d32.i = getelementptr inbounds %struct.LotsOfLiveValues, ptr %liveValues_int, i32 0, i32 31
  %add98.i83 = call i32 @_wyvern_slice__Z11check_tracePKcS0_PK13trace_elementdjbjjbbi_add98.i_416170815()
  store i32 %add98.i83, ptr %d32.i, align 4
  %d33.i = getelementptr inbounds %struct.LotsOfLiveValues, ptr %liveValues_int, i32 0, i32 32
  %add101.i84 = call i32 @_wyvern_slice__Z11check_tracePKcS0_PK13trace_elementdjbjjbbi_add101.i_123092476()
  store i32 %add101.i84, ptr %d33.i, align 4
  %d34.i = getelementptr inbounds %struct.LotsOfLiveValues, ptr %liveValues_int, i32 0, i32 33
  %add104.i85 = call i32 @_wyvern_slice__Z11check_tracePKcS0_PK13trace_elementdjbjjbbi_add104.i_776359929()
  store i32 %add104.i85, ptr %d34.i, align 4
  %d35.i = getelementptr inbounds %struct.LotsOfLiveValues, ptr %liveValues_int, i32 0, i32 34
  %add107.i86 = call i32 @_wyvern_slice__Z11check_tracePKcS0_PK13trace_elementdjbjjbbi_add107.i_252932971()
  store i32 %add107.i86, ptr %d35.i, align 4
  %d36.i = getelementptr inbounds %struct.LotsOfLiveValues, ptr %liveValues_int, i32 0, i32 35
  %add110.i87 = call i32 @_wyvern_slice__Z11check_tracePKcS0_PK13trace_elementdjbjjbbi_add110.i_340675789()
  store i32 %add110.i87, ptr %d36.i, align 4
  %d37.i = getelementptr inbounds %struct.LotsOfLiveValues, ptr %liveValues_int, i32 0, i32 36
  %add113.i88 = call i32 @_wyvern_slice__Z11check_tracePKcS0_PK13trace_elementdjbjjbbi_add113.i_426944689()
  store i32 %add113.i88, ptr %d37.i, align 4
  %d38114.i = getelementptr inbounds %struct.LotsOfLiveValues, ptr %liveValues_int, i32 0, i32 37
  %add117.i89 = call i32 @_wyvern_slice__Z11check_tracePKcS0_PK13trace_elementdjbjjbbi_add117.i_990889366()
  store i32 %add117.i89, ptr %d38114.i, align 4
  %d39.i = getelementptr inbounds %struct.LotsOfLiveValues, ptr %liveValues_int, i32 0, i32 38
  %add120.i90 = call i32 @_wyvern_slice__Z11check_tracePKcS0_PK13trace_elementdjbjjbbi_add120.i_5187494()
  store i32 %add120.i90, ptr %d39.i, align 4
  %add69 = call double @_wyvern_slice__Z19check_frame_variantILb0ELb0ELb0ELb0ELb0EEbiRVi_add_252228540()
  %arraydecay = getelementptr inbounds [100 x %union.trace_element], ptr %trace, i64 0, i64 0
  invoke void @_Z10test_frameILj2ELb0ELj2048ELb0ELb0EJEEvDpT4_jPKcP13trace_elementd(i32 noundef 100, ptr noundef @.str.35, ptr noundef %arraydecay, double noundef %add69)
          to label %invoke.cont5 unwind label %lpad4

invoke.cont5:                                     ; preds = %entry
  %add12234 = call i32 @_wyvern_slice__Z19check_frame_variantILb0ELb0ELb0ELb0ELb0EEbiRVi_add12_539135297(ptr %dumping_ground)
  store volatile i32 %add12234, ptr %dumping_ground, align 4
  br label %try.cont

lpad:                                             ; preds = %try.cont
  %0 = landingpad { ptr, i32 }
          cleanup
  %1 = extractvalue { ptr, i32 } %0, 0
  %2 = extractvalue { ptr, i32 } %0, 1
  br label %ehcleanup

lpad4:                                            ; preds = %entry
  %3 = landingpad { ptr, i32 }
          cleanup
          catch ptr @_ZTIi
  %4 = extractvalue { ptr, i32 } %3, 0
  %5 = extractvalue { ptr, i32 } %3, 1
  %6 = call i32 @llvm.eh.typeid.for(ptr @_ZTIi) #4
  %matches = icmp eq i32 %5, %6
  br i1 %matches, label %catch, label %ehcleanup

catch:                                            ; preds = %lpad4
  %7 = call ptr @__cxa_begin_catch(ptr %4) #4
  %8 = load i32, ptr %7, align 4
  call void @__cxa_end_catch() #4
  br label %try.cont

try.cont:                                         ; preds = %catch, %invoke.cont5
  %exception_value.0 = phi i32 [ -1, %invoke.cont5 ], [ %8, %catch ]
  %call13 = call noundef ptr @_ZNKSt7__cxx1112basic_stringIcSt11char_traitsIcESaIcEE5c_strEv(ptr noundef nonnull align 8 dereferenceable(32) %test_description) #4
  %arraydecay14 = getelementptr inbounds [100 x %union.trace_element], ptr %trace, i64 0, i64 0
  %call16 = invoke noundef zeroext i1 @_Z11check_tracePKcS0_PK13trace_elementdjbjjbbi(ptr noundef %call13, ptr noundef @.str.35, ptr noundef %arraydecay14, double noundef %add69, i32 noundef 2, i1 noundef zeroext false, i32 noundef 100, i32 noundef 2048, i1 noundef zeroext false, i1 noundef zeroext false, i32 noundef %exception_value.0)
          to label %invoke.cont15 unwind label %lpad

invoke.cont15:                                    ; preds = %try.cont
  call void @_ZNSt7__cxx1112basic_stringIcSt11char_traitsIcESaIcEED1Ev(ptr noundef nonnull align 8 dereferenceable(32) %test_description) #4
  ret i1 %call16

ehcleanup:                                        ; preds = %lpad4, %lpad
  %exn.slot.0 = phi ptr [ %1, %lpad ], [ %4, %lpad4 ]
  %ehselector.slot.0 = phi i32 [ %2, %lpad ], [ %5, %lpad4 ]
  call void @_ZNSt7__cxx1112basic_stringIcSt11char_traitsIcESaIcEED1Ev(ptr noundef nonnull align 8 dereferenceable(32) %test_description) #4
  %lpad.val = insertvalue { ptr, i32 } poison, ptr %exn.slot.0, 0
  %lpad.val19 = insertvalue { ptr, i32 } %lpad.val, i32 %ehselector.slot.0, 1
  resume { ptr, i32 } %lpad.val19
}

; Function Attrs: noinline uwtable
define linkonce_odr dso_local noundef zeroext i1 @_Z19check_frame_variantILb1ELb1ELb0ELb0ELb0EEbiRVi(i32 noundef %seed, ptr noundef nonnull align 4 dereferenceable(4) %dumping_ground) #0 comdat personality ptr @__gxx_personality_v0 {
entry:
  %trace = alloca [100 x %union.trace_element], align 16
  %test_description = alloca %"class.std::__cxx11::basic_string", align 8
  %liveValues_double = alloca %struct.LotsOfLiveValues.0, align 8
  %liveValues_int = alloca %struct.LotsOfLiveValues, align 4
  call void @_Z24getTestDescriptionStringB5cxx11bbbbb(ptr sret(%"class.std::__cxx11::basic_string") align 8 %test_description, i1 noundef zeroext true, i1 noundef zeroext true, i1 noundef zeroext false, i1 noundef zeroext false, i1 noundef zeroext false)
  %conv = sitofp i32 %seed to double
  store double %conv, ptr %liveValues_double, align 8
  %d2.i23 = getelementptr inbounds %struct.LotsOfLiveValues.0, ptr %liveValues_double, i32 0, i32 1
  %add.i242 = call double @_wyvern_slice__Z10test_frameILj2ELb0ELj2048ELb1ELb0EJEEvDpT4_jPKcP13trace_elementd_add.i19_192950886()
  store double %add.i242, ptr %d2.i23, align 8
  %d3.i25 = getelementptr inbounds %struct.LotsOfLiveValues.0, ptr %liveValues_double, i32 0, i32 2
  %add6.i271 = call double @_wyvern_slice__Z10test_frameILj2ELb0ELj2048ELb1ELb0EJEEvDpT4_jPKcP13trace_elementd_add6.i22_294959648()
  store double %add6.i271, ptr %d3.i25, align 8
  %d4.i28 = getelementptr inbounds %struct.LotsOfLiveValues.0, ptr %liveValues_double, i32 0, i32 3
  %add9.i303 = call double @_wyvern_slice__Z10test_frameILj2ELb0ELj2048ELb1ELb0EJEEvDpT4_jPKcP13trace_elementd_add9.i25_957574556()
  store double %add9.i303, ptr %d4.i28, align 8
  %d5.i31 = getelementptr inbounds %struct.LotsOfLiveValues.0, ptr %liveValues_double, i32 0, i32 4
  %add12.i334 = call double @_wyvern_slice__Z10test_frameILj2ELb0ELj2048ELb1ELb0EJEEvDpT4_jPKcP13trace_elementd_add12.i28_450856346()
  store double %add12.i334, ptr %d5.i31, align 8
  %d6.i34 = getelementptr inbounds %struct.LotsOfLiveValues.0, ptr %liveValues_double, i32 0, i32 5
  %add15.i366 = call double @_wyvern_slice__Z10test_frameILj2ELb0ELj2048ELb1ELb0EJEEvDpT4_jPKcP13trace_elementd_add15.i31_616743252()
  store double %add15.i366, ptr %d6.i34, align 8
  %d7.i37 = getelementptr inbounds %struct.LotsOfLiveValues.0, ptr %liveValues_double, i32 0, i32 6
  %add18.i397 = call double @_wyvern_slice__Z10test_frameILj2ELb0ELj2048ELb1ELb0EJEEvDpT4_jPKcP13trace_elementd_add18.i34_570002413()
  store double %add18.i397, ptr %d7.i37, align 8
  %d8.i40 = getelementptr inbounds %struct.LotsOfLiveValues.0, ptr %liveValues_double, i32 0, i32 7
  %add21.i428 = call double @_wyvern_slice__Z10test_frameILj2ELb0ELj2048ELb1ELb0EJEEvDpT4_jPKcP13trace_elementd_add21.i37_365101202()
  store double %add21.i428, ptr %d8.i40, align 8
  %d9.i43 = getelementptr inbounds %struct.LotsOfLiveValues.0, ptr %liveValues_double, i32 0, i32 8
  %add24.i459 = call double @_wyvern_slice__Z10test_frameILj2ELb0ELj2048ELb1ELb0EJEEvDpT4_jPKcP13trace_elementd_add24.i40_196998609()
  store double %add24.i459, ptr %d9.i43, align 8
  %d10.i46 = getelementptr inbounds %struct.LotsOfLiveValues.0, ptr %liveValues_double, i32 0, i32 9
  %add27.i485 = call double @_wyvern_slice__Z10test_frameILj2ELb0ELj2048ELb1ELb0EJEEvDpT4_jPKcP13trace_elementd_add27.i43_157696020()
  store double %add27.i485, ptr %d10.i46, align 8
  %d11.i49 = getelementptr inbounds %struct.LotsOfLiveValues.0, ptr %liveValues_double, i32 0, i32 10
  %add30.i5110 = call double @_wyvern_slice__Z10test_frameILj2ELb0ELj2048ELb1ELb0EJEEvDpT4_jPKcP13trace_elementd_add30.i46_642723472()
  store double %add30.i5110, ptr %d11.i49, align 8
  %d1231.i52 = getelementptr inbounds %struct.LotsOfLiveValues.0, ptr %liveValues_double, i32 0, i32 11
  %add34.i5411 = call double @_wyvern_slice__Z10test_frameILj2ELb0ELj2048ELb1ELb0EJEEvDpT4_jPKcP13trace_elementd_add34.i49_384078398()
  store double %add34.i5411, ptr %d1231.i52, align 8
  %d1335.i55 = getelementptr inbounds %struct.LotsOfLiveValues.0, ptr %liveValues_double, i32 0, i32 12
  %add38.i5712 = call double @_wyvern_slice__Z10test_frameILj2ELb0ELj2048ELb1ELb0EJEEvDpT4_jPKcP13trace_elementd_add38.i52_408075486()
  store double %add38.i5712, ptr %d1335.i55, align 8
  %d1439.i58 = getelementptr inbounds %struct.LotsOfLiveValues.0, ptr %liveValues_double, i32 0, i32 13
  %add42.i6013 = call double @_wyvern_slice__Z10test_frameILj2ELb0ELj2048ELb1ELb0EJEEvDpT4_jPKcP13trace_elementd_add42.i55_222632963()
  store double %add42.i6013, ptr %d1439.i58, align 8
  %d15.i61 = getelementptr inbounds %struct.LotsOfLiveValues.0, ptr %liveValues_double, i32 0, i32 14
  %add45.i6314 = call double @_wyvern_slice__Z10test_frameILj2ELb0ELj2048ELb1ELb0EJEEvDpT4_jPKcP13trace_elementd_add45.i58_970821214()
  store double %add45.i6314, ptr %d15.i61, align 8
  %d16.i64 = getelementptr inbounds %struct.LotsOfLiveValues.0, ptr %liveValues_double, i32 0, i32 15
  %add48.i6616 = call double @_wyvern_slice__Z10test_frameILj2ELb0ELj2048ELb1ELb0EJEEvDpT4_jPKcP13trace_elementd_add48.i61_161615902()
  store double %add48.i6616, ptr %d16.i64, align 8
  %d1749.i67 = getelementptr inbounds %struct.LotsOfLiveValues.0, ptr %liveValues_double, i32 0, i32 16
  %add52.i6917 = call double @_wyvern_slice__Z10test_frameILj2ELb0ELj2048ELb1ELb0EJEEvDpT4_jPKcP13trace_elementd_add52.i64_97095800()
  store double %add52.i6917, ptr %d1749.i67, align 8
  %d18.i70 = getelementptr inbounds %struct.LotsOfLiveValues.0, ptr %liveValues_double, i32 0, i32 17
  %add55.i7218 = call double @_wyvern_slice__Z10test_frameILj2ELb0ELj2048ELb1ELb0EJEEvDpT4_jPKcP13trace_elementd_add55.i67_395463972()
  store double %add55.i7218, ptr %d18.i70, align 8
  %d19.i73 = getelementptr inbounds %struct.LotsOfLiveValues.0, ptr %liveValues_double, i32 0, i32 18
  %add58.i7519 = call double @_wyvern_slice__Z10test_frameILj2ELb0ELj2048ELb1ELb0EJEEvDpT4_jPKcP13trace_elementd_add58.i70_535739741()
  store double %add58.i7519, ptr %d19.i73, align 8
  %d20.i76 = getelementptr inbounds %struct.LotsOfLiveValues.0, ptr %liveValues_double, i32 0, i32 19
  %add61.i7820 = call double @_wyvern_slice__Z10test_frameILj2ELb0ELj2048ELb1ELb0EJEEvDpT4_jPKcP13trace_elementd_add61.i73_725737234()
  store double %add61.i7820, ptr %d20.i76, align 8
  %d21.i79 = getelementptr inbounds %struct.LotsOfLiveValues.0, ptr %liveValues_double, i32 0, i32 20
  %add64.i8121 = call double @_wyvern_slice__Z10test_frameILj2ELb0ELj2048ELb1ELb0EJEEvDpT4_jPKcP13trace_elementd_add64.i76_169302242()
  store double %add64.i8121, ptr %d21.i79, align 8
  %d22.i82 = getelementptr inbounds %struct.LotsOfLiveValues.0, ptr %liveValues_double, i32 0, i32 21
  %add67.i8422 = call double @_wyvern_slice__Z10test_frameILj2ELb0ELj2048ELb1ELb0EJEEvDpT4_jPKcP13trace_elementd_add67.i79_680623634()
  store double %add67.i8422, ptr %d22.i82, align 8
  %d23.i85 = getelementptr inbounds %struct.LotsOfLiveValues.0, ptr %liveValues_double, i32 0, i32 22
  %add70.i8723 = call double @_wyvern_slice__Z10test_frameILj2ELb0ELj2048ELb1ELb0EJEEvDpT4_jPKcP13trace_elementd_add70.i82_649348830()
  store double %add70.i8723, ptr %d23.i85, align 8
  %d24.i88 = getelementptr inbounds %struct.LotsOfLiveValues.0, ptr %liveValues_double, i32 0, i32 23
  %add73.i9024 = call double @_wyvern_slice__Z10test_frameILj2ELb0ELj2048ELb1ELb0EJEEvDpT4_jPKcP13trace_elementd_add73.i85_278475279()
  store double %add73.i9024, ptr %d24.i88, align 8
  %d2574.i91 = getelementptr inbounds %struct.LotsOfLiveValues.0, ptr %liveValues_double, i32 0, i32 24
  %add77.i9325 = call double @_wyvern_slice__Z10test_frameILj2ELb0ELj2048ELb1ELb0EJEEvDpT4_jPKcP13trace_elementd_add77.i88_263343217()
  store double %add77.i9325, ptr %d2574.i91, align 8
  %d26.i94 = getelementptr inbounds %struct.LotsOfLiveValues.0, ptr %liveValues_double, i32 0, i32 25
  %add80.i9626 = call double @_wyvern_slice__Z10test_frameILj2ELb0ELj2048ELb1ELb0EJEEvDpT4_jPKcP13trace_elementd_add80.i91_5195837()
  store double %add80.i9626, ptr %d26.i94, align 8
  %d27.i97 = getelementptr inbounds %struct.LotsOfLiveValues.0, ptr %liveValues_double, i32 0, i32 26
  %add83.i9927 = call double @_wyvern_slice__Z10test_frameILj2ELb0ELj2048ELb1ELb0EJEEvDpT4_jPKcP13trace_elementd_add83.i94_333108408()
  store double %add83.i9927, ptr %d27.i97, align 8
  %d28.i100 = getelementptr inbounds %struct.LotsOfLiveValues.0, ptr %liveValues_double, i32 0, i32 27
  %add86.i10228 = call double @_wyvern_slice__Z10test_frameILj2ELb0ELj2048ELb1ELb0EJEEvDpT4_jPKcP13trace_elementd_add86.i97_878325942()
  store double %add86.i10228, ptr %d28.i100, align 8
  %d29.i103 = getelementptr inbounds %struct.LotsOfLiveValues.0, ptr %liveValues_double, i32 0, i32 28
  %add89.i10529 = call double @_wyvern_slice__Z10test_frameILj2ELb0ELj2048ELb1ELb0EJEEvDpT4_jPKcP13trace_elementd_add89.i100_995026150()
  store double %add89.i10529, ptr %d29.i103, align 8
  %d30.i106 = getelementptr inbounds %struct.LotsOfLiveValues.0, ptr %liveValues_double, i32 0, i32 29
  %add92.i10830 = call double @_wyvern_slice__Z10test_frameILj2ELb0ELj2048ELb1ELb0EJEEvDpT4_jPKcP13trace_elementd_add92.i103_714370376()
  store double %add92.i10830, ptr %d30.i106, align 8
  %d31.i109 = getelementptr inbounds %struct.LotsOfLiveValues.0, ptr %liveValues_double, i32 0, i32 30
  %add95.i11131 = call double @_wyvern_slice__Z10test_frameILj2ELb0ELj2048ELb1ELb0EJEEvDpT4_jPKcP13trace_elementd_add95.i106_947008786()
  store double %add95.i11131, ptr %d31.i109, align 8
  %d32.i112 = getelementptr inbounds %struct.LotsOfLiveValues.0, ptr %liveValues_double, i32 0, i32 31
  %add98.i11415 = call double @_wyvern_slice__Z10test_frameILj2ELb0ELj2048ELb1ELb0EJEEvDpT4_jPKcP13trace_elementd_add98.i109_359479818()
  store double %add98.i11415, ptr %d32.i112, align 8
  %d33.i115 = getelementptr inbounds %struct.LotsOfLiveValues.0, ptr %liveValues_double, i32 0, i32 32
  %add101.i11735 = call double @_wyvern_slice__Z10test_frameILj2ELb0ELj2048ELb1ELb0EJEEvDpT4_jPKcP13trace_elementd_add101.i112_89831981()
  store double %add101.i11735, ptr %d33.i115, align 8
  %d34.i118 = getelementptr inbounds %struct.LotsOfLiveValues.0, ptr %liveValues_double, i32 0, i32 33
  %add104.i12036 = call double @_wyvern_slice__Z10test_frameILj2ELb0ELj2048ELb1ELb0EJEEvDpT4_jPKcP13trace_elementd_add104.i115_303427264()
  store double %add104.i12036, ptr %d34.i118, align 8
  %d35.i121 = getelementptr inbounds %struct.LotsOfLiveValues.0, ptr %liveValues_double, i32 0, i32 34
  %add107.i12337 = call double @_wyvern_slice__Z10test_frameILj2ELb0ELj2048ELb1ELb0EJEEvDpT4_jPKcP13trace_elementd_add107.i118_241094378()
  store double %add107.i12337, ptr %d35.i121, align 8
  %d36.i124 = getelementptr inbounds %struct.LotsOfLiveValues.0, ptr %liveValues_double, i32 0, i32 35
  %add110.i12638 = call double @_wyvern_slice__Z10test_frameILj2ELb0ELj2048ELb1ELb0EJEEvDpT4_jPKcP13trace_elementd_add110.i121_876500502()
  store double %add110.i12638, ptr %d36.i124, align 8
  %d37.i127 = getelementptr inbounds %struct.LotsOfLiveValues.0, ptr %liveValues_double, i32 0, i32 36
  %add113.i12939 = call double @_wyvern_slice__Z10test_frameILj2ELb0ELj2048ELb1ELb0EJEEvDpT4_jPKcP13trace_elementd_add113.i124_227393457()
  store double %add113.i12939, ptr %d37.i127, align 8
  %d38114.i130 = getelementptr inbounds %struct.LotsOfLiveValues.0, ptr %liveValues_double, i32 0, i32 37
  %add117.i13240 = call double @_wyvern_slice__Z10test_frameILj2ELb0ELj2048ELb1ELb0EJEEvDpT4_jPKcP13trace_elementd_add117.i127_471695309()
  store double %add117.i13240, ptr %d38114.i130, align 8
  %d39.i133 = getelementptr inbounds %struct.LotsOfLiveValues.0, ptr %liveValues_double, i32 0, i32 38
  %add120.i13541 = call double @_wyvern_slice__Z10test_frameILj2ELb0ELj2048ELb1ELb0EJEEvDpT4_jPKcP13trace_elementd_add120.i130_436310927()
  store double %add120.i13541, ptr %d39.i133, align 8
  store i32 %seed, ptr %liveValues_int, align 4
  %d2.i = getelementptr inbounds %struct.LotsOfLiveValues, ptr %liveValues_int, i32 0, i32 1
  %add.i42 = call i32 @_wyvern_slice__Z11check_tracePKcS0_PK13trace_elementdjbjjbbi_add.i_79638110()
  store i32 %add.i42, ptr %d2.i, align 4
  %d3.i = getelementptr inbounds %struct.LotsOfLiveValues, ptr %liveValues_int, i32 0, i32 2
  %add6.i43 = call i32 @_wyvern_slice__Z11check_tracePKcS0_PK13trace_elementdjbjjbbi_add6.i_725666043()
  store i32 %add6.i43, ptr %d3.i, align 4
  %d4.i = getelementptr inbounds %struct.LotsOfLiveValues, ptr %liveValues_int, i32 0, i32 3
  %add9.i44 = call i32 @_wyvern_slice__Z11check_tracePKcS0_PK13trace_elementdjbjjbbi_add9.i_778015173()
  store i32 %add9.i44, ptr %d4.i, align 4
  %d5.i = getelementptr inbounds %struct.LotsOfLiveValues, ptr %liveValues_int, i32 0, i32 4
  %add12.i45 = call i32 @_wyvern_slice__Z11check_tracePKcS0_PK13trace_elementdjbjjbbi_add12.i_871992298()
  store i32 %add12.i45, ptr %d5.i, align 4
  %d6.i = getelementptr inbounds %struct.LotsOfLiveValues, ptr %liveValues_int, i32 0, i32 5
  %add15.i46 = call i32 @_wyvern_slice__Z11check_tracePKcS0_PK13trace_elementdjbjjbbi_add15.i_699640918()
  store i32 %add15.i46, ptr %d6.i, align 4
  %d7.i = getelementptr inbounds %struct.LotsOfLiveValues, ptr %liveValues_int, i32 0, i32 6
  %add18.i47 = call i32 @_wyvern_slice__Z11check_tracePKcS0_PK13trace_elementdjbjjbbi_add18.i_229401483()
  store i32 %add18.i47, ptr %d7.i, align 4
  %d8.i = getelementptr inbounds %struct.LotsOfLiveValues, ptr %liveValues_int, i32 0, i32 7
  %add21.i48 = call i32 @_wyvern_slice__Z11check_tracePKcS0_PK13trace_elementdjbjjbbi_add21.i_453874021()
  store i32 %add21.i48, ptr %d8.i, align 4
  %d9.i = getelementptr inbounds %struct.LotsOfLiveValues, ptr %liveValues_int, i32 0, i32 8
  %add24.i49 = call i32 @_wyvern_slice__Z11check_tracePKcS0_PK13trace_elementdjbjjbbi_add24.i_379413497()
  store i32 %add24.i49, ptr %d9.i, align 4
  %d10.i = getelementptr inbounds %struct.LotsOfLiveValues, ptr %liveValues_int, i32 0, i32 9
  %add27.i50 = call i32 @_wyvern_slice__Z11check_tracePKcS0_PK13trace_elementdjbjjbbi_add27.i_116684249()
  store i32 %add27.i50, ptr %d10.i, align 4
  %d11.i = getelementptr inbounds %struct.LotsOfLiveValues, ptr %liveValues_int, i32 0, i32 10
  %add30.i52 = call i32 @_wyvern_slice__Z11check_tracePKcS0_PK13trace_elementdjbjjbbi_add30.i_452335753()
  store i32 %add30.i52, ptr %d11.i, align 4
  %d1231.i = getelementptr inbounds %struct.LotsOfLiveValues, ptr %liveValues_int, i32 0, i32 11
  %add34.i53 = call i32 @_wyvern_slice__Z11check_tracePKcS0_PK13trace_elementdjbjjbbi_add34.i_947872048()
  store i32 %add34.i53, ptr %d1231.i, align 4
  %d1335.i = getelementptr inbounds %struct.LotsOfLiveValues, ptr %liveValues_int, i32 0, i32 12
  %add38.i54 = call i32 @_wyvern_slice__Z11check_tracePKcS0_PK13trace_elementdjbjjbbi_add38.i_539862683()
  store i32 %add38.i54, ptr %d1335.i, align 4
  %d1439.i = getelementptr inbounds %struct.LotsOfLiveValues, ptr %liveValues_int, i32 0, i32 13
  %add42.i55 = call i32 @_wyvern_slice__Z11check_tracePKcS0_PK13trace_elementdjbjjbbi_add42.i_14667220()
  store i32 %add42.i55, ptr %d1439.i, align 4
  %d15.i = getelementptr inbounds %struct.LotsOfLiveValues, ptr %liveValues_int, i32 0, i32 14
  %add45.i56 = call i32 @_wyvern_slice__Z11check_tracePKcS0_PK13trace_elementdjbjjbbi_add45.i_54703108()
  store i32 %add45.i56, ptr %d15.i, align 4
  %d16.i = getelementptr inbounds %struct.LotsOfLiveValues, ptr %liveValues_int, i32 0, i32 15
  %add48.i57 = call i32 @_wyvern_slice__Z11check_tracePKcS0_PK13trace_elementdjbjjbbi_add48.i_980930456()
  store i32 %add48.i57, ptr %d16.i, align 4
  %d1749.i = getelementptr inbounds %struct.LotsOfLiveValues, ptr %liveValues_int, i32 0, i32 16
  %add52.i58 = call i32 @_wyvern_slice__Z11check_tracePKcS0_PK13trace_elementdjbjjbbi_add52.i_352864048()
  store i32 %add52.i58, ptr %d1749.i, align 4
  %d18.i = getelementptr inbounds %struct.LotsOfLiveValues, ptr %liveValues_int, i32 0, i32 17
  %add55.i59 = call i32 @_wyvern_slice__Z11check_tracePKcS0_PK13trace_elementdjbjjbbi_add55.i_242678122()
  store i32 %add55.i59, ptr %d18.i, align 4
  %d19.i = getelementptr inbounds %struct.LotsOfLiveValues, ptr %liveValues_int, i32 0, i32 18
  %add58.i60 = call i32 @_wyvern_slice__Z11check_tracePKcS0_PK13trace_elementdjbjjbbi_add58.i_561959204()
  store i32 %add58.i60, ptr %d19.i, align 4
  %d20.i = getelementptr inbounds %struct.LotsOfLiveValues, ptr %liveValues_int, i32 0, i32 19
  %add61.i61 = call i32 @_wyvern_slice__Z11check_tracePKcS0_PK13trace_elementdjbjjbbi_add61.i_793751076()
  store i32 %add61.i61, ptr %d20.i, align 4
  %d21.i = getelementptr inbounds %struct.LotsOfLiveValues, ptr %liveValues_int, i32 0, i32 20
  %add64.i62 = call i32 @_wyvern_slice__Z11check_tracePKcS0_PK13trace_elementdjbjjbbi_add64.i_717717205()
  store i32 %add64.i62, ptr %d21.i, align 4
  %d22.i = getelementptr inbounds %struct.LotsOfLiveValues, ptr %liveValues_int, i32 0, i32 21
  %add67.i63 = call i32 @_wyvern_slice__Z11check_tracePKcS0_PK13trace_elementdjbjjbbi_add67.i_548130757()
  store i32 %add67.i63, ptr %d22.i, align 4
  %d23.i = getelementptr inbounds %struct.LotsOfLiveValues, ptr %liveValues_int, i32 0, i32 22
  %add70.i64 = call i32 @_wyvern_slice__Z11check_tracePKcS0_PK13trace_elementdjbjjbbi_add70.i_402764612()
  store i32 %add70.i64, ptr %d23.i, align 4
  %d24.i = getelementptr inbounds %struct.LotsOfLiveValues, ptr %liveValues_int, i32 0, i32 23
  %add73.i65 = call i32 @_wyvern_slice__Z11check_tracePKcS0_PK13trace_elementdjbjjbbi_add73.i_647489565()
  store i32 %add73.i65, ptr %d24.i, align 4
  %d2574.i = getelementptr inbounds %struct.LotsOfLiveValues, ptr %liveValues_int, i32 0, i32 24
  %add77.i66 = call i32 @_wyvern_slice__Z11check_tracePKcS0_PK13trace_elementdjbjjbbi_add77.i_762575852()
  store i32 %add77.i66, ptr %d2574.i, align 4
  %d26.i = getelementptr inbounds %struct.LotsOfLiveValues, ptr %liveValues_int, i32 0, i32 25
  %add80.i32 = call i32 @_wyvern_slice__Z11check_tracePKcS0_PK13trace_elementdjbjjbbi_add80.i_276811972()
  store i32 %add80.i32, ptr %d26.i, align 4
  %d27.i = getelementptr inbounds %struct.LotsOfLiveValues, ptr %liveValues_int, i32 0, i32 26
  %add83.i33 = call i32 @_wyvern_slice__Z11check_tracePKcS0_PK13trace_elementdjbjjbbi_add83.i_441878893()
  store i32 %add83.i33, ptr %d27.i, align 4
  %d28.i = getelementptr inbounds %struct.LotsOfLiveValues, ptr %liveValues_int, i32 0, i32 27
  %add86.i34 = call i32 @_wyvern_slice__Z11check_tracePKcS0_PK13trace_elementdjbjjbbi_add86.i_379141477()
  store i32 %add86.i34, ptr %d28.i, align 4
  %d29.i = getelementptr inbounds %struct.LotsOfLiveValues, ptr %liveValues_int, i32 0, i32 28
  %add89.i80 = call i32 @_wyvern_slice__Z11check_tracePKcS0_PK13trace_elementdjbjjbbi_add89.i_957463967()
  store i32 %add89.i80, ptr %d29.i, align 4
  %d30.i = getelementptr inbounds %struct.LotsOfLiveValues, ptr %liveValues_int, i32 0, i32 29
  %add92.i81 = call i32 @_wyvern_slice__Z11check_tracePKcS0_PK13trace_elementdjbjjbbi_add92.i_189182820()
  store i32 %add92.i81, ptr %d30.i, align 4
  %d31.i = getelementptr inbounds %struct.LotsOfLiveValues, ptr %liveValues_int, i32 0, i32 30
  %add95.i82 = call i32 @_wyvern_slice__Z11check_tracePKcS0_PK13trace_elementdjbjjbbi_add95.i_246433034()
  store i32 %add95.i82, ptr %d31.i, align 4
  %d32.i = getelementptr inbounds %struct.LotsOfLiveValues, ptr %liveValues_int, i32 0, i32 31
  %add98.i83 = call i32 @_wyvern_slice__Z11check_tracePKcS0_PK13trace_elementdjbjjbbi_add98.i_416170815()
  store i32 %add98.i83, ptr %d32.i, align 4
  %d33.i = getelementptr inbounds %struct.LotsOfLiveValues, ptr %liveValues_int, i32 0, i32 32
  %add101.i84 = call i32 @_wyvern_slice__Z11check_tracePKcS0_PK13trace_elementdjbjjbbi_add101.i_123092476()
  store i32 %add101.i84, ptr %d33.i, align 4
  %d34.i = getelementptr inbounds %struct.LotsOfLiveValues, ptr %liveValues_int, i32 0, i32 33
  %add104.i85 = call i32 @_wyvern_slice__Z11check_tracePKcS0_PK13trace_elementdjbjjbbi_add104.i_776359929()
  store i32 %add104.i85, ptr %d34.i, align 4
  %d35.i = getelementptr inbounds %struct.LotsOfLiveValues, ptr %liveValues_int, i32 0, i32 34
  %add107.i86 = call i32 @_wyvern_slice__Z11check_tracePKcS0_PK13trace_elementdjbjjbbi_add107.i_252932971()
  store i32 %add107.i86, ptr %d35.i, align 4
  %d36.i = getelementptr inbounds %struct.LotsOfLiveValues, ptr %liveValues_int, i32 0, i32 35
  %add110.i87 = call i32 @_wyvern_slice__Z11check_tracePKcS0_PK13trace_elementdjbjjbbi_add110.i_340675789()
  store i32 %add110.i87, ptr %d36.i, align 4
  %d37.i = getelementptr inbounds %struct.LotsOfLiveValues, ptr %liveValues_int, i32 0, i32 36
  %add113.i88 = call i32 @_wyvern_slice__Z11check_tracePKcS0_PK13trace_elementdjbjjbbi_add113.i_426944689()
  store i32 %add113.i88, ptr %d37.i, align 4
  %d38114.i = getelementptr inbounds %struct.LotsOfLiveValues, ptr %liveValues_int, i32 0, i32 37
  %add117.i89 = call i32 @_wyvern_slice__Z11check_tracePKcS0_PK13trace_elementdjbjjbbi_add117.i_990889366()
  store i32 %add117.i89, ptr %d38114.i, align 4
  %d39.i = getelementptr inbounds %struct.LotsOfLiveValues, ptr %liveValues_int, i32 0, i32 38
  %add120.i90 = call i32 @_wyvern_slice__Z11check_tracePKcS0_PK13trace_elementdjbjjbbi_add120.i_5187494()
  store i32 %add120.i90, ptr %d39.i, align 4
  %add69 = call double @_wyvern_slice__Z19check_frame_variantILb0ELb0ELb0ELb0ELb0EEbiRVi_add_252228540()
  %arraydecay = getelementptr inbounds [100 x %union.trace_element], ptr %trace, i64 0, i64 0
  invoke void @_Z10test_frameILj4096ELb1ELj2048ELb0ELb0EJEEvDpT4_jPKcP13trace_elementd(i32 noundef 100, ptr noundef @.str.35, ptr noundef %arraydecay, double noundef %add69)
          to label %invoke.cont5 unwind label %lpad4

invoke.cont5:                                     ; preds = %entry
  %add12234 = call i32 @_wyvern_slice__Z19check_frame_variantILb0ELb0ELb0ELb0ELb0EEbiRVi_add12_539135297(ptr %dumping_ground)
  store volatile i32 %add12234, ptr %dumping_ground, align 4
  br label %try.cont

lpad:                                             ; preds = %try.cont
  %0 = landingpad { ptr, i32 }
          cleanup
  %1 = extractvalue { ptr, i32 } %0, 0
  %2 = extractvalue { ptr, i32 } %0, 1
  br label %ehcleanup

lpad4:                                            ; preds = %entry
  %3 = landingpad { ptr, i32 }
          cleanup
          catch ptr @_ZTIi
  %4 = extractvalue { ptr, i32 } %3, 0
  %5 = extractvalue { ptr, i32 } %3, 1
  %6 = call i32 @llvm.eh.typeid.for(ptr @_ZTIi) #4
  %matches = icmp eq i32 %5, %6
  br i1 %matches, label %catch, label %ehcleanup

catch:                                            ; preds = %lpad4
  %7 = call ptr @__cxa_begin_catch(ptr %4) #4
  %8 = load i32, ptr %7, align 4
  call void @__cxa_end_catch() #4
  br label %try.cont

try.cont:                                         ; preds = %catch, %invoke.cont5
  %exception_value.0 = phi i32 [ -1, %invoke.cont5 ], [ %8, %catch ]
  %call13 = call noundef ptr @_ZNKSt7__cxx1112basic_stringIcSt11char_traitsIcESaIcEE5c_strEv(ptr noundef nonnull align 8 dereferenceable(32) %test_description) #4
  %arraydecay14 = getelementptr inbounds [100 x %union.trace_element], ptr %trace, i64 0, i64 0
  %call16 = invoke noundef zeroext i1 @_Z11check_tracePKcS0_PK13trace_elementdjbjjbbi(ptr noundef %call13, ptr noundef @.str.35, ptr noundef %arraydecay14, double noundef %add69, i32 noundef 4096, i1 noundef zeroext true, i32 noundef 100, i32 noundef 2048, i1 noundef zeroext false, i1 noundef zeroext false, i32 noundef %exception_value.0)
          to label %invoke.cont15 unwind label %lpad

invoke.cont15:                                    ; preds = %try.cont
  call void @_ZNSt7__cxx1112basic_stringIcSt11char_traitsIcESaIcEED1Ev(ptr noundef nonnull align 8 dereferenceable(32) %test_description) #4
  ret i1 %call16

ehcleanup:                                        ; preds = %lpad4, %lpad
  %exn.slot.0 = phi ptr [ %1, %lpad ], [ %4, %lpad4 ]
  %ehselector.slot.0 = phi i32 [ %2, %lpad ], [ %5, %lpad4 ]
  call void @_ZNSt7__cxx1112basic_stringIcSt11char_traitsIcESaIcEED1Ev(ptr noundef nonnull align 8 dereferenceable(32) %test_description) #4
  %lpad.val = insertvalue { ptr, i32 } poison, ptr %exn.slot.0, 0
  %lpad.val19 = insertvalue { ptr, i32 } %lpad.val, i32 %ehselector.slot.0, 1
  resume { ptr, i32 } %lpad.val19
}

; Function Attrs: noinline uwtable
define linkonce_odr dso_local noundef zeroext i1 @_Z19check_frame_variantILb0ELb1ELb0ELb0ELb0EEbiRVi(i32 noundef %seed, ptr noundef nonnull align 4 dereferenceable(4) %dumping_ground) #0 comdat personality ptr @__gxx_personality_v0 {
entry:
  %trace = alloca [100 x %union.trace_element], align 16
  %test_description = alloca %"class.std::__cxx11::basic_string", align 8
  %liveValues_double = alloca %struct.LotsOfLiveValues.0, align 8
  %liveValues_int = alloca %struct.LotsOfLiveValues, align 4
  call void @_Z24getTestDescriptionStringB5cxx11bbbbb(ptr sret(%"class.std::__cxx11::basic_string") align 8 %test_description, i1 noundef zeroext false, i1 noundef zeroext true, i1 noundef zeroext false, i1 noundef zeroext false, i1 noundef zeroext false)
  %conv = sitofp i32 %seed to double
  store double %conv, ptr %liveValues_double, align 8
  %d2.i23 = getelementptr inbounds %struct.LotsOfLiveValues.0, ptr %liveValues_double, i32 0, i32 1
  %add.i2490 = call double @_wyvern_slice__Z10test_frameILj2ELb0ELj2048ELb1ELb0EJEEvDpT4_jPKcP13trace_elementd_add.i19_192950886()
  store double %add.i2490, ptr %d2.i23, align 8
  %d3.i25 = getelementptr inbounds %struct.LotsOfLiveValues.0, ptr %liveValues_double, i32 0, i32 2
  %add6.i2789 = call double @_wyvern_slice__Z10test_frameILj2ELb0ELj2048ELb1ELb0EJEEvDpT4_jPKcP13trace_elementd_add6.i22_294959648()
  store double %add6.i2789, ptr %d3.i25, align 8
  %d4.i28 = getelementptr inbounds %struct.LotsOfLiveValues.0, ptr %liveValues_double, i32 0, i32 3
  %add9.i3091 = call double @_wyvern_slice__Z10test_frameILj2ELb0ELj2048ELb1ELb0EJEEvDpT4_jPKcP13trace_elementd_add9.i25_957574556()
  store double %add9.i3091, ptr %d4.i28, align 8
  %d5.i31 = getelementptr inbounds %struct.LotsOfLiveValues.0, ptr %liveValues_double, i32 0, i32 4
  %add12.i3392 = call double @_wyvern_slice__Z10test_frameILj2ELb0ELj2048ELb1ELb0EJEEvDpT4_jPKcP13trace_elementd_add12.i28_450856346()
  store double %add12.i3392, ptr %d5.i31, align 8
  %d6.i34 = getelementptr inbounds %struct.LotsOfLiveValues.0, ptr %liveValues_double, i32 0, i32 5
  %add15.i3694 = call double @_wyvern_slice__Z10test_frameILj2ELb0ELj2048ELb1ELb0EJEEvDpT4_jPKcP13trace_elementd_add15.i31_616743252()
  store double %add15.i3694, ptr %d6.i34, align 8
  %d7.i37 = getelementptr inbounds %struct.LotsOfLiveValues.0, ptr %liveValues_double, i32 0, i32 6
  %add18.i3995 = call double @_wyvern_slice__Z10test_frameILj2ELb0ELj2048ELb1ELb0EJEEvDpT4_jPKcP13trace_elementd_add18.i34_570002413()
  store double %add18.i3995, ptr %d7.i37, align 8
  %d8.i40 = getelementptr inbounds %struct.LotsOfLiveValues.0, ptr %liveValues_double, i32 0, i32 7
  %add21.i4296 = call double @_wyvern_slice__Z10test_frameILj2ELb0ELj2048ELb1ELb0EJEEvDpT4_jPKcP13trace_elementd_add21.i37_365101202()
  store double %add21.i4296, ptr %d8.i40, align 8
  %d9.i43 = getelementptr inbounds %struct.LotsOfLiveValues.0, ptr %liveValues_double, i32 0, i32 8
  %add24.i4597 = call double @_wyvern_slice__Z10test_frameILj2ELb0ELj2048ELb1ELb0EJEEvDpT4_jPKcP13trace_elementd_add24.i40_196998609()
  store double %add24.i4597, ptr %d9.i43, align 8
  %d10.i46 = getelementptr inbounds %struct.LotsOfLiveValues.0, ptr %liveValues_double, i32 0, i32 9
  %add27.i4893 = call double @_wyvern_slice__Z10test_frameILj2ELb0ELj2048ELb1ELb0EJEEvDpT4_jPKcP13trace_elementd_add27.i43_157696020()
  store double %add27.i4893, ptr %d10.i46, align 8
  %d11.i49 = getelementptr inbounds %struct.LotsOfLiveValues.0, ptr %liveValues_double, i32 0, i32 10
  %add30.i5198 = call double @_wyvern_slice__Z10test_frameILj2ELb0ELj2048ELb1ELb0EJEEvDpT4_jPKcP13trace_elementd_add30.i46_642723472()
  store double %add30.i5198, ptr %d11.i49, align 8
  %d1231.i52 = getelementptr inbounds %struct.LotsOfLiveValues.0, ptr %liveValues_double, i32 0, i32 11
  %add34.i5499 = call double @_wyvern_slice__Z10test_frameILj2ELb0ELj2048ELb1ELb0EJEEvDpT4_jPKcP13trace_elementd_add34.i49_384078398()
  store double %add34.i5499, ptr %d1231.i52, align 8
  %d1335.i55 = getelementptr inbounds %struct.LotsOfLiveValues.0, ptr %liveValues_double, i32 0, i32 12
  %add38.i57100 = call double @_wyvern_slice__Z10test_frameILj2ELb0ELj2048ELb1ELb0EJEEvDpT4_jPKcP13trace_elementd_add38.i52_408075486()
  store double %add38.i57100, ptr %d1335.i55, align 8
  %d1439.i58 = getelementptr inbounds %struct.LotsOfLiveValues.0, ptr %liveValues_double, i32 0, i32 13
  %add42.i60101 = call double @_wyvern_slice__Z10test_frameILj2ELb0ELj2048ELb1ELb0EJEEvDpT4_jPKcP13trace_elementd_add42.i55_222632963()
  store double %add42.i60101, ptr %d1439.i58, align 8
  %d15.i61 = getelementptr inbounds %struct.LotsOfLiveValues.0, ptr %liveValues_double, i32 0, i32 14
  %add45.i63102 = call double @_wyvern_slice__Z10test_frameILj2ELb0ELj2048ELb1ELb0EJEEvDpT4_jPKcP13trace_elementd_add45.i58_970821214()
  store double %add45.i63102, ptr %d15.i61, align 8
  %d16.i64 = getelementptr inbounds %struct.LotsOfLiveValues.0, ptr %liveValues_double, i32 0, i32 15
  %add48.i66104 = call double @_wyvern_slice__Z10test_frameILj2ELb0ELj2048ELb1ELb0EJEEvDpT4_jPKcP13trace_elementd_add48.i61_161615902()
  store double %add48.i66104, ptr %d16.i64, align 8
  %d1749.i67 = getelementptr inbounds %struct.LotsOfLiveValues.0, ptr %liveValues_double, i32 0, i32 16
  %add52.i69105 = call double @_wyvern_slice__Z10test_frameILj2ELb0ELj2048ELb1ELb0EJEEvDpT4_jPKcP13trace_elementd_add52.i64_97095800()
  store double %add52.i69105, ptr %d1749.i67, align 8
  %d18.i70 = getelementptr inbounds %struct.LotsOfLiveValues.0, ptr %liveValues_double, i32 0, i32 17
  %add55.i72106 = call double @_wyvern_slice__Z10test_frameILj2ELb0ELj2048ELb1ELb0EJEEvDpT4_jPKcP13trace_elementd_add55.i67_395463972()
  store double %add55.i72106, ptr %d18.i70, align 8
  %d19.i73 = getelementptr inbounds %struct.LotsOfLiveValues.0, ptr %liveValues_double, i32 0, i32 18
  %add58.i75107 = call double @_wyvern_slice__Z10test_frameILj2ELb0ELj2048ELb1ELb0EJEEvDpT4_jPKcP13trace_elementd_add58.i70_535739741()
  store double %add58.i75107, ptr %d19.i73, align 8
  %d20.i76 = getelementptr inbounds %struct.LotsOfLiveValues.0, ptr %liveValues_double, i32 0, i32 19
  %add61.i78108 = call double @_wyvern_slice__Z10test_frameILj2ELb0ELj2048ELb1ELb0EJEEvDpT4_jPKcP13trace_elementd_add61.i73_725737234()
  store double %add61.i78108, ptr %d20.i76, align 8
  %d21.i79 = getelementptr inbounds %struct.LotsOfLiveValues.0, ptr %liveValues_double, i32 0, i32 20
  %add64.i81109 = call double @_wyvern_slice__Z10test_frameILj2ELb0ELj2048ELb1ELb0EJEEvDpT4_jPKcP13trace_elementd_add64.i76_169302242()
  store double %add64.i81109, ptr %d21.i79, align 8
  %d22.i82 = getelementptr inbounds %struct.LotsOfLiveValues.0, ptr %liveValues_double, i32 0, i32 21
  %add67.i84110 = call double @_wyvern_slice__Z10test_frameILj2ELb0ELj2048ELb1ELb0EJEEvDpT4_jPKcP13trace_elementd_add67.i79_680623634()
  store double %add67.i84110, ptr %d22.i82, align 8
  %d23.i85 = getelementptr inbounds %struct.LotsOfLiveValues.0, ptr %liveValues_double, i32 0, i32 22
  %add70.i87111 = call double @_wyvern_slice__Z10test_frameILj2ELb0ELj2048ELb1ELb0EJEEvDpT4_jPKcP13trace_elementd_add70.i82_649348830()
  store double %add70.i87111, ptr %d23.i85, align 8
  %d24.i88 = getelementptr inbounds %struct.LotsOfLiveValues.0, ptr %liveValues_double, i32 0, i32 23
  %add73.i90112 = call double @_wyvern_slice__Z10test_frameILj2ELb0ELj2048ELb1ELb0EJEEvDpT4_jPKcP13trace_elementd_add73.i85_278475279()
  store double %add73.i90112, ptr %d24.i88, align 8
  %d2574.i91 = getelementptr inbounds %struct.LotsOfLiveValues.0, ptr %liveValues_double, i32 0, i32 24
  %add77.i93113 = call double @_wyvern_slice__Z10test_frameILj2ELb0ELj2048ELb1ELb0EJEEvDpT4_jPKcP13trace_elementd_add77.i88_263343217()
  store double %add77.i93113, ptr %d2574.i91, align 8
  %d26.i94 = getelementptr inbounds %struct.LotsOfLiveValues.0, ptr %liveValues_double, i32 0, i32 25
  %add80.i96114 = call double @_wyvern_slice__Z10test_frameILj2ELb0ELj2048ELb1ELb0EJEEvDpT4_jPKcP13trace_elementd_add80.i91_5195837()
  store double %add80.i96114, ptr %d26.i94, align 8
  %d27.i97 = getelementptr inbounds %struct.LotsOfLiveValues.0, ptr %liveValues_double, i32 0, i32 26
  %add83.i99115 = call double @_wyvern_slice__Z10test_frameILj2ELb0ELj2048ELb1ELb0EJEEvDpT4_jPKcP13trace_elementd_add83.i94_333108408()
  store double %add83.i99115, ptr %d27.i97, align 8
  %d28.i100 = getelementptr inbounds %struct.LotsOfLiveValues.0, ptr %liveValues_double, i32 0, i32 27
  %add86.i102116 = call double @_wyvern_slice__Z10test_frameILj2ELb0ELj2048ELb1ELb0EJEEvDpT4_jPKcP13trace_elementd_add86.i97_878325942()
  store double %add86.i102116, ptr %d28.i100, align 8
  %d29.i103 = getelementptr inbounds %struct.LotsOfLiveValues.0, ptr %liveValues_double, i32 0, i32 28
  %add89.i105117 = call double @_wyvern_slice__Z10test_frameILj2ELb0ELj2048ELb1ELb0EJEEvDpT4_jPKcP13trace_elementd_add89.i100_995026150()
  store double %add89.i105117, ptr %d29.i103, align 8
  %d30.i106 = getelementptr inbounds %struct.LotsOfLiveValues.0, ptr %liveValues_double, i32 0, i32 29
  %add92.i108118 = call double @_wyvern_slice__Z10test_frameILj2ELb0ELj2048ELb1ELb0EJEEvDpT4_jPKcP13trace_elementd_add92.i103_714370376()
  store double %add92.i108118, ptr %d30.i106, align 8
  %d31.i109 = getelementptr inbounds %struct.LotsOfLiveValues.0, ptr %liveValues_double, i32 0, i32 30
  %add95.i111119 = call double @_wyvern_slice__Z10test_frameILj2ELb0ELj2048ELb1ELb0EJEEvDpT4_jPKcP13trace_elementd_add95.i106_947008786()
  store double %add95.i111119, ptr %d31.i109, align 8
  %d32.i112 = getelementptr inbounds %struct.LotsOfLiveValues.0, ptr %liveValues_double, i32 0, i32 31
  %add98.i114103 = call double @_wyvern_slice__Z10test_frameILj2ELb0ELj2048ELb1ELb0EJEEvDpT4_jPKcP13trace_elementd_add98.i109_359479818()
  store double %add98.i114103, ptr %d32.i112, align 8
  %d33.i115 = getelementptr inbounds %struct.LotsOfLiveValues.0, ptr %liveValues_double, i32 0, i32 32
  %add101.i117123 = call double @_wyvern_slice__Z10test_frameILj2ELb0ELj2048ELb1ELb0EJEEvDpT4_jPKcP13trace_elementd_add101.i112_89831981()
  store double %add101.i117123, ptr %d33.i115, align 8
  %d34.i118 = getelementptr inbounds %struct.LotsOfLiveValues.0, ptr %liveValues_double, i32 0, i32 33
  %add104.i120124 = call double @_wyvern_slice__Z10test_frameILj2ELb0ELj2048ELb1ELb0EJEEvDpT4_jPKcP13trace_elementd_add104.i115_303427264()
  store double %add104.i120124, ptr %d34.i118, align 8
  %d35.i121 = getelementptr inbounds %struct.LotsOfLiveValues.0, ptr %liveValues_double, i32 0, i32 34
  %add107.i123125 = call double @_wyvern_slice__Z10test_frameILj2ELb0ELj2048ELb1ELb0EJEEvDpT4_jPKcP13trace_elementd_add107.i118_241094378()
  store double %add107.i123125, ptr %d35.i121, align 8
  %d36.i124 = getelementptr inbounds %struct.LotsOfLiveValues.0, ptr %liveValues_double, i32 0, i32 35
  %add110.i126126 = call double @_wyvern_slice__Z10test_frameILj2ELb0ELj2048ELb1ELb0EJEEvDpT4_jPKcP13trace_elementd_add110.i121_876500502()
  store double %add110.i126126, ptr %d36.i124, align 8
  %d37.i127 = getelementptr inbounds %struct.LotsOfLiveValues.0, ptr %liveValues_double, i32 0, i32 36
  %add113.i129127 = call double @_wyvern_slice__Z10test_frameILj2ELb0ELj2048ELb1ELb0EJEEvDpT4_jPKcP13trace_elementd_add113.i124_227393457()
  store double %add113.i129127, ptr %d37.i127, align 8
  %d38114.i130 = getelementptr inbounds %struct.LotsOfLiveValues.0, ptr %liveValues_double, i32 0, i32 37
  %add117.i132128 = call double @_wyvern_slice__Z10test_frameILj2ELb0ELj2048ELb1ELb0EJEEvDpT4_jPKcP13trace_elementd_add117.i127_471695309()
  store double %add117.i132128, ptr %d38114.i130, align 8
  %d39.i133 = getelementptr inbounds %struct.LotsOfLiveValues.0, ptr %liveValues_double, i32 0, i32 38
  %add120.i135129 = call double @_wyvern_slice__Z10test_frameILj2ELb0ELj2048ELb1ELb0EJEEvDpT4_jPKcP13trace_elementd_add120.i130_436310927()
  store double %add120.i135129, ptr %d39.i133, align 8
  store i32 %seed, ptr %liveValues_int, align 4
  %d2.i = getelementptr inbounds %struct.LotsOfLiveValues, ptr %liveValues_int, i32 0, i32 1
  %add.i130 = call i32 @_wyvern_slice__Z11check_tracePKcS0_PK13trace_elementdjbjjbbi_add.i_79638110()
  store i32 %add.i130, ptr %d2.i, align 4
  %d3.i = getelementptr inbounds %struct.LotsOfLiveValues, ptr %liveValues_int, i32 0, i32 2
  %add6.i1 = call i32 @_wyvern_slice__Z11check_tracePKcS0_PK13trace_elementdjbjjbbi_add6.i_725666043()
  store i32 %add6.i1, ptr %d3.i, align 4
  %d4.i = getelementptr inbounds %struct.LotsOfLiveValues, ptr %liveValues_int, i32 0, i32 3
  %add9.i2 = call i32 @_wyvern_slice__Z11check_tracePKcS0_PK13trace_elementdjbjjbbi_add9.i_778015173()
  store i32 %add9.i2, ptr %d4.i, align 4
  %d5.i = getelementptr inbounds %struct.LotsOfLiveValues, ptr %liveValues_int, i32 0, i32 4
  %add12.i3 = call i32 @_wyvern_slice__Z11check_tracePKcS0_PK13trace_elementdjbjjbbi_add12.i_871992298()
  store i32 %add12.i3, ptr %d5.i, align 4
  %d6.i = getelementptr inbounds %struct.LotsOfLiveValues, ptr %liveValues_int, i32 0, i32 5
  %add15.i4 = call i32 @_wyvern_slice__Z11check_tracePKcS0_PK13trace_elementdjbjjbbi_add15.i_699640918()
  store i32 %add15.i4, ptr %d6.i, align 4
  %d7.i = getelementptr inbounds %struct.LotsOfLiveValues, ptr %liveValues_int, i32 0, i32 6
  %add18.i5 = call i32 @_wyvern_slice__Z11check_tracePKcS0_PK13trace_elementdjbjjbbi_add18.i_229401483()
  store i32 %add18.i5, ptr %d7.i, align 4
  %d8.i = getelementptr inbounds %struct.LotsOfLiveValues, ptr %liveValues_int, i32 0, i32 7
  %add21.i6 = call i32 @_wyvern_slice__Z11check_tracePKcS0_PK13trace_elementdjbjjbbi_add21.i_453874021()
  store i32 %add21.i6, ptr %d8.i, align 4
  %d9.i = getelementptr inbounds %struct.LotsOfLiveValues, ptr %liveValues_int, i32 0, i32 8
  %add24.i7 = call i32 @_wyvern_slice__Z11check_tracePKcS0_PK13trace_elementdjbjjbbi_add24.i_379413497()
  store i32 %add24.i7, ptr %d9.i, align 4
  %d10.i = getelementptr inbounds %struct.LotsOfLiveValues, ptr %liveValues_int, i32 0, i32 9
  %add27.i8 = call i32 @_wyvern_slice__Z11check_tracePKcS0_PK13trace_elementdjbjjbbi_add27.i_116684249()
  store i32 %add27.i8, ptr %d10.i, align 4
  %d11.i = getelementptr inbounds %struct.LotsOfLiveValues, ptr %liveValues_int, i32 0, i32 10
  %add30.i9 = call i32 @_wyvern_slice__Z11check_tracePKcS0_PK13trace_elementdjbjjbbi_add30.i_452335753()
  store i32 %add30.i9, ptr %d11.i, align 4
  %d1231.i = getelementptr inbounds %struct.LotsOfLiveValues, ptr %liveValues_int, i32 0, i32 11
  %add34.i10 = call i32 @_wyvern_slice__Z11check_tracePKcS0_PK13trace_elementdjbjjbbi_add34.i_947872048()
  store i32 %add34.i10, ptr %d1231.i, align 4
  %d1335.i = getelementptr inbounds %struct.LotsOfLiveValues, ptr %liveValues_int, i32 0, i32 12
  %add38.i11 = call i32 @_wyvern_slice__Z11check_tracePKcS0_PK13trace_elementdjbjjbbi_add38.i_539862683()
  store i32 %add38.i11, ptr %d1335.i, align 4
  %d1439.i = getelementptr inbounds %struct.LotsOfLiveValues, ptr %liveValues_int, i32 0, i32 13
  %add42.i12 = call i32 @_wyvern_slice__Z11check_tracePKcS0_PK13trace_elementdjbjjbbi_add42.i_14667220()
  store i32 %add42.i12, ptr %d1439.i, align 4
  %d15.i = getelementptr inbounds %struct.LotsOfLiveValues, ptr %liveValues_int, i32 0, i32 14
  %add45.i13 = call i32 @_wyvern_slice__Z11check_tracePKcS0_PK13trace_elementdjbjjbbi_add45.i_54703108()
  store i32 %add45.i13, ptr %d15.i, align 4
  %d16.i = getelementptr inbounds %struct.LotsOfLiveValues, ptr %liveValues_int, i32 0, i32 15
  %add48.i14 = call i32 @_wyvern_slice__Z11check_tracePKcS0_PK13trace_elementdjbjjbbi_add48.i_980930456()
  store i32 %add48.i14, ptr %d16.i, align 4
  %d1749.i = getelementptr inbounds %struct.LotsOfLiveValues, ptr %liveValues_int, i32 0, i32 16
  %add52.i15 = call i32 @_wyvern_slice__Z11check_tracePKcS0_PK13trace_elementdjbjjbbi_add52.i_352864048()
  store i32 %add52.i15, ptr %d1749.i, align 4
  %d18.i = getelementptr inbounds %struct.LotsOfLiveValues, ptr %liveValues_int, i32 0, i32 17
  %add55.i16 = call i32 @_wyvern_slice__Z11check_tracePKcS0_PK13trace_elementdjbjjbbi_add55.i_242678122()
  store i32 %add55.i16, ptr %d18.i, align 4
  %d19.i = getelementptr inbounds %struct.LotsOfLiveValues, ptr %liveValues_int, i32 0, i32 18
  %add58.i17 = call i32 @_wyvern_slice__Z11check_tracePKcS0_PK13trace_elementdjbjjbbi_add58.i_561959204()
  store i32 %add58.i17, ptr %d19.i, align 4
  %d20.i = getelementptr inbounds %struct.LotsOfLiveValues, ptr %liveValues_int, i32 0, i32 19
  %add61.i18 = call i32 @_wyvern_slice__Z11check_tracePKcS0_PK13trace_elementdjbjjbbi_add61.i_793751076()
  store i32 %add61.i18, ptr %d20.i, align 4
  %d21.i = getelementptr inbounds %struct.LotsOfLiveValues, ptr %liveValues_int, i32 0, i32 20
  %add64.i19 = call i32 @_wyvern_slice__Z11check_tracePKcS0_PK13trace_elementdjbjjbbi_add64.i_717717205()
  store i32 %add64.i19, ptr %d21.i, align 4
  %d22.i = getelementptr inbounds %struct.LotsOfLiveValues, ptr %liveValues_int, i32 0, i32 21
  %add67.i20 = call i32 @_wyvern_slice__Z11check_tracePKcS0_PK13trace_elementdjbjjbbi_add67.i_548130757()
  store i32 %add67.i20, ptr %d22.i, align 4
  %d23.i = getelementptr inbounds %struct.LotsOfLiveValues, ptr %liveValues_int, i32 0, i32 22
  %add70.i21 = call i32 @_wyvern_slice__Z11check_tracePKcS0_PK13trace_elementdjbjjbbi_add70.i_402764612()
  store i32 %add70.i21, ptr %d23.i, align 4
  %d24.i = getelementptr inbounds %struct.LotsOfLiveValues, ptr %liveValues_int, i32 0, i32 23
  %add73.i22 = call i32 @_wyvern_slice__Z11check_tracePKcS0_PK13trace_elementdjbjjbbi_add73.i_647489565()
  store i32 %add73.i22, ptr %d24.i, align 4
  %d2574.i = getelementptr inbounds %struct.LotsOfLiveValues, ptr %liveValues_int, i32 0, i32 24
  %add77.i23 = call i32 @_wyvern_slice__Z11check_tracePKcS0_PK13trace_elementdjbjjbbi_add77.i_762575852()
  store i32 %add77.i23, ptr %d2574.i, align 4
  %d26.i = getelementptr inbounds %struct.LotsOfLiveValues, ptr %liveValues_int, i32 0, i32 25
  %add80.i120 = call i32 @_wyvern_slice__Z11check_tracePKcS0_PK13trace_elementdjbjjbbi_add80.i_276811972()
  store i32 %add80.i120, ptr %d26.i, align 4
  %d27.i = getelementptr inbounds %struct.LotsOfLiveValues, ptr %liveValues_int, i32 0, i32 26
  %add83.i121 = call i32 @_wyvern_slice__Z11check_tracePKcS0_PK13trace_elementdjbjjbbi_add83.i_441878893()
  store i32 %add83.i121, ptr %d27.i, align 4
  %d28.i = getelementptr inbounds %struct.LotsOfLiveValues, ptr %liveValues_int, i32 0, i32 27
  %add86.i122 = call i32 @_wyvern_slice__Z11check_tracePKcS0_PK13trace_elementdjbjjbbi_add86.i_379141477()
  store i32 %add86.i122, ptr %d28.i, align 4
  %d29.i = getelementptr inbounds %struct.LotsOfLiveValues, ptr %liveValues_int, i32 0, i32 28
  %add89.i37 = call i32 @_wyvern_slice__Z11check_tracePKcS0_PK13trace_elementdjbjjbbi_add89.i_957463967()
  store i32 %add89.i37, ptr %d29.i, align 4
  %d30.i = getelementptr inbounds %struct.LotsOfLiveValues, ptr %liveValues_int, i32 0, i32 29
  %add92.i38 = call i32 @_wyvern_slice__Z11check_tracePKcS0_PK13trace_elementdjbjjbbi_add92.i_189182820()
  store i32 %add92.i38, ptr %d30.i, align 4
  %d31.i = getelementptr inbounds %struct.LotsOfLiveValues, ptr %liveValues_int, i32 0, i32 30
  %add95.i39 = call i32 @_wyvern_slice__Z11check_tracePKcS0_PK13trace_elementdjbjjbbi_add95.i_246433034()
  store i32 %add95.i39, ptr %d31.i, align 4
  %d32.i = getelementptr inbounds %struct.LotsOfLiveValues, ptr %liveValues_int, i32 0, i32 31
  %add98.i40 = call i32 @_wyvern_slice__Z11check_tracePKcS0_PK13trace_elementdjbjjbbi_add98.i_416170815()
  store i32 %add98.i40, ptr %d32.i, align 4
  %d33.i = getelementptr inbounds %struct.LotsOfLiveValues, ptr %liveValues_int, i32 0, i32 32
  %add101.i41 = call i32 @_wyvern_slice__Z11check_tracePKcS0_PK13trace_elementdjbjjbbi_add101.i_123092476()
  store i32 %add101.i41, ptr %d33.i, align 4
  %d34.i = getelementptr inbounds %struct.LotsOfLiveValues, ptr %liveValues_int, i32 0, i32 33
  %add104.i42 = call i32 @_wyvern_slice__Z11check_tracePKcS0_PK13trace_elementdjbjjbbi_add104.i_776359929()
  store i32 %add104.i42, ptr %d34.i, align 4
  %d35.i = getelementptr inbounds %struct.LotsOfLiveValues, ptr %liveValues_int, i32 0, i32 34
  %add107.i43 = call i32 @_wyvern_slice__Z11check_tracePKcS0_PK13trace_elementdjbjjbbi_add107.i_252932971()
  store i32 %add107.i43, ptr %d35.i, align 4
  %d36.i = getelementptr inbounds %struct.LotsOfLiveValues, ptr %liveValues_int, i32 0, i32 35
  %add110.i44 = call i32 @_wyvern_slice__Z11check_tracePKcS0_PK13trace_elementdjbjjbbi_add110.i_340675789()
  store i32 %add110.i44, ptr %d36.i, align 4
  %d37.i = getelementptr inbounds %struct.LotsOfLiveValues, ptr %liveValues_int, i32 0, i32 36
  %add113.i45 = call i32 @_wyvern_slice__Z11check_tracePKcS0_PK13trace_elementdjbjjbbi_add113.i_426944689()
  store i32 %add113.i45, ptr %d37.i, align 4
  %d38114.i = getelementptr inbounds %struct.LotsOfLiveValues, ptr %liveValues_int, i32 0, i32 37
  %add117.i46 = call i32 @_wyvern_slice__Z11check_tracePKcS0_PK13trace_elementdjbjjbbi_add117.i_990889366()
  store i32 %add117.i46, ptr %d38114.i, align 4
  %d39.i = getelementptr inbounds %struct.LotsOfLiveValues, ptr %liveValues_int, i32 0, i32 38
  %add120.i47 = call i32 @_wyvern_slice__Z11check_tracePKcS0_PK13trace_elementdjbjjbbi_add120.i_5187494()
  store i32 %add120.i47, ptr %d39.i, align 4
  %add26 = call double @_wyvern_slice__Z19check_frame_variantILb0ELb0ELb0ELb0ELb0EEbiRVi_add_252228540()
  %arraydecay = getelementptr inbounds [100 x %union.trace_element], ptr %trace, i64 0, i64 0
  invoke void @_Z10test_frameILj2ELb1ELj2048ELb0ELb0EJEEvDpT4_jPKcP13trace_elementd(i32 noundef 100, ptr noundef @.str.35, ptr noundef %arraydecay, double noundef %add26)
          to label %invoke.cont5 unwind label %lpad4

invoke.cont5:                                     ; preds = %entry
  %add12233 = call i32 @_wyvern_slice__Z19check_frame_variantILb0ELb0ELb0ELb0ELb0EEbiRVi_add12_539135297(ptr %dumping_ground)
  store volatile i32 %add12233, ptr %dumping_ground, align 4
  br label %try.cont

lpad:                                             ; preds = %try.cont
  %0 = landingpad { ptr, i32 }
          cleanup
  %1 = extractvalue { ptr, i32 } %0, 0
  %2 = extractvalue { ptr, i32 } %0, 1
  br label %ehcleanup

lpad4:                                            ; preds = %entry
  %3 = landingpad { ptr, i32 }
          cleanup
          catch ptr @_ZTIi
  %4 = extractvalue { ptr, i32 } %3, 0
  %5 = extractvalue { ptr, i32 } %3, 1
  %6 = call i32 @llvm.eh.typeid.for(ptr @_ZTIi) #4
  %matches = icmp eq i32 %5, %6
  br i1 %matches, label %catch, label %ehcleanup

catch:                                            ; preds = %lpad4
  %7 = call ptr @__cxa_begin_catch(ptr %4) #4
  %8 = load i32, ptr %7, align 4
  call void @__cxa_end_catch() #4
  br label %try.cont

try.cont:                                         ; preds = %catch, %invoke.cont5
  %exception_value.0 = phi i32 [ -1, %invoke.cont5 ], [ %8, %catch ]
  %call13 = call noundef ptr @_ZNKSt7__cxx1112basic_stringIcSt11char_traitsIcESaIcEE5c_strEv(ptr noundef nonnull align 8 dereferenceable(32) %test_description) #4
  %arraydecay14 = getelementptr inbounds [100 x %union.trace_element], ptr %trace, i64 0, i64 0
  %call16 = invoke noundef zeroext i1 @_Z11check_tracePKcS0_PK13trace_elementdjbjjbbi(ptr noundef %call13, ptr noundef @.str.35, ptr noundef %arraydecay14, double noundef %add26, i32 noundef 2, i1 noundef zeroext true, i32 noundef 100, i32 noundef 2048, i1 noundef zeroext false, i1 noundef zeroext false, i32 noundef %exception_value.0)
          to label %invoke.cont15 unwind label %lpad

invoke.cont15:                                    ; preds = %try.cont
  call void @_ZNSt7__cxx1112basic_stringIcSt11char_traitsIcESaIcEED1Ev(ptr noundef nonnull align 8 dereferenceable(32) %test_description) #4
  ret i1 %call16

ehcleanup:                                        ; preds = %lpad4, %lpad
  %exn.slot.0 = phi ptr [ %1, %lpad ], [ %4, %lpad4 ]
  %ehselector.slot.0 = phi i32 [ %2, %lpad ], [ %5, %lpad4 ]
  call void @_ZNSt7__cxx1112basic_stringIcSt11char_traitsIcESaIcEED1Ev(ptr noundef nonnull align 8 dereferenceable(32) %test_description) #4
  %lpad.val = insertvalue { ptr, i32 } poison, ptr %exn.slot.0, 0
  %lpad.val19 = insertvalue { ptr, i32 } %lpad.val, i32 %ehselector.slot.0, 1
  resume { ptr, i32 } %lpad.val19
}

; Function Attrs: noinline uwtable
define linkonce_odr dso_local noundef zeroext i1 @_Z19check_frame_variantILb1ELb0ELb1ELb0ELb0EEbiRVi(i32 noundef %seed, ptr noundef nonnull align 4 dereferenceable(4) %dumping_ground) #0 comdat personality ptr @__gxx_personality_v0 {
entry:
  %trace = alloca [100 x %union.trace_element], align 16
  %test_description = alloca %"class.std::__cxx11::basic_string", align 8
  %liveValues_double = alloca %struct.LotsOfLiveValues.0, align 8
  %liveValues_int = alloca %struct.LotsOfLiveValues, align 4
  call void @_Z24getTestDescriptionStringB5cxx11bbbbb(ptr sret(%"class.std::__cxx11::basic_string") align 8 %test_description, i1 noundef zeroext true, i1 noundef zeroext false, i1 noundef zeroext true, i1 noundef zeroext false, i1 noundef zeroext false)
  %conv = sitofp i32 %seed to double
  store double %conv, ptr %liveValues_double, align 8
  %d2.i23 = getelementptr inbounds %struct.LotsOfLiveValues.0, ptr %liveValues_double, i32 0, i32 1
  %add.i242 = call double @_wyvern_slice__Z10test_frameILj2ELb0ELj2048ELb1ELb0EJEEvDpT4_jPKcP13trace_elementd_add.i19_192950886()
  store double %add.i242, ptr %d2.i23, align 8
  %d3.i25 = getelementptr inbounds %struct.LotsOfLiveValues.0, ptr %liveValues_double, i32 0, i32 2
  %add6.i271 = call double @_wyvern_slice__Z10test_frameILj2ELb0ELj2048ELb1ELb0EJEEvDpT4_jPKcP13trace_elementd_add6.i22_294959648()
  store double %add6.i271, ptr %d3.i25, align 8
  %d4.i28 = getelementptr inbounds %struct.LotsOfLiveValues.0, ptr %liveValues_double, i32 0, i32 3
  %add9.i303 = call double @_wyvern_slice__Z10test_frameILj2ELb0ELj2048ELb1ELb0EJEEvDpT4_jPKcP13trace_elementd_add9.i25_957574556()
  store double %add9.i303, ptr %d4.i28, align 8
  %d5.i31 = getelementptr inbounds %struct.LotsOfLiveValues.0, ptr %liveValues_double, i32 0, i32 4
  %add12.i334 = call double @_wyvern_slice__Z10test_frameILj2ELb0ELj2048ELb1ELb0EJEEvDpT4_jPKcP13trace_elementd_add12.i28_450856346()
  store double %add12.i334, ptr %d5.i31, align 8
  %d6.i34 = getelementptr inbounds %struct.LotsOfLiveValues.0, ptr %liveValues_double, i32 0, i32 5
  %add15.i366 = call double @_wyvern_slice__Z10test_frameILj2ELb0ELj2048ELb1ELb0EJEEvDpT4_jPKcP13trace_elementd_add15.i31_616743252()
  store double %add15.i366, ptr %d6.i34, align 8
  %d7.i37 = getelementptr inbounds %struct.LotsOfLiveValues.0, ptr %liveValues_double, i32 0, i32 6
  %add18.i397 = call double @_wyvern_slice__Z10test_frameILj2ELb0ELj2048ELb1ELb0EJEEvDpT4_jPKcP13trace_elementd_add18.i34_570002413()
  store double %add18.i397, ptr %d7.i37, align 8
  %d8.i40 = getelementptr inbounds %struct.LotsOfLiveValues.0, ptr %liveValues_double, i32 0, i32 7
  %add21.i428 = call double @_wyvern_slice__Z10test_frameILj2ELb0ELj2048ELb1ELb0EJEEvDpT4_jPKcP13trace_elementd_add21.i37_365101202()
  store double %add21.i428, ptr %d8.i40, align 8
  %d9.i43 = getelementptr inbounds %struct.LotsOfLiveValues.0, ptr %liveValues_double, i32 0, i32 8
  %add24.i459 = call double @_wyvern_slice__Z10test_frameILj2ELb0ELj2048ELb1ELb0EJEEvDpT4_jPKcP13trace_elementd_add24.i40_196998609()
  store double %add24.i459, ptr %d9.i43, align 8
  %d10.i46 = getelementptr inbounds %struct.LotsOfLiveValues.0, ptr %liveValues_double, i32 0, i32 9
  %add27.i485 = call double @_wyvern_slice__Z10test_frameILj2ELb0ELj2048ELb1ELb0EJEEvDpT4_jPKcP13trace_elementd_add27.i43_157696020()
  store double %add27.i485, ptr %d10.i46, align 8
  %d11.i49 = getelementptr inbounds %struct.LotsOfLiveValues.0, ptr %liveValues_double, i32 0, i32 10
  %add30.i5110 = call double @_wyvern_slice__Z10test_frameILj2ELb0ELj2048ELb1ELb0EJEEvDpT4_jPKcP13trace_elementd_add30.i46_642723472()
  store double %add30.i5110, ptr %d11.i49, align 8
  %d1231.i52 = getelementptr inbounds %struct.LotsOfLiveValues.0, ptr %liveValues_double, i32 0, i32 11
  %add34.i5411 = call double @_wyvern_slice__Z10test_frameILj2ELb0ELj2048ELb1ELb0EJEEvDpT4_jPKcP13trace_elementd_add34.i49_384078398()
  store double %add34.i5411, ptr %d1231.i52, align 8
  %d1335.i55 = getelementptr inbounds %struct.LotsOfLiveValues.0, ptr %liveValues_double, i32 0, i32 12
  %add38.i5712 = call double @_wyvern_slice__Z10test_frameILj2ELb0ELj2048ELb1ELb0EJEEvDpT4_jPKcP13trace_elementd_add38.i52_408075486()
  store double %add38.i5712, ptr %d1335.i55, align 8
  %d1439.i58 = getelementptr inbounds %struct.LotsOfLiveValues.0, ptr %liveValues_double, i32 0, i32 13
  %add42.i6013 = call double @_wyvern_slice__Z10test_frameILj2ELb0ELj2048ELb1ELb0EJEEvDpT4_jPKcP13trace_elementd_add42.i55_222632963()
  store double %add42.i6013, ptr %d1439.i58, align 8
  %d15.i61 = getelementptr inbounds %struct.LotsOfLiveValues.0, ptr %liveValues_double, i32 0, i32 14
  %add45.i6314 = call double @_wyvern_slice__Z10test_frameILj2ELb0ELj2048ELb1ELb0EJEEvDpT4_jPKcP13trace_elementd_add45.i58_970821214()
  store double %add45.i6314, ptr %d15.i61, align 8
  %d16.i64 = getelementptr inbounds %struct.LotsOfLiveValues.0, ptr %liveValues_double, i32 0, i32 15
  %add48.i6616 = call double @_wyvern_slice__Z10test_frameILj2ELb0ELj2048ELb1ELb0EJEEvDpT4_jPKcP13trace_elementd_add48.i61_161615902()
  store double %add48.i6616, ptr %d16.i64, align 8
  %d1749.i67 = getelementptr inbounds %struct.LotsOfLiveValues.0, ptr %liveValues_double, i32 0, i32 16
  %add52.i6917 = call double @_wyvern_slice__Z10test_frameILj2ELb0ELj2048ELb1ELb0EJEEvDpT4_jPKcP13trace_elementd_add52.i64_97095800()
  store double %add52.i6917, ptr %d1749.i67, align 8
  %d18.i70 = getelementptr inbounds %struct.LotsOfLiveValues.0, ptr %liveValues_double, i32 0, i32 17
  %add55.i7218 = call double @_wyvern_slice__Z10test_frameILj2ELb0ELj2048ELb1ELb0EJEEvDpT4_jPKcP13trace_elementd_add55.i67_395463972()
  store double %add55.i7218, ptr %d18.i70, align 8
  %d19.i73 = getelementptr inbounds %struct.LotsOfLiveValues.0, ptr %liveValues_double, i32 0, i32 18
  %add58.i7519 = call double @_wyvern_slice__Z10test_frameILj2ELb0ELj2048ELb1ELb0EJEEvDpT4_jPKcP13trace_elementd_add58.i70_535739741()
  store double %add58.i7519, ptr %d19.i73, align 8
  %d20.i76 = getelementptr inbounds %struct.LotsOfLiveValues.0, ptr %liveValues_double, i32 0, i32 19
  %add61.i7820 = call double @_wyvern_slice__Z10test_frameILj2ELb0ELj2048ELb1ELb0EJEEvDpT4_jPKcP13trace_elementd_add61.i73_725737234()
  store double %add61.i7820, ptr %d20.i76, align 8
  %d21.i79 = getelementptr inbounds %struct.LotsOfLiveValues.0, ptr %liveValues_double, i32 0, i32 20
  %add64.i8121 = call double @_wyvern_slice__Z10test_frameILj2ELb0ELj2048ELb1ELb0EJEEvDpT4_jPKcP13trace_elementd_add64.i76_169302242()
  store double %add64.i8121, ptr %d21.i79, align 8
  %d22.i82 = getelementptr inbounds %struct.LotsOfLiveValues.0, ptr %liveValues_double, i32 0, i32 21
  %add67.i8422 = call double @_wyvern_slice__Z10test_frameILj2ELb0ELj2048ELb1ELb0EJEEvDpT4_jPKcP13trace_elementd_add67.i79_680623634()
  store double %add67.i8422, ptr %d22.i82, align 8
  %d23.i85 = getelementptr inbounds %struct.LotsOfLiveValues.0, ptr %liveValues_double, i32 0, i32 22
  %add70.i8723 = call double @_wyvern_slice__Z10test_frameILj2ELb0ELj2048ELb1ELb0EJEEvDpT4_jPKcP13trace_elementd_add70.i82_649348830()
  store double %add70.i8723, ptr %d23.i85, align 8
  %d24.i88 = getelementptr inbounds %struct.LotsOfLiveValues.0, ptr %liveValues_double, i32 0, i32 23
  %add73.i9024 = call double @_wyvern_slice__Z10test_frameILj2ELb0ELj2048ELb1ELb0EJEEvDpT4_jPKcP13trace_elementd_add73.i85_278475279()
  store double %add73.i9024, ptr %d24.i88, align 8
  %d2574.i91 = getelementptr inbounds %struct.LotsOfLiveValues.0, ptr %liveValues_double, i32 0, i32 24
  %add77.i9325 = call double @_wyvern_slice__Z10test_frameILj2ELb0ELj2048ELb1ELb0EJEEvDpT4_jPKcP13trace_elementd_add77.i88_263343217()
  store double %add77.i9325, ptr %d2574.i91, align 8
  %d26.i94 = getelementptr inbounds %struct.LotsOfLiveValues.0, ptr %liveValues_double, i32 0, i32 25
  %add80.i9626 = call double @_wyvern_slice__Z10test_frameILj2ELb0ELj2048ELb1ELb0EJEEvDpT4_jPKcP13trace_elementd_add80.i91_5195837()
  store double %add80.i9626, ptr %d26.i94, align 8
  %d27.i97 = getelementptr inbounds %struct.LotsOfLiveValues.0, ptr %liveValues_double, i32 0, i32 26
  %add83.i9927 = call double @_wyvern_slice__Z10test_frameILj2ELb0ELj2048ELb1ELb0EJEEvDpT4_jPKcP13trace_elementd_add83.i94_333108408()
  store double %add83.i9927, ptr %d27.i97, align 8
  %d28.i100 = getelementptr inbounds %struct.LotsOfLiveValues.0, ptr %liveValues_double, i32 0, i32 27
  %add86.i10228 = call double @_wyvern_slice__Z10test_frameILj2ELb0ELj2048ELb1ELb0EJEEvDpT4_jPKcP13trace_elementd_add86.i97_878325942()
  store double %add86.i10228, ptr %d28.i100, align 8
  %d29.i103 = getelementptr inbounds %struct.LotsOfLiveValues.0, ptr %liveValues_double, i32 0, i32 28
  %add89.i10529 = call double @_wyvern_slice__Z10test_frameILj2ELb0ELj2048ELb1ELb0EJEEvDpT4_jPKcP13trace_elementd_add89.i100_995026150()
  store double %add89.i10529, ptr %d29.i103, align 8
  %d30.i106 = getelementptr inbounds %struct.LotsOfLiveValues.0, ptr %liveValues_double, i32 0, i32 29
  %add92.i10830 = call double @_wyvern_slice__Z10test_frameILj2ELb0ELj2048ELb1ELb0EJEEvDpT4_jPKcP13trace_elementd_add92.i103_714370376()
  store double %add92.i10830, ptr %d30.i106, align 8
  %d31.i109 = getelementptr inbounds %struct.LotsOfLiveValues.0, ptr %liveValues_double, i32 0, i32 30
  %add95.i11131 = call double @_wyvern_slice__Z10test_frameILj2ELb0ELj2048ELb1ELb0EJEEvDpT4_jPKcP13trace_elementd_add95.i106_947008786()
  store double %add95.i11131, ptr %d31.i109, align 8
  %d32.i112 = getelementptr inbounds %struct.LotsOfLiveValues.0, ptr %liveValues_double, i32 0, i32 31
  %add98.i11415 = call double @_wyvern_slice__Z10test_frameILj2ELb0ELj2048ELb1ELb0EJEEvDpT4_jPKcP13trace_elementd_add98.i109_359479818()
  store double %add98.i11415, ptr %d32.i112, align 8
  %d33.i115 = getelementptr inbounds %struct.LotsOfLiveValues.0, ptr %liveValues_double, i32 0, i32 32
  %add101.i11735 = call double @_wyvern_slice__Z10test_frameILj2ELb0ELj2048ELb1ELb0EJEEvDpT4_jPKcP13trace_elementd_add101.i112_89831981()
  store double %add101.i11735, ptr %d33.i115, align 8
  %d34.i118 = getelementptr inbounds %struct.LotsOfLiveValues.0, ptr %liveValues_double, i32 0, i32 33
  %add104.i12036 = call double @_wyvern_slice__Z10test_frameILj2ELb0ELj2048ELb1ELb0EJEEvDpT4_jPKcP13trace_elementd_add104.i115_303427264()
  store double %add104.i12036, ptr %d34.i118, align 8
  %d35.i121 = getelementptr inbounds %struct.LotsOfLiveValues.0, ptr %liveValues_double, i32 0, i32 34
  %add107.i12337 = call double @_wyvern_slice__Z10test_frameILj2ELb0ELj2048ELb1ELb0EJEEvDpT4_jPKcP13trace_elementd_add107.i118_241094378()
  store double %add107.i12337, ptr %d35.i121, align 8
  %d36.i124 = getelementptr inbounds %struct.LotsOfLiveValues.0, ptr %liveValues_double, i32 0, i32 35
  %add110.i12638 = call double @_wyvern_slice__Z10test_frameILj2ELb0ELj2048ELb1ELb0EJEEvDpT4_jPKcP13trace_elementd_add110.i121_876500502()
  store double %add110.i12638, ptr %d36.i124, align 8
  %d37.i127 = getelementptr inbounds %struct.LotsOfLiveValues.0, ptr %liveValues_double, i32 0, i32 36
  %add113.i12939 = call double @_wyvern_slice__Z10test_frameILj2ELb0ELj2048ELb1ELb0EJEEvDpT4_jPKcP13trace_elementd_add113.i124_227393457()
  store double %add113.i12939, ptr %d37.i127, align 8
  %d38114.i130 = getelementptr inbounds %struct.LotsOfLiveValues.0, ptr %liveValues_double, i32 0, i32 37
  %add117.i13240 = call double @_wyvern_slice__Z10test_frameILj2ELb0ELj2048ELb1ELb0EJEEvDpT4_jPKcP13trace_elementd_add117.i127_471695309()
  store double %add117.i13240, ptr %d38114.i130, align 8
  %d39.i133 = getelementptr inbounds %struct.LotsOfLiveValues.0, ptr %liveValues_double, i32 0, i32 38
  %add120.i13541 = call double @_wyvern_slice__Z10test_frameILj2ELb0ELj2048ELb1ELb0EJEEvDpT4_jPKcP13trace_elementd_add120.i130_436310927()
  store double %add120.i13541, ptr %d39.i133, align 8
  store i32 %seed, ptr %liveValues_int, align 4
  %d2.i = getelementptr inbounds %struct.LotsOfLiveValues, ptr %liveValues_int, i32 0, i32 1
  %add.i42 = call i32 @_wyvern_slice__Z11check_tracePKcS0_PK13trace_elementdjbjjbbi_add.i_79638110()
  store i32 %add.i42, ptr %d2.i, align 4
  %d3.i = getelementptr inbounds %struct.LotsOfLiveValues, ptr %liveValues_int, i32 0, i32 2
  %add6.i43 = call i32 @_wyvern_slice__Z11check_tracePKcS0_PK13trace_elementdjbjjbbi_add6.i_725666043()
  store i32 %add6.i43, ptr %d3.i, align 4
  %d4.i = getelementptr inbounds %struct.LotsOfLiveValues, ptr %liveValues_int, i32 0, i32 3
  %add9.i44 = call i32 @_wyvern_slice__Z11check_tracePKcS0_PK13trace_elementdjbjjbbi_add9.i_778015173()
  store i32 %add9.i44, ptr %d4.i, align 4
  %d5.i = getelementptr inbounds %struct.LotsOfLiveValues, ptr %liveValues_int, i32 0, i32 4
  %add12.i45 = call i32 @_wyvern_slice__Z11check_tracePKcS0_PK13trace_elementdjbjjbbi_add12.i_871992298()
  store i32 %add12.i45, ptr %d5.i, align 4
  %d6.i = getelementptr inbounds %struct.LotsOfLiveValues, ptr %liveValues_int, i32 0, i32 5
  %add15.i46 = call i32 @_wyvern_slice__Z11check_tracePKcS0_PK13trace_elementdjbjjbbi_add15.i_699640918()
  store i32 %add15.i46, ptr %d6.i, align 4
  %d7.i = getelementptr inbounds %struct.LotsOfLiveValues, ptr %liveValues_int, i32 0, i32 6
  %add18.i47 = call i32 @_wyvern_slice__Z11check_tracePKcS0_PK13trace_elementdjbjjbbi_add18.i_229401483()
  store i32 %add18.i47, ptr %d7.i, align 4
  %d8.i = getelementptr inbounds %struct.LotsOfLiveValues, ptr %liveValues_int, i32 0, i32 7
  %add21.i48 = call i32 @_wyvern_slice__Z11check_tracePKcS0_PK13trace_elementdjbjjbbi_add21.i_453874021()
  store i32 %add21.i48, ptr %d8.i, align 4
  %d9.i = getelementptr inbounds %struct.LotsOfLiveValues, ptr %liveValues_int, i32 0, i32 8
  %add24.i49 = call i32 @_wyvern_slice__Z11check_tracePKcS0_PK13trace_elementdjbjjbbi_add24.i_379413497()
  store i32 %add24.i49, ptr %d9.i, align 4
  %d10.i = getelementptr inbounds %struct.LotsOfLiveValues, ptr %liveValues_int, i32 0, i32 9
  %add27.i50 = call i32 @_wyvern_slice__Z11check_tracePKcS0_PK13trace_elementdjbjjbbi_add27.i_116684249()
  store i32 %add27.i50, ptr %d10.i, align 4
  %d11.i = getelementptr inbounds %struct.LotsOfLiveValues, ptr %liveValues_int, i32 0, i32 10
  %add30.i52 = call i32 @_wyvern_slice__Z11check_tracePKcS0_PK13trace_elementdjbjjbbi_add30.i_452335753()
  store i32 %add30.i52, ptr %d11.i, align 4
  %d1231.i = getelementptr inbounds %struct.LotsOfLiveValues, ptr %liveValues_int, i32 0, i32 11
  %add34.i53 = call i32 @_wyvern_slice__Z11check_tracePKcS0_PK13trace_elementdjbjjbbi_add34.i_947872048()
  store i32 %add34.i53, ptr %d1231.i, align 4
  %d1335.i = getelementptr inbounds %struct.LotsOfLiveValues, ptr %liveValues_int, i32 0, i32 12
  %add38.i54 = call i32 @_wyvern_slice__Z11check_tracePKcS0_PK13trace_elementdjbjjbbi_add38.i_539862683()
  store i32 %add38.i54, ptr %d1335.i, align 4
  %d1439.i = getelementptr inbounds %struct.LotsOfLiveValues, ptr %liveValues_int, i32 0, i32 13
  %add42.i55 = call i32 @_wyvern_slice__Z11check_tracePKcS0_PK13trace_elementdjbjjbbi_add42.i_14667220()
  store i32 %add42.i55, ptr %d1439.i, align 4
  %d15.i = getelementptr inbounds %struct.LotsOfLiveValues, ptr %liveValues_int, i32 0, i32 14
  %add45.i56 = call i32 @_wyvern_slice__Z11check_tracePKcS0_PK13trace_elementdjbjjbbi_add45.i_54703108()
  store i32 %add45.i56, ptr %d15.i, align 4
  %d16.i = getelementptr inbounds %struct.LotsOfLiveValues, ptr %liveValues_int, i32 0, i32 15
  %add48.i57 = call i32 @_wyvern_slice__Z11check_tracePKcS0_PK13trace_elementdjbjjbbi_add48.i_980930456()
  store i32 %add48.i57, ptr %d16.i, align 4
  %d1749.i = getelementptr inbounds %struct.LotsOfLiveValues, ptr %liveValues_int, i32 0, i32 16
  %add52.i58 = call i32 @_wyvern_slice__Z11check_tracePKcS0_PK13trace_elementdjbjjbbi_add52.i_352864048()
  store i32 %add52.i58, ptr %d1749.i, align 4
  %d18.i = getelementptr inbounds %struct.LotsOfLiveValues, ptr %liveValues_int, i32 0, i32 17
  %add55.i59 = call i32 @_wyvern_slice__Z11check_tracePKcS0_PK13trace_elementdjbjjbbi_add55.i_242678122()
  store i32 %add55.i59, ptr %d18.i, align 4
  %d19.i = getelementptr inbounds %struct.LotsOfLiveValues, ptr %liveValues_int, i32 0, i32 18
  %add58.i60 = call i32 @_wyvern_slice__Z11check_tracePKcS0_PK13trace_elementdjbjjbbi_add58.i_561959204()
  store i32 %add58.i60, ptr %d19.i, align 4
  %d20.i = getelementptr inbounds %struct.LotsOfLiveValues, ptr %liveValues_int, i32 0, i32 19
  %add61.i61 = call i32 @_wyvern_slice__Z11check_tracePKcS0_PK13trace_elementdjbjjbbi_add61.i_793751076()
  store i32 %add61.i61, ptr %d20.i, align 4
  %d21.i = getelementptr inbounds %struct.LotsOfLiveValues, ptr %liveValues_int, i32 0, i32 20
  %add64.i62 = call i32 @_wyvern_slice__Z11check_tracePKcS0_PK13trace_elementdjbjjbbi_add64.i_717717205()
  store i32 %add64.i62, ptr %d21.i, align 4
  %d22.i = getelementptr inbounds %struct.LotsOfLiveValues, ptr %liveValues_int, i32 0, i32 21
  %add67.i63 = call i32 @_wyvern_slice__Z11check_tracePKcS0_PK13trace_elementdjbjjbbi_add67.i_548130757()
  store i32 %add67.i63, ptr %d22.i, align 4
  %d23.i = getelementptr inbounds %struct.LotsOfLiveValues, ptr %liveValues_int, i32 0, i32 22
  %add70.i64 = call i32 @_wyvern_slice__Z11check_tracePKcS0_PK13trace_elementdjbjjbbi_add70.i_402764612()
  store i32 %add70.i64, ptr %d23.i, align 4
  %d24.i = getelementptr inbounds %struct.LotsOfLiveValues, ptr %liveValues_int, i32 0, i32 23
  %add73.i65 = call i32 @_wyvern_slice__Z11check_tracePKcS0_PK13trace_elementdjbjjbbi_add73.i_647489565()
  store i32 %add73.i65, ptr %d24.i, align 4
  %d2574.i = getelementptr inbounds %struct.LotsOfLiveValues, ptr %liveValues_int, i32 0, i32 24
  %add77.i66 = call i32 @_wyvern_slice__Z11check_tracePKcS0_PK13trace_elementdjbjjbbi_add77.i_762575852()
  store i32 %add77.i66, ptr %d2574.i, align 4
  %d26.i = getelementptr inbounds %struct.LotsOfLiveValues, ptr %liveValues_int, i32 0, i32 25
  %add80.i32 = call i32 @_wyvern_slice__Z11check_tracePKcS0_PK13trace_elementdjbjjbbi_add80.i_276811972()
  store i32 %add80.i32, ptr %d26.i, align 4
  %d27.i = getelementptr inbounds %struct.LotsOfLiveValues, ptr %liveValues_int, i32 0, i32 26
  %add83.i33 = call i32 @_wyvern_slice__Z11check_tracePKcS0_PK13trace_elementdjbjjbbi_add83.i_441878893()
  store i32 %add83.i33, ptr %d27.i, align 4
  %d28.i = getelementptr inbounds %struct.LotsOfLiveValues, ptr %liveValues_int, i32 0, i32 27
  %add86.i34 = call i32 @_wyvern_slice__Z11check_tracePKcS0_PK13trace_elementdjbjjbbi_add86.i_379141477()
  store i32 %add86.i34, ptr %d28.i, align 4
  %d29.i = getelementptr inbounds %struct.LotsOfLiveValues, ptr %liveValues_int, i32 0, i32 28
  %add89.i80 = call i32 @_wyvern_slice__Z11check_tracePKcS0_PK13trace_elementdjbjjbbi_add89.i_957463967()
  store i32 %add89.i80, ptr %d29.i, align 4
  %d30.i = getelementptr inbounds %struct.LotsOfLiveValues, ptr %liveValues_int, i32 0, i32 29
  %add92.i81 = call i32 @_wyvern_slice__Z11check_tracePKcS0_PK13trace_elementdjbjjbbi_add92.i_189182820()
  store i32 %add92.i81, ptr %d30.i, align 4
  %d31.i = getelementptr inbounds %struct.LotsOfLiveValues, ptr %liveValues_int, i32 0, i32 30
  %add95.i82 = call i32 @_wyvern_slice__Z11check_tracePKcS0_PK13trace_elementdjbjjbbi_add95.i_246433034()
  store i32 %add95.i82, ptr %d31.i, align 4
  %d32.i = getelementptr inbounds %struct.LotsOfLiveValues, ptr %liveValues_int, i32 0, i32 31
  %add98.i83 = call i32 @_wyvern_slice__Z11check_tracePKcS0_PK13trace_elementdjbjjbbi_add98.i_416170815()
  store i32 %add98.i83, ptr %d32.i, align 4
  %d33.i = getelementptr inbounds %struct.LotsOfLiveValues, ptr %liveValues_int, i32 0, i32 32
  %add101.i84 = call i32 @_wyvern_slice__Z11check_tracePKcS0_PK13trace_elementdjbjjbbi_add101.i_123092476()
  store i32 %add101.i84, ptr %d33.i, align 4
  %d34.i = getelementptr inbounds %struct.LotsOfLiveValues, ptr %liveValues_int, i32 0, i32 33
  %add104.i85 = call i32 @_wyvern_slice__Z11check_tracePKcS0_PK13trace_elementdjbjjbbi_add104.i_776359929()
  store i32 %add104.i85, ptr %d34.i, align 4
  %d35.i = getelementptr inbounds %struct.LotsOfLiveValues, ptr %liveValues_int, i32 0, i32 34
  %add107.i86 = call i32 @_wyvern_slice__Z11check_tracePKcS0_PK13trace_elementdjbjjbbi_add107.i_252932971()
  store i32 %add107.i86, ptr %d35.i, align 4
  %d36.i = getelementptr inbounds %struct.LotsOfLiveValues, ptr %liveValues_int, i32 0, i32 35
  %add110.i87 = call i32 @_wyvern_slice__Z11check_tracePKcS0_PK13trace_elementdjbjjbbi_add110.i_340675789()
  store i32 %add110.i87, ptr %d36.i, align 4
  %d37.i = getelementptr inbounds %struct.LotsOfLiveValues, ptr %liveValues_int, i32 0, i32 36
  %add113.i88 = call i32 @_wyvern_slice__Z11check_tracePKcS0_PK13trace_elementdjbjjbbi_add113.i_426944689()
  store i32 %add113.i88, ptr %d37.i, align 4
  %d38114.i = getelementptr inbounds %struct.LotsOfLiveValues, ptr %liveValues_int, i32 0, i32 37
  %add117.i89 = call i32 @_wyvern_slice__Z11check_tracePKcS0_PK13trace_elementdjbjjbbi_add117.i_990889366()
  store i32 %add117.i89, ptr %d38114.i, align 4
  %d39.i = getelementptr inbounds %struct.LotsOfLiveValues, ptr %liveValues_int, i32 0, i32 38
  %add120.i90 = call i32 @_wyvern_slice__Z11check_tracePKcS0_PK13trace_elementdjbjjbbi_add120.i_5187494()
  store i32 %add120.i90, ptr %d39.i, align 4
  %add69 = call double @_wyvern_slice__Z19check_frame_variantILb0ELb0ELb0ELb0ELb0EEbiRVi_add_252228540()
  %arraydecay = getelementptr inbounds [100 x %union.trace_element], ptr %trace, i64 0, i64 0
  invoke void @_Z10test_frameILj4096ELb0ELj2048ELb1ELb0EJEEvDpT4_jPKcP13trace_elementd(i32 noundef 100, ptr noundef @.str.35, ptr noundef %arraydecay, double noundef %add69)
          to label %invoke.cont5 unwind label %lpad4

invoke.cont5:                                     ; preds = %entry
  %add12234 = call i32 @_wyvern_slice__Z19check_frame_variantILb0ELb0ELb0ELb0ELb0EEbiRVi_add12_539135297(ptr %dumping_ground)
  store volatile i32 %add12234, ptr %dumping_ground, align 4
  br label %try.cont

lpad:                                             ; preds = %try.cont
  %0 = landingpad { ptr, i32 }
          cleanup
  %1 = extractvalue { ptr, i32 } %0, 0
  %2 = extractvalue { ptr, i32 } %0, 1
  br label %ehcleanup

lpad4:                                            ; preds = %entry
  %3 = landingpad { ptr, i32 }
          cleanup
          catch ptr @_ZTIi
  %4 = extractvalue { ptr, i32 } %3, 0
  %5 = extractvalue { ptr, i32 } %3, 1
  %6 = call i32 @llvm.eh.typeid.for(ptr @_ZTIi) #4
  %matches = icmp eq i32 %5, %6
  br i1 %matches, label %catch, label %ehcleanup

catch:                                            ; preds = %lpad4
  %7 = call ptr @__cxa_begin_catch(ptr %4) #4
  %8 = load i32, ptr %7, align 4
  call void @__cxa_end_catch() #4
  br label %try.cont

try.cont:                                         ; preds = %catch, %invoke.cont5
  %exception_value.0 = phi i32 [ -1, %invoke.cont5 ], [ %8, %catch ]
  %call13 = call noundef ptr @_ZNKSt7__cxx1112basic_stringIcSt11char_traitsIcESaIcEE5c_strEv(ptr noundef nonnull align 8 dereferenceable(32) %test_description) #4
  %arraydecay14 = getelementptr inbounds [100 x %union.trace_element], ptr %trace, i64 0, i64 0
  %call16 = invoke noundef zeroext i1 @_Z11check_tracePKcS0_PK13trace_elementdjbjjbbi(ptr noundef %call13, ptr noundef @.str.35, ptr noundef %arraydecay14, double noundef %add69, i32 noundef 4096, i1 noundef zeroext false, i32 noundef 100, i32 noundef 2048, i1 noundef zeroext true, i1 noundef zeroext false, i32 noundef %exception_value.0)
          to label %invoke.cont15 unwind label %lpad

invoke.cont15:                                    ; preds = %try.cont
  call void @_ZNSt7__cxx1112basic_stringIcSt11char_traitsIcESaIcEED1Ev(ptr noundef nonnull align 8 dereferenceable(32) %test_description) #4
  ret i1 %call16

ehcleanup:                                        ; preds = %lpad4, %lpad
  %exn.slot.0 = phi ptr [ %1, %lpad ], [ %4, %lpad4 ]
  %ehselector.slot.0 = phi i32 [ %2, %lpad ], [ %5, %lpad4 ]
  call void @_ZNSt7__cxx1112basic_stringIcSt11char_traitsIcESaIcEED1Ev(ptr noundef nonnull align 8 dereferenceable(32) %test_description) #4
  %lpad.val = insertvalue { ptr, i32 } poison, ptr %exn.slot.0, 0
  %lpad.val19 = insertvalue { ptr, i32 } %lpad.val, i32 %ehselector.slot.0, 1
  resume { ptr, i32 } %lpad.val19
}

; Function Attrs: noinline uwtable
define linkonce_odr dso_local noundef zeroext i1 @_Z19check_frame_variantILb0ELb0ELb1ELb0ELb0EEbiRVi(i32 noundef %seed, ptr noundef nonnull align 4 dereferenceable(4) %dumping_ground) #0 comdat personality ptr @__gxx_personality_v0 {
entry:
  %trace = alloca [100 x %union.trace_element], align 16
  %test_description = alloca %"class.std::__cxx11::basic_string", align 8
  %liveValues_double = alloca %struct.LotsOfLiveValues.0, align 8
  %liveValues_int = alloca %struct.LotsOfLiveValues, align 4
  call void @_Z24getTestDescriptionStringB5cxx11bbbbb(ptr sret(%"class.std::__cxx11::basic_string") align 8 %test_description, i1 noundef zeroext false, i1 noundef zeroext false, i1 noundef zeroext true, i1 noundef zeroext false, i1 noundef zeroext false)
  %conv = sitofp i32 %seed to double
  store double %conv, ptr %liveValues_double, align 8
  %d2.i23 = getelementptr inbounds %struct.LotsOfLiveValues.0, ptr %liveValues_double, i32 0, i32 1
  %add.i242 = call double @_wyvern_slice__Z10test_frameILj2ELb0ELj2048ELb1ELb0EJEEvDpT4_jPKcP13trace_elementd_add.i19_192950886()
  store double %add.i242, ptr %d2.i23, align 8
  %d3.i25 = getelementptr inbounds %struct.LotsOfLiveValues.0, ptr %liveValues_double, i32 0, i32 2
  %add6.i271 = call double @_wyvern_slice__Z10test_frameILj2ELb0ELj2048ELb1ELb0EJEEvDpT4_jPKcP13trace_elementd_add6.i22_294959648()
  store double %add6.i271, ptr %d3.i25, align 8
  %d4.i28 = getelementptr inbounds %struct.LotsOfLiveValues.0, ptr %liveValues_double, i32 0, i32 3
  %add9.i303 = call double @_wyvern_slice__Z10test_frameILj2ELb0ELj2048ELb1ELb0EJEEvDpT4_jPKcP13trace_elementd_add9.i25_957574556()
  store double %add9.i303, ptr %d4.i28, align 8
  %d5.i31 = getelementptr inbounds %struct.LotsOfLiveValues.0, ptr %liveValues_double, i32 0, i32 4
  %add12.i334 = call double @_wyvern_slice__Z10test_frameILj2ELb0ELj2048ELb1ELb0EJEEvDpT4_jPKcP13trace_elementd_add12.i28_450856346()
  store double %add12.i334, ptr %d5.i31, align 8
  %d6.i34 = getelementptr inbounds %struct.LotsOfLiveValues.0, ptr %liveValues_double, i32 0, i32 5
  %add15.i366 = call double @_wyvern_slice__Z10test_frameILj2ELb0ELj2048ELb1ELb0EJEEvDpT4_jPKcP13trace_elementd_add15.i31_616743252()
  store double %add15.i366, ptr %d6.i34, align 8
  %d7.i37 = getelementptr inbounds %struct.LotsOfLiveValues.0, ptr %liveValues_double, i32 0, i32 6
  %add18.i397 = call double @_wyvern_slice__Z10test_frameILj2ELb0ELj2048ELb1ELb0EJEEvDpT4_jPKcP13trace_elementd_add18.i34_570002413()
  store double %add18.i397, ptr %d7.i37, align 8
  %d8.i40 = getelementptr inbounds %struct.LotsOfLiveValues.0, ptr %liveValues_double, i32 0, i32 7
  %add21.i428 = call double @_wyvern_slice__Z10test_frameILj2ELb0ELj2048ELb1ELb0EJEEvDpT4_jPKcP13trace_elementd_add21.i37_365101202()
  store double %add21.i428, ptr %d8.i40, align 8
  %d9.i43 = getelementptr inbounds %struct.LotsOfLiveValues.0, ptr %liveValues_double, i32 0, i32 8
  %add24.i459 = call double @_wyvern_slice__Z10test_frameILj2ELb0ELj2048ELb1ELb0EJEEvDpT4_jPKcP13trace_elementd_add24.i40_196998609()
  store double %add24.i459, ptr %d9.i43, align 8
  %d10.i46 = getelementptr inbounds %struct.LotsOfLiveValues.0, ptr %liveValues_double, i32 0, i32 9
  %add27.i485 = call double @_wyvern_slice__Z10test_frameILj2ELb0ELj2048ELb1ELb0EJEEvDpT4_jPKcP13trace_elementd_add27.i43_157696020()
  store double %add27.i485, ptr %d10.i46, align 8
  %d11.i49 = getelementptr inbounds %struct.LotsOfLiveValues.0, ptr %liveValues_double, i32 0, i32 10
  %add30.i5110 = call double @_wyvern_slice__Z10test_frameILj2ELb0ELj2048ELb1ELb0EJEEvDpT4_jPKcP13trace_elementd_add30.i46_642723472()
  store double %add30.i5110, ptr %d11.i49, align 8
  %d1231.i52 = getelementptr inbounds %struct.LotsOfLiveValues.0, ptr %liveValues_double, i32 0, i32 11
  %add34.i5411 = call double @_wyvern_slice__Z10test_frameILj2ELb0ELj2048ELb1ELb0EJEEvDpT4_jPKcP13trace_elementd_add34.i49_384078398()
  store double %add34.i5411, ptr %d1231.i52, align 8
  %d1335.i55 = getelementptr inbounds %struct.LotsOfLiveValues.0, ptr %liveValues_double, i32 0, i32 12
  %add38.i5712 = call double @_wyvern_slice__Z10test_frameILj2ELb0ELj2048ELb1ELb0EJEEvDpT4_jPKcP13trace_elementd_add38.i52_408075486()
  store double %add38.i5712, ptr %d1335.i55, align 8
  %d1439.i58 = getelementptr inbounds %struct.LotsOfLiveValues.0, ptr %liveValues_double, i32 0, i32 13
  %add42.i6013 = call double @_wyvern_slice__Z10test_frameILj2ELb0ELj2048ELb1ELb0EJEEvDpT4_jPKcP13trace_elementd_add42.i55_222632963()
  store double %add42.i6013, ptr %d1439.i58, align 8
  %d15.i61 = getelementptr inbounds %struct.LotsOfLiveValues.0, ptr %liveValues_double, i32 0, i32 14
  %add45.i6314 = call double @_wyvern_slice__Z10test_frameILj2ELb0ELj2048ELb1ELb0EJEEvDpT4_jPKcP13trace_elementd_add45.i58_970821214()
  store double %add45.i6314, ptr %d15.i61, align 8
  %d16.i64 = getelementptr inbounds %struct.LotsOfLiveValues.0, ptr %liveValues_double, i32 0, i32 15
  %add48.i6616 = call double @_wyvern_slice__Z10test_frameILj2ELb0ELj2048ELb1ELb0EJEEvDpT4_jPKcP13trace_elementd_add48.i61_161615902()
  store double %add48.i6616, ptr %d16.i64, align 8
  %d1749.i67 = getelementptr inbounds %struct.LotsOfLiveValues.0, ptr %liveValues_double, i32 0, i32 16
  %add52.i6917 = call double @_wyvern_slice__Z10test_frameILj2ELb0ELj2048ELb1ELb0EJEEvDpT4_jPKcP13trace_elementd_add52.i64_97095800()
  store double %add52.i6917, ptr %d1749.i67, align 8
  %d18.i70 = getelementptr inbounds %struct.LotsOfLiveValues.0, ptr %liveValues_double, i32 0, i32 17
  %add55.i7218 = call double @_wyvern_slice__Z10test_frameILj2ELb0ELj2048ELb1ELb0EJEEvDpT4_jPKcP13trace_elementd_add55.i67_395463972()
  store double %add55.i7218, ptr %d18.i70, align 8
  %d19.i73 = getelementptr inbounds %struct.LotsOfLiveValues.0, ptr %liveValues_double, i32 0, i32 18
  %add58.i7519 = call double @_wyvern_slice__Z10test_frameILj2ELb0ELj2048ELb1ELb0EJEEvDpT4_jPKcP13trace_elementd_add58.i70_535739741()
  store double %add58.i7519, ptr %d19.i73, align 8
  %d20.i76 = getelementptr inbounds %struct.LotsOfLiveValues.0, ptr %liveValues_double, i32 0, i32 19
  %add61.i7820 = call double @_wyvern_slice__Z10test_frameILj2ELb0ELj2048ELb1ELb0EJEEvDpT4_jPKcP13trace_elementd_add61.i73_725737234()
  store double %add61.i7820, ptr %d20.i76, align 8
  %d21.i79 = getelementptr inbounds %struct.LotsOfLiveValues.0, ptr %liveValues_double, i32 0, i32 20
  %add64.i8121 = call double @_wyvern_slice__Z10test_frameILj2ELb0ELj2048ELb1ELb0EJEEvDpT4_jPKcP13trace_elementd_add64.i76_169302242()
  store double %add64.i8121, ptr %d21.i79, align 8
  %d22.i82 = getelementptr inbounds %struct.LotsOfLiveValues.0, ptr %liveValues_double, i32 0, i32 21
  %add67.i8422 = call double @_wyvern_slice__Z10test_frameILj2ELb0ELj2048ELb1ELb0EJEEvDpT4_jPKcP13trace_elementd_add67.i79_680623634()
  store double %add67.i8422, ptr %d22.i82, align 8
  %d23.i85 = getelementptr inbounds %struct.LotsOfLiveValues.0, ptr %liveValues_double, i32 0, i32 22
  %add70.i8723 = call double @_wyvern_slice__Z10test_frameILj2ELb0ELj2048ELb1ELb0EJEEvDpT4_jPKcP13trace_elementd_add70.i82_649348830()
  store double %add70.i8723, ptr %d23.i85, align 8
  %d24.i88 = getelementptr inbounds %struct.LotsOfLiveValues.0, ptr %liveValues_double, i32 0, i32 23
  %add73.i9024 = call double @_wyvern_slice__Z10test_frameILj2ELb0ELj2048ELb1ELb0EJEEvDpT4_jPKcP13trace_elementd_add73.i85_278475279()
  store double %add73.i9024, ptr %d24.i88, align 8
  %d2574.i91 = getelementptr inbounds %struct.LotsOfLiveValues.0, ptr %liveValues_double, i32 0, i32 24
  %add77.i9325 = call double @_wyvern_slice__Z10test_frameILj2ELb0ELj2048ELb1ELb0EJEEvDpT4_jPKcP13trace_elementd_add77.i88_263343217()
  store double %add77.i9325, ptr %d2574.i91, align 8
  %d26.i94 = getelementptr inbounds %struct.LotsOfLiveValues.0, ptr %liveValues_double, i32 0, i32 25
  %add80.i9626 = call double @_wyvern_slice__Z10test_frameILj2ELb0ELj2048ELb1ELb0EJEEvDpT4_jPKcP13trace_elementd_add80.i91_5195837()
  store double %add80.i9626, ptr %d26.i94, align 8
  %d27.i97 = getelementptr inbounds %struct.LotsOfLiveValues.0, ptr %liveValues_double, i32 0, i32 26
  %add83.i9927 = call double @_wyvern_slice__Z10test_frameILj2ELb0ELj2048ELb1ELb0EJEEvDpT4_jPKcP13trace_elementd_add83.i94_333108408()
  store double %add83.i9927, ptr %d27.i97, align 8
  %d28.i100 = getelementptr inbounds %struct.LotsOfLiveValues.0, ptr %liveValues_double, i32 0, i32 27
  %add86.i10228 = call double @_wyvern_slice__Z10test_frameILj2ELb0ELj2048ELb1ELb0EJEEvDpT4_jPKcP13trace_elementd_add86.i97_878325942()
  store double %add86.i10228, ptr %d28.i100, align 8
  %d29.i103 = getelementptr inbounds %struct.LotsOfLiveValues.0, ptr %liveValues_double, i32 0, i32 28
  %add89.i10529 = call double @_wyvern_slice__Z10test_frameILj2ELb0ELj2048ELb1ELb0EJEEvDpT4_jPKcP13trace_elementd_add89.i100_995026150()
  store double %add89.i10529, ptr %d29.i103, align 8
  %d30.i106 = getelementptr inbounds %struct.LotsOfLiveValues.0, ptr %liveValues_double, i32 0, i32 29
  %add92.i10830 = call double @_wyvern_slice__Z10test_frameILj2ELb0ELj2048ELb1ELb0EJEEvDpT4_jPKcP13trace_elementd_add92.i103_714370376()
  store double %add92.i10830, ptr %d30.i106, align 8
  %d31.i109 = getelementptr inbounds %struct.LotsOfLiveValues.0, ptr %liveValues_double, i32 0, i32 30
  %add95.i11131 = call double @_wyvern_slice__Z10test_frameILj2ELb0ELj2048ELb1ELb0EJEEvDpT4_jPKcP13trace_elementd_add95.i106_947008786()
  store double %add95.i11131, ptr %d31.i109, align 8
  %d32.i112 = getelementptr inbounds %struct.LotsOfLiveValues.0, ptr %liveValues_double, i32 0, i32 31
  %add98.i11415 = call double @_wyvern_slice__Z10test_frameILj2ELb0ELj2048ELb1ELb0EJEEvDpT4_jPKcP13trace_elementd_add98.i109_359479818()
  store double %add98.i11415, ptr %d32.i112, align 8
  %d33.i115 = getelementptr inbounds %struct.LotsOfLiveValues.0, ptr %liveValues_double, i32 0, i32 32
  %add101.i11735 = call double @_wyvern_slice__Z10test_frameILj2ELb0ELj2048ELb1ELb0EJEEvDpT4_jPKcP13trace_elementd_add101.i112_89831981()
  store double %add101.i11735, ptr %d33.i115, align 8
  %d34.i118 = getelementptr inbounds %struct.LotsOfLiveValues.0, ptr %liveValues_double, i32 0, i32 33
  %add104.i12036 = call double @_wyvern_slice__Z10test_frameILj2ELb0ELj2048ELb1ELb0EJEEvDpT4_jPKcP13trace_elementd_add104.i115_303427264()
  store double %add104.i12036, ptr %d34.i118, align 8
  %d35.i121 = getelementptr inbounds %struct.LotsOfLiveValues.0, ptr %liveValues_double, i32 0, i32 34
  %add107.i12337 = call double @_wyvern_slice__Z10test_frameILj2ELb0ELj2048ELb1ELb0EJEEvDpT4_jPKcP13trace_elementd_add107.i118_241094378()
  store double %add107.i12337, ptr %d35.i121, align 8
  %d36.i124 = getelementptr inbounds %struct.LotsOfLiveValues.0, ptr %liveValues_double, i32 0, i32 35
  %add110.i12638 = call double @_wyvern_slice__Z10test_frameILj2ELb0ELj2048ELb1ELb0EJEEvDpT4_jPKcP13trace_elementd_add110.i121_876500502()
  store double %add110.i12638, ptr %d36.i124, align 8
  %d37.i127 = getelementptr inbounds %struct.LotsOfLiveValues.0, ptr %liveValues_double, i32 0, i32 36
  %add113.i12939 = call double @_wyvern_slice__Z10test_frameILj2ELb0ELj2048ELb1ELb0EJEEvDpT4_jPKcP13trace_elementd_add113.i124_227393457()
  store double %add113.i12939, ptr %d37.i127, align 8
  %d38114.i130 = getelementptr inbounds %struct.LotsOfLiveValues.0, ptr %liveValues_double, i32 0, i32 37
  %add117.i13240 = call double @_wyvern_slice__Z10test_frameILj2ELb0ELj2048ELb1ELb0EJEEvDpT4_jPKcP13trace_elementd_add117.i127_471695309()
  store double %add117.i13240, ptr %d38114.i130, align 8
  %d39.i133 = getelementptr inbounds %struct.LotsOfLiveValues.0, ptr %liveValues_double, i32 0, i32 38
  %add120.i13541 = call double @_wyvern_slice__Z10test_frameILj2ELb0ELj2048ELb1ELb0EJEEvDpT4_jPKcP13trace_elementd_add120.i130_436310927()
  store double %add120.i13541, ptr %d39.i133, align 8
  store i32 %seed, ptr %liveValues_int, align 4
  %d2.i = getelementptr inbounds %struct.LotsOfLiveValues, ptr %liveValues_int, i32 0, i32 1
  %add.i42 = call i32 @_wyvern_slice__Z11check_tracePKcS0_PK13trace_elementdjbjjbbi_add.i_79638110()
  store i32 %add.i42, ptr %d2.i, align 4
  %d3.i = getelementptr inbounds %struct.LotsOfLiveValues, ptr %liveValues_int, i32 0, i32 2
  %add6.i43 = call i32 @_wyvern_slice__Z11check_tracePKcS0_PK13trace_elementdjbjjbbi_add6.i_725666043()
  store i32 %add6.i43, ptr %d3.i, align 4
  %d4.i = getelementptr inbounds %struct.LotsOfLiveValues, ptr %liveValues_int, i32 0, i32 3
  %add9.i44 = call i32 @_wyvern_slice__Z11check_tracePKcS0_PK13trace_elementdjbjjbbi_add9.i_778015173()
  store i32 %add9.i44, ptr %d4.i, align 4
  %d5.i = getelementptr inbounds %struct.LotsOfLiveValues, ptr %liveValues_int, i32 0, i32 4
  %add12.i45 = call i32 @_wyvern_slice__Z11check_tracePKcS0_PK13trace_elementdjbjjbbi_add12.i_871992298()
  store i32 %add12.i45, ptr %d5.i, align 4
  %d6.i = getelementptr inbounds %struct.LotsOfLiveValues, ptr %liveValues_int, i32 0, i32 5
  %add15.i46 = call i32 @_wyvern_slice__Z11check_tracePKcS0_PK13trace_elementdjbjjbbi_add15.i_699640918()
  store i32 %add15.i46, ptr %d6.i, align 4
  %d7.i = getelementptr inbounds %struct.LotsOfLiveValues, ptr %liveValues_int, i32 0, i32 6
  %add18.i47 = call i32 @_wyvern_slice__Z11check_tracePKcS0_PK13trace_elementdjbjjbbi_add18.i_229401483()
  store i32 %add18.i47, ptr %d7.i, align 4
  %d8.i = getelementptr inbounds %struct.LotsOfLiveValues, ptr %liveValues_int, i32 0, i32 7
  %add21.i48 = call i32 @_wyvern_slice__Z11check_tracePKcS0_PK13trace_elementdjbjjbbi_add21.i_453874021()
  store i32 %add21.i48, ptr %d8.i, align 4
  %d9.i = getelementptr inbounds %struct.LotsOfLiveValues, ptr %liveValues_int, i32 0, i32 8
  %add24.i49 = call i32 @_wyvern_slice__Z11check_tracePKcS0_PK13trace_elementdjbjjbbi_add24.i_379413497()
  store i32 %add24.i49, ptr %d9.i, align 4
  %d10.i = getelementptr inbounds %struct.LotsOfLiveValues, ptr %liveValues_int, i32 0, i32 9
  %add27.i50 = call i32 @_wyvern_slice__Z11check_tracePKcS0_PK13trace_elementdjbjjbbi_add27.i_116684249()
  store i32 %add27.i50, ptr %d10.i, align 4
  %d11.i = getelementptr inbounds %struct.LotsOfLiveValues, ptr %liveValues_int, i32 0, i32 10
  %add30.i52 = call i32 @_wyvern_slice__Z11check_tracePKcS0_PK13trace_elementdjbjjbbi_add30.i_452335753()
  store i32 %add30.i52, ptr %d11.i, align 4
  %d1231.i = getelementptr inbounds %struct.LotsOfLiveValues, ptr %liveValues_int, i32 0, i32 11
  %add34.i53 = call i32 @_wyvern_slice__Z11check_tracePKcS0_PK13trace_elementdjbjjbbi_add34.i_947872048()
  store i32 %add34.i53, ptr %d1231.i, align 4
  %d1335.i = getelementptr inbounds %struct.LotsOfLiveValues, ptr %liveValues_int, i32 0, i32 12
  %add38.i54 = call i32 @_wyvern_slice__Z11check_tracePKcS0_PK13trace_elementdjbjjbbi_add38.i_539862683()
  store i32 %add38.i54, ptr %d1335.i, align 4
  %d1439.i = getelementptr inbounds %struct.LotsOfLiveValues, ptr %liveValues_int, i32 0, i32 13
  %add42.i55 = call i32 @_wyvern_slice__Z11check_tracePKcS0_PK13trace_elementdjbjjbbi_add42.i_14667220()
  store i32 %add42.i55, ptr %d1439.i, align 4
  %d15.i = getelementptr inbounds %struct.LotsOfLiveValues, ptr %liveValues_int, i32 0, i32 14
  %add45.i56 = call i32 @_wyvern_slice__Z11check_tracePKcS0_PK13trace_elementdjbjjbbi_add45.i_54703108()
  store i32 %add45.i56, ptr %d15.i, align 4
  %d16.i = getelementptr inbounds %struct.LotsOfLiveValues, ptr %liveValues_int, i32 0, i32 15
  %add48.i57 = call i32 @_wyvern_slice__Z11check_tracePKcS0_PK13trace_elementdjbjjbbi_add48.i_980930456()
  store i32 %add48.i57, ptr %d16.i, align 4
  %d1749.i = getelementptr inbounds %struct.LotsOfLiveValues, ptr %liveValues_int, i32 0, i32 16
  %add52.i58 = call i32 @_wyvern_slice__Z11check_tracePKcS0_PK13trace_elementdjbjjbbi_add52.i_352864048()
  store i32 %add52.i58, ptr %d1749.i, align 4
  %d18.i = getelementptr inbounds %struct.LotsOfLiveValues, ptr %liveValues_int, i32 0, i32 17
  %add55.i59 = call i32 @_wyvern_slice__Z11check_tracePKcS0_PK13trace_elementdjbjjbbi_add55.i_242678122()
  store i32 %add55.i59, ptr %d18.i, align 4
  %d19.i = getelementptr inbounds %struct.LotsOfLiveValues, ptr %liveValues_int, i32 0, i32 18
  %add58.i60 = call i32 @_wyvern_slice__Z11check_tracePKcS0_PK13trace_elementdjbjjbbi_add58.i_561959204()
  store i32 %add58.i60, ptr %d19.i, align 4
  %d20.i = getelementptr inbounds %struct.LotsOfLiveValues, ptr %liveValues_int, i32 0, i32 19
  %add61.i61 = call i32 @_wyvern_slice__Z11check_tracePKcS0_PK13trace_elementdjbjjbbi_add61.i_793751076()
  store i32 %add61.i61, ptr %d20.i, align 4
  %d21.i = getelementptr inbounds %struct.LotsOfLiveValues, ptr %liveValues_int, i32 0, i32 20
  %add64.i62 = call i32 @_wyvern_slice__Z11check_tracePKcS0_PK13trace_elementdjbjjbbi_add64.i_717717205()
  store i32 %add64.i62, ptr %d21.i, align 4
  %d22.i = getelementptr inbounds %struct.LotsOfLiveValues, ptr %liveValues_int, i32 0, i32 21
  %add67.i63 = call i32 @_wyvern_slice__Z11check_tracePKcS0_PK13trace_elementdjbjjbbi_add67.i_548130757()
  store i32 %add67.i63, ptr %d22.i, align 4
  %d23.i = getelementptr inbounds %struct.LotsOfLiveValues, ptr %liveValues_int, i32 0, i32 22
  %add70.i64 = call i32 @_wyvern_slice__Z11check_tracePKcS0_PK13trace_elementdjbjjbbi_add70.i_402764612()
  store i32 %add70.i64, ptr %d23.i, align 4
  %d24.i = getelementptr inbounds %struct.LotsOfLiveValues, ptr %liveValues_int, i32 0, i32 23
  %add73.i65 = call i32 @_wyvern_slice__Z11check_tracePKcS0_PK13trace_elementdjbjjbbi_add73.i_647489565()
  store i32 %add73.i65, ptr %d24.i, align 4
  %d2574.i = getelementptr inbounds %struct.LotsOfLiveValues, ptr %liveValues_int, i32 0, i32 24
  %add77.i66 = call i32 @_wyvern_slice__Z11check_tracePKcS0_PK13trace_elementdjbjjbbi_add77.i_762575852()
  store i32 %add77.i66, ptr %d2574.i, align 4
  %d26.i = getelementptr inbounds %struct.LotsOfLiveValues, ptr %liveValues_int, i32 0, i32 25
  %add80.i32 = call i32 @_wyvern_slice__Z11check_tracePKcS0_PK13trace_elementdjbjjbbi_add80.i_276811972()
  store i32 %add80.i32, ptr %d26.i, align 4
  %d27.i = getelementptr inbounds %struct.LotsOfLiveValues, ptr %liveValues_int, i32 0, i32 26
  %add83.i33 = call i32 @_wyvern_slice__Z11check_tracePKcS0_PK13trace_elementdjbjjbbi_add83.i_441878893()
  store i32 %add83.i33, ptr %d27.i, align 4
  %d28.i = getelementptr inbounds %struct.LotsOfLiveValues, ptr %liveValues_int, i32 0, i32 27
  %add86.i34 = call i32 @_wyvern_slice__Z11check_tracePKcS0_PK13trace_elementdjbjjbbi_add86.i_379141477()
  store i32 %add86.i34, ptr %d28.i, align 4
  %d29.i = getelementptr inbounds %struct.LotsOfLiveValues, ptr %liveValues_int, i32 0, i32 28
  %add89.i80 = call i32 @_wyvern_slice__Z11check_tracePKcS0_PK13trace_elementdjbjjbbi_add89.i_957463967()
  store i32 %add89.i80, ptr %d29.i, align 4
  %d30.i = getelementptr inbounds %struct.LotsOfLiveValues, ptr %liveValues_int, i32 0, i32 29
  %add92.i81 = call i32 @_wyvern_slice__Z11check_tracePKcS0_PK13trace_elementdjbjjbbi_add92.i_189182820()
  store i32 %add92.i81, ptr %d30.i, align 4
  %d31.i = getelementptr inbounds %struct.LotsOfLiveValues, ptr %liveValues_int, i32 0, i32 30
  %add95.i82 = call i32 @_wyvern_slice__Z11check_tracePKcS0_PK13trace_elementdjbjjbbi_add95.i_246433034()
  store i32 %add95.i82, ptr %d31.i, align 4
  %d32.i = getelementptr inbounds %struct.LotsOfLiveValues, ptr %liveValues_int, i32 0, i32 31
  %add98.i83 = call i32 @_wyvern_slice__Z11check_tracePKcS0_PK13trace_elementdjbjjbbi_add98.i_416170815()
  store i32 %add98.i83, ptr %d32.i, align 4
  %d33.i = getelementptr inbounds %struct.LotsOfLiveValues, ptr %liveValues_int, i32 0, i32 32
  %add101.i84 = call i32 @_wyvern_slice__Z11check_tracePKcS0_PK13trace_elementdjbjjbbi_add101.i_123092476()
  store i32 %add101.i84, ptr %d33.i, align 4
  %d34.i = getelementptr inbounds %struct.LotsOfLiveValues, ptr %liveValues_int, i32 0, i32 33
  %add104.i85 = call i32 @_wyvern_slice__Z11check_tracePKcS0_PK13trace_elementdjbjjbbi_add104.i_776359929()
  store i32 %add104.i85, ptr %d34.i, align 4
  %d35.i = getelementptr inbounds %struct.LotsOfLiveValues, ptr %liveValues_int, i32 0, i32 34
  %add107.i86 = call i32 @_wyvern_slice__Z11check_tracePKcS0_PK13trace_elementdjbjjbbi_add107.i_252932971()
  store i32 %add107.i86, ptr %d35.i, align 4
  %d36.i = getelementptr inbounds %struct.LotsOfLiveValues, ptr %liveValues_int, i32 0, i32 35
  %add110.i87 = call i32 @_wyvern_slice__Z11check_tracePKcS0_PK13trace_elementdjbjjbbi_add110.i_340675789()
  store i32 %add110.i87, ptr %d36.i, align 4
  %d37.i = getelementptr inbounds %struct.LotsOfLiveValues, ptr %liveValues_int, i32 0, i32 36
  %add113.i88 = call i32 @_wyvern_slice__Z11check_tracePKcS0_PK13trace_elementdjbjjbbi_add113.i_426944689()
  store i32 %add113.i88, ptr %d37.i, align 4
  %d38114.i = getelementptr inbounds %struct.LotsOfLiveValues, ptr %liveValues_int, i32 0, i32 37
  %add117.i89 = call i32 @_wyvern_slice__Z11check_tracePKcS0_PK13trace_elementdjbjjbbi_add117.i_990889366()
  store i32 %add117.i89, ptr %d38114.i, align 4
  %d39.i = getelementptr inbounds %struct.LotsOfLiveValues, ptr %liveValues_int, i32 0, i32 38
  %add120.i90 = call i32 @_wyvern_slice__Z11check_tracePKcS0_PK13trace_elementdjbjjbbi_add120.i_5187494()
  store i32 %add120.i90, ptr %d39.i, align 4
  %add69 = call double @_wyvern_slice__Z19check_frame_variantILb0ELb0ELb0ELb0ELb0EEbiRVi_add_252228540()
  %arraydecay = getelementptr inbounds [100 x %union.trace_element], ptr %trace, i64 0, i64 0
  invoke void @_Z10test_frameILj2ELb0ELj2048ELb1ELb0EJEEvDpT4_jPKcP13trace_elementd(i32 noundef 100, ptr noundef @.str.35, ptr noundef %arraydecay, double noundef %add69)
          to label %invoke.cont5 unwind label %lpad4

invoke.cont5:                                     ; preds = %entry
  %add12234 = call i32 @_wyvern_slice__Z19check_frame_variantILb0ELb0ELb0ELb0ELb0EEbiRVi_add12_539135297(ptr %dumping_ground)
  store volatile i32 %add12234, ptr %dumping_ground, align 4
  br label %try.cont

lpad:                                             ; preds = %try.cont
  %0 = landingpad { ptr, i32 }
          cleanup
  %1 = extractvalue { ptr, i32 } %0, 0
  %2 = extractvalue { ptr, i32 } %0, 1
  br label %ehcleanup

lpad4:                                            ; preds = %entry
  %3 = landingpad { ptr, i32 }
          cleanup
          catch ptr @_ZTIi
  %4 = extractvalue { ptr, i32 } %3, 0
  %5 = extractvalue { ptr, i32 } %3, 1
  %6 = call i32 @llvm.eh.typeid.for(ptr @_ZTIi) #4
  %matches = icmp eq i32 %5, %6
  br i1 %matches, label %catch, label %ehcleanup

catch:                                            ; preds = %lpad4
  %7 = call ptr @__cxa_begin_catch(ptr %4) #4
  %8 = load i32, ptr %7, align 4
  call void @__cxa_end_catch() #4
  br label %try.cont

try.cont:                                         ; preds = %catch, %invoke.cont5
  %exception_value.0 = phi i32 [ -1, %invoke.cont5 ], [ %8, %catch ]
  %call13 = call noundef ptr @_ZNKSt7__cxx1112basic_stringIcSt11char_traitsIcESaIcEE5c_strEv(ptr noundef nonnull align 8 dereferenceable(32) %test_description) #4
  %arraydecay14 = getelementptr inbounds [100 x %union.trace_element], ptr %trace, i64 0, i64 0
  %call16 = invoke noundef zeroext i1 @_Z11check_tracePKcS0_PK13trace_elementdjbjjbbi(ptr noundef %call13, ptr noundef @.str.35, ptr noundef %arraydecay14, double noundef %add69, i32 noundef 2, i1 noundef zeroext false, i32 noundef 100, i32 noundef 2048, i1 noundef zeroext true, i1 noundef zeroext false, i32 noundef %exception_value.0)
          to label %invoke.cont15 unwind label %lpad

invoke.cont15:                                    ; preds = %try.cont
  call void @_ZNSt7__cxx1112basic_stringIcSt11char_traitsIcESaIcEED1Ev(ptr noundef nonnull align 8 dereferenceable(32) %test_description) #4
  ret i1 %call16

ehcleanup:                                        ; preds = %lpad4, %lpad
  %exn.slot.0 = phi ptr [ %1, %lpad ], [ %4, %lpad4 ]
  %ehselector.slot.0 = phi i32 [ %2, %lpad ], [ %5, %lpad4 ]
  call void @_ZNSt7__cxx1112basic_stringIcSt11char_traitsIcESaIcEED1Ev(ptr noundef nonnull align 8 dereferenceable(32) %test_description) #4
  %lpad.val = insertvalue { ptr, i32 } poison, ptr %exn.slot.0, 0
  %lpad.val19 = insertvalue { ptr, i32 } %lpad.val, i32 %ehselector.slot.0, 1
  resume { ptr, i32 } %lpad.val19
}

; Function Attrs: noinline uwtable
define linkonce_odr dso_local noundef zeroext i1 @_Z19check_frame_variantILb1ELb1ELb1ELb0ELb0EEbiRVi(i32 noundef %seed, ptr noundef nonnull align 4 dereferenceable(4) %dumping_ground) #0 comdat personality ptr @__gxx_personality_v0 {
entry:
  %trace = alloca [100 x %union.trace_element], align 16
  %test_description = alloca %"class.std::__cxx11::basic_string", align 8
  %liveValues_double = alloca %struct.LotsOfLiveValues.0, align 8
  %liveValues_int = alloca %struct.LotsOfLiveValues, align 4
  call void @_Z24getTestDescriptionStringB5cxx11bbbbb(ptr sret(%"class.std::__cxx11::basic_string") align 8 %test_description, i1 noundef zeroext true, i1 noundef zeroext true, i1 noundef zeroext true, i1 noundef zeroext false, i1 noundef zeroext false)
  %conv = sitofp i32 %seed to double
  store double %conv, ptr %liveValues_double, align 8
  %d2.i23 = getelementptr inbounds %struct.LotsOfLiveValues.0, ptr %liveValues_double, i32 0, i32 1
  %add.i242 = call double @_wyvern_slice__Z10test_frameILj2ELb0ELj2048ELb1ELb0EJEEvDpT4_jPKcP13trace_elementd_add.i19_192950886()
  store double %add.i242, ptr %d2.i23, align 8
  %d3.i25 = getelementptr inbounds %struct.LotsOfLiveValues.0, ptr %liveValues_double, i32 0, i32 2
  %add6.i271 = call double @_wyvern_slice__Z10test_frameILj2ELb0ELj2048ELb1ELb0EJEEvDpT4_jPKcP13trace_elementd_add6.i22_294959648()
  store double %add6.i271, ptr %d3.i25, align 8
  %d4.i28 = getelementptr inbounds %struct.LotsOfLiveValues.0, ptr %liveValues_double, i32 0, i32 3
  %add9.i303 = call double @_wyvern_slice__Z10test_frameILj2ELb0ELj2048ELb1ELb0EJEEvDpT4_jPKcP13trace_elementd_add9.i25_957574556()
  store double %add9.i303, ptr %d4.i28, align 8
  %d5.i31 = getelementptr inbounds %struct.LotsOfLiveValues.0, ptr %liveValues_double, i32 0, i32 4
  %add12.i334 = call double @_wyvern_slice__Z10test_frameILj2ELb0ELj2048ELb1ELb0EJEEvDpT4_jPKcP13trace_elementd_add12.i28_450856346()
  store double %add12.i334, ptr %d5.i31, align 8
  %d6.i34 = getelementptr inbounds %struct.LotsOfLiveValues.0, ptr %liveValues_double, i32 0, i32 5
  %add15.i366 = call double @_wyvern_slice__Z10test_frameILj2ELb0ELj2048ELb1ELb0EJEEvDpT4_jPKcP13trace_elementd_add15.i31_616743252()
  store double %add15.i366, ptr %d6.i34, align 8
  %d7.i37 = getelementptr inbounds %struct.LotsOfLiveValues.0, ptr %liveValues_double, i32 0, i32 6
  %add18.i397 = call double @_wyvern_slice__Z10test_frameILj2ELb0ELj2048ELb1ELb0EJEEvDpT4_jPKcP13trace_elementd_add18.i34_570002413()
  store double %add18.i397, ptr %d7.i37, align 8
  %d8.i40 = getelementptr inbounds %struct.LotsOfLiveValues.0, ptr %liveValues_double, i32 0, i32 7
  %add21.i428 = call double @_wyvern_slice__Z10test_frameILj2ELb0ELj2048ELb1ELb0EJEEvDpT4_jPKcP13trace_elementd_add21.i37_365101202()
  store double %add21.i428, ptr %d8.i40, align 8
  %d9.i43 = getelementptr inbounds %struct.LotsOfLiveValues.0, ptr %liveValues_double, i32 0, i32 8
  %add24.i459 = call double @_wyvern_slice__Z10test_frameILj2ELb0ELj2048ELb1ELb0EJEEvDpT4_jPKcP13trace_elementd_add24.i40_196998609()
  store double %add24.i459, ptr %d9.i43, align 8
  %d10.i46 = getelementptr inbounds %struct.LotsOfLiveValues.0, ptr %liveValues_double, i32 0, i32 9
  %add27.i485 = call double @_wyvern_slice__Z10test_frameILj2ELb0ELj2048ELb1ELb0EJEEvDpT4_jPKcP13trace_elementd_add27.i43_157696020()
  store double %add27.i485, ptr %d10.i46, align 8
  %d11.i49 = getelementptr inbounds %struct.LotsOfLiveValues.0, ptr %liveValues_double, i32 0, i32 10
  %add30.i5110 = call double @_wyvern_slice__Z10test_frameILj2ELb0ELj2048ELb1ELb0EJEEvDpT4_jPKcP13trace_elementd_add30.i46_642723472()
  store double %add30.i5110, ptr %d11.i49, align 8
  %d1231.i52 = getelementptr inbounds %struct.LotsOfLiveValues.0, ptr %liveValues_double, i32 0, i32 11
  %add34.i5411 = call double @_wyvern_slice__Z10test_frameILj2ELb0ELj2048ELb1ELb0EJEEvDpT4_jPKcP13trace_elementd_add34.i49_384078398()
  store double %add34.i5411, ptr %d1231.i52, align 8
  %d1335.i55 = getelementptr inbounds %struct.LotsOfLiveValues.0, ptr %liveValues_double, i32 0, i32 12
  %add38.i5712 = call double @_wyvern_slice__Z10test_frameILj2ELb0ELj2048ELb1ELb0EJEEvDpT4_jPKcP13trace_elementd_add38.i52_408075486()
  store double %add38.i5712, ptr %d1335.i55, align 8
  %d1439.i58 = getelementptr inbounds %struct.LotsOfLiveValues.0, ptr %liveValues_double, i32 0, i32 13
  %add42.i6013 = call double @_wyvern_slice__Z10test_frameILj2ELb0ELj2048ELb1ELb0EJEEvDpT4_jPKcP13trace_elementd_add42.i55_222632963()
  store double %add42.i6013, ptr %d1439.i58, align 8
  %d15.i61 = getelementptr inbounds %struct.LotsOfLiveValues.0, ptr %liveValues_double, i32 0, i32 14
  %add45.i6314 = call double @_wyvern_slice__Z10test_frameILj2ELb0ELj2048ELb1ELb0EJEEvDpT4_jPKcP13trace_elementd_add45.i58_970821214()
  store double %add45.i6314, ptr %d15.i61, align 8
  %d16.i64 = getelementptr inbounds %struct.LotsOfLiveValues.0, ptr %liveValues_double, i32 0, i32 15
  %add48.i6616 = call double @_wyvern_slice__Z10test_frameILj2ELb0ELj2048ELb1ELb0EJEEvDpT4_jPKcP13trace_elementd_add48.i61_161615902()
  store double %add48.i6616, ptr %d16.i64, align 8
  %d1749.i67 = getelementptr inbounds %struct.LotsOfLiveValues.0, ptr %liveValues_double, i32 0, i32 16
  %add52.i6917 = call double @_wyvern_slice__Z10test_frameILj2ELb0ELj2048ELb1ELb0EJEEvDpT4_jPKcP13trace_elementd_add52.i64_97095800()
  store double %add52.i6917, ptr %d1749.i67, align 8
  %d18.i70 = getelementptr inbounds %struct.LotsOfLiveValues.0, ptr %liveValues_double, i32 0, i32 17
  %add55.i7218 = call double @_wyvern_slice__Z10test_frameILj2ELb0ELj2048ELb1ELb0EJEEvDpT4_jPKcP13trace_elementd_add55.i67_395463972()
  store double %add55.i7218, ptr %d18.i70, align 8
  %d19.i73 = getelementptr inbounds %struct.LotsOfLiveValues.0, ptr %liveValues_double, i32 0, i32 18
  %add58.i7519 = call double @_wyvern_slice__Z10test_frameILj2ELb0ELj2048ELb1ELb0EJEEvDpT4_jPKcP13trace_elementd_add58.i70_535739741()
  store double %add58.i7519, ptr %d19.i73, align 8
  %d20.i76 = getelementptr inbounds %struct.LotsOfLiveValues.0, ptr %liveValues_double, i32 0, i32 19
  %add61.i7820 = call double @_wyvern_slice__Z10test_frameILj2ELb0ELj2048ELb1ELb0EJEEvDpT4_jPKcP13trace_elementd_add61.i73_725737234()
  store double %add61.i7820, ptr %d20.i76, align 8
  %d21.i79 = getelementptr inbounds %struct.LotsOfLiveValues.0, ptr %liveValues_double, i32 0, i32 20
  %add64.i8121 = call double @_wyvern_slice__Z10test_frameILj2ELb0ELj2048ELb1ELb0EJEEvDpT4_jPKcP13trace_elementd_add64.i76_169302242()
  store double %add64.i8121, ptr %d21.i79, align 8
  %d22.i82 = getelementptr inbounds %struct.LotsOfLiveValues.0, ptr %liveValues_double, i32 0, i32 21
  %add67.i8422 = call double @_wyvern_slice__Z10test_frameILj2ELb0ELj2048ELb1ELb0EJEEvDpT4_jPKcP13trace_elementd_add67.i79_680623634()
  store double %add67.i8422, ptr %d22.i82, align 8
  %d23.i85 = getelementptr inbounds %struct.LotsOfLiveValues.0, ptr %liveValues_double, i32 0, i32 22
  %add70.i8723 = call double @_wyvern_slice__Z10test_frameILj2ELb0ELj2048ELb1ELb0EJEEvDpT4_jPKcP13trace_elementd_add70.i82_649348830()
  store double %add70.i8723, ptr %d23.i85, align 8
  %d24.i88 = getelementptr inbounds %struct.LotsOfLiveValues.0, ptr %liveValues_double, i32 0, i32 23
  %add73.i9024 = call double @_wyvern_slice__Z10test_frameILj2ELb0ELj2048ELb1ELb0EJEEvDpT4_jPKcP13trace_elementd_add73.i85_278475279()
  store double %add73.i9024, ptr %d24.i88, align 8
  %d2574.i91 = getelementptr inbounds %struct.LotsOfLiveValues.0, ptr %liveValues_double, i32 0, i32 24
  %add77.i9325 = call double @_wyvern_slice__Z10test_frameILj2ELb0ELj2048ELb1ELb0EJEEvDpT4_jPKcP13trace_elementd_add77.i88_263343217()
  store double %add77.i9325, ptr %d2574.i91, align 8
  %d26.i94 = getelementptr inbounds %struct.LotsOfLiveValues.0, ptr %liveValues_double, i32 0, i32 25
