; ModuleID = 'frame_layout.ll'
source_filename = "frame_layout.cpp"
target datalayout = "e-m:e-p270:32:32-p271:32:32-p272:64:64-i64:64-f80:128-n8:16:32:64-S128"
target triple = "x86_64-unknown-linux-gnu"

module asm ".globl _ZSt21ios_base_library_initv"

%"class.std::vector" = type { %"struct.std::_Vector_base" }
%"struct.std::_Vector_base" = type { %"struct.std::_Vector_base<const char *, std::allocator<const char *>>::_Vector_impl" }
%"struct.std::_Vector_base<const char *, std::allocator<const char *>>::_Vector_impl" = type { %"struct.std::_Vector_base<const char *, std::allocator<const char *>>::_Vector_impl_data" }
%"struct.std::_Vector_base<const char *, std::allocator<const char *>>::_Vector_impl_data" = type { ptr, ptr, ptr }
%"class.std::basic_ostream" = type { ptr, %"class.std::basic_ios" }
%"class.std::basic_ios" = type { %"class.std::ios_base", ptr, i8, i8, ptr, ptr, ptr, ptr }
%"class.std::ios_base" = type { ptr, i64, i64, i32, i32, i32, ptr, %"struct.std::ios_base::_Words", [8 x %"struct.std::ios_base::_Words"], i32, ptr, %"class.std::locale" }
%"struct.std::ios_base::_Words" = type { ptr, i64 }
%"class.std::locale" = type { ptr }
%struct.LotsOfLiveValues = type { i32, i32, i32, i32, i32, i32, i32, i32, i32, i32, i32, i32, i32, i32, i32, i32, i32, i32, i32, i32, i32, i32, i32, i32, i32, i32, i32, i32, i32, i32, i32, i32, i32, i32, i32, i32, i32, i32, i32 }
%struct.LotsOfLiveValues.0 = type { double, double, double, double, double, double, double, double, double, double, double, double, double, double, double, double, double, double, double, double, double, double, double, double, double, double, double, double, double, double, double, double, double, double, double, double, double, double, double }
%union.trace_element = type { ptr }
%"class.std::initializer_list" = type { ptr, i64 }
%"class.std::allocator" = type { i8 }
%"class.std::__cxx11::basic_string" = type { %"struct.std::__cxx11::basic_string<char>::_Alloc_hider", i64, %union.anon }
%"struct.std::__cxx11::basic_string<char>::_Alloc_hider" = type { ptr }
%union.anon = type { i64, [8 x i8] }
%"class.std::allocator.1" = type { i8 }
%"class.__gnu_cxx::__normal_iterator" = type { ptr }
%struct._Guard = type { ptr }

$_ZNSt6vectorIPKcSaIS1_EEC2ESt16initializer_listIS1_ERKS2_ = comdat any

$_ZNSt6vectorIPKcSaIS1_EED2Ev = comdat any

$_ZStplIcSt11char_traitsIcESaIcEENSt7__cxx1112basic_stringIT_T0_T1_EEOS8_PKS5_ = comdat any

$_ZNSt7__cxx1112basic_stringIcSt11char_traitsIcESaIcEEC2IS3_EEPKcRKS3_ = comdat any

$_ZNKSt6vectorIPKcSaIS1_EE5beginEv = comdat any

$_ZNKSt6vectorIPKcSaIS1_EE3endEv = comdat any

$_ZN9__gnu_cxxneIPKPKcSt6vectorIS2_SaIS2_EEEEbRKNS_17__normal_iteratorIT_T0_EESD_ = comdat any

$_ZNK9__gnu_cxx17__normal_iteratorIPKPKcSt6vectorIS2_SaIS2_EEEdeEv = comdat any

$_ZN9__gnu_cxx17__normal_iteratorIPKPKcSt6vectorIS2_SaIS2_EEEppEv = comdat any

$_Z19check_frame_variantILb1ELb0ELb0ELb0ELb0EEbiRVi = comdat any

$_Z19check_frame_variantILb0ELb0ELb0ELb0ELb0EEbiRVi = comdat any

$_Z19check_frame_variantILb1ELb1ELb0ELb0ELb0EEbiRVi = comdat any

$_Z19check_frame_variantILb0ELb1ELb0ELb0ELb0EEbiRVi = comdat any

$_Z19check_frame_variantILb1ELb0ELb1ELb0ELb0EEbiRVi = comdat any

$_Z19check_frame_variantILb0ELb0ELb1ELb0ELb0EEbiRVi = comdat any

$_Z19check_frame_variantILb1ELb1ELb1ELb0ELb0EEbiRVi = comdat any

$_Z19check_frame_variantILb0ELb1ELb1ELb0ELb0EEbiRVi = comdat any

$_Z19check_frame_variantILb1ELb0ELb0ELb1ELb0EEbiRVi = comdat any

$_Z19check_frame_variantILb0ELb0ELb0ELb1ELb0EEbiRVi = comdat any

$_Z19check_frame_variantILb1ELb1ELb0ELb1ELb0EEbiRVi = comdat any

$_Z19check_frame_variantILb0ELb1ELb0ELb1ELb0EEbiRVi = comdat any

$_Z19check_frame_variantILb1ELb0ELb1ELb1ELb0EEbiRVi = comdat any

$_Z19check_frame_variantILb0ELb0ELb1ELb1ELb0EEbiRVi = comdat any

$_Z19check_frame_variantILb1ELb1ELb1ELb1ELb0EEbiRVi = comdat any

$_Z19check_frame_variantILb0ELb1ELb1ELb1ELb0EEbiRVi = comdat any

$_Z19check_frame_variantILb1ELb0ELb0ELb0ELb1EEbiRVi = comdat any

$_Z19check_frame_variantILb0ELb0ELb0ELb0ELb1EEbiRVi = comdat any

$_Z19check_frame_variantILb1ELb1ELb0ELb0ELb1EEbiRVi = comdat any

$_Z19check_frame_variantILb0ELb1ELb0ELb0ELb1EEbiRVi = comdat any

$_Z19check_frame_variantILb1ELb0ELb1ELb0ELb1EEbiRVi = comdat any

$_Z19check_frame_variantILb0ELb0ELb1ELb0ELb1EEbiRVi = comdat any

$_Z19check_frame_variantILb1ELb1ELb1ELb0ELb1EEbiRVi = comdat any

$_Z19check_frame_variantILb0ELb1ELb1ELb0ELb1EEbiRVi = comdat any

$_Z19check_frame_variantILb1ELb0ELb0ELb1ELb1EEbiRVi = comdat any

$_Z19check_frame_variantILb0ELb0ELb0ELb1ELb1EEbiRVi = comdat any

$_Z19check_frame_variantILb1ELb1ELb0ELb1ELb1EEbiRVi = comdat any

$_Z19check_frame_variantILb0ELb1ELb0ELb1ELb1EEbiRVi = comdat any

$_Z19check_frame_variantILb1ELb0ELb1ELb1ELb1EEbiRVi = comdat any

$_Z19check_frame_variantILb0ELb0ELb1ELb1ELb1EEbiRVi = comdat any

$_Z19check_frame_variantILb1ELb1ELb1ELb1ELb1EEbiRVi = comdat any

$_Z19check_frame_variantILb0ELb1ELb1ELb1ELb1EEbiRVi = comdat any

$_ZNSt15__new_allocatorIcED2Ev = comdat any

$_ZNSt15__new_allocatorIPKcED2Ev = comdat any

$_ZNSt12_Vector_baseIPKcSaIS1_EEC2ERKS2_ = comdat any

$_ZNSt6vectorIPKcSaIS1_EE19_M_range_initializeIPKS1_EEvT_S7_St20forward_iterator_tag = comdat any

$_ZNKSt16initializer_listIPKcE5beginEv = comdat any

$_ZNKSt16initializer_listIPKcE3endEv = comdat any

$_ZNSt12_Vector_baseIPKcSaIS1_EED2Ev = comdat any

$_ZNSt12_Vector_baseIPKcSaIS1_EE12_Vector_implC2ERKS2_ = comdat any

$_ZNSt12_Vector_baseIPKcSaIS1_EE17_Vector_impl_dataC2Ev = comdat any

$_ZNSt12_Vector_baseIPKcSaIS1_EE11_M_allocateEm = comdat any

$_ZNSt6vectorIPKcSaIS1_EE17_S_check_init_lenEmRKS2_ = comdat any

$_ZNSt12_Vector_baseIPKcSaIS1_EE19_M_get_Tp_allocatorEv = comdat any

$_ZSt22__uninitialized_copy_aIPKPKcPS1_S1_ET0_T_S6_S5_RSaIT1_E = comdat any

$_ZNSt15__new_allocatorIPKcE8allocateEmPKv = comdat any

$_ZNSt6vectorIPKcSaIS1_EE11_S_max_sizeERKS2_ = comdat any

$_ZSt3minImERKT_S2_S2_ = comdat any

$__clang_call_terminate = comdat any

$_ZSt18uninitialized_copyIPKPKcPS1_ET0_T_S6_S5_ = comdat any

$_ZNSt20__uninitialized_copyILb1EE13__uninit_copyIPKPKcPS3_EET0_T_S8_S7_ = comdat any

$_ZSt4copyIPKPKcPS1_ET0_T_S6_S5_ = comdat any

$_ZSt13__copy_move_aILb0EPKPKcPS1_ET1_T0_S6_S5_ = comdat any

$_ZSt12__miter_baseIPKPKcET_S4_ = comdat any

$_ZSt12__niter_wrapIPPKcET_RKS3_S3_ = comdat any

$_ZSt14__copy_move_a1ILb0EPKPKcPS1_ET1_T0_S6_S5_ = comdat any

$_ZSt12__niter_baseIPKPKcET_S4_ = comdat any

$_ZSt12__niter_baseIPPKcET_S3_ = comdat any

$_ZSt14__copy_move_a2ILb0EPKPKcPS1_ET1_T0_S6_S5_ = comdat any

$_ZNSt11__copy_moveILb0ELb1ESt26random_access_iterator_tagE8__copy_mIKPKcS4_EEPT0_PT_S9_S7_ = comdat any

$_ZNSt11__copy_moveILb0ELb0ESt26random_access_iterator_tagE12__assign_oneIPKcKS4_EEvPT_PT0_ = comdat any

$_ZNKSt16initializer_listIPKcE4sizeEv = comdat any

$_ZNSt12_Vector_baseIPKcSaIS1_EE13_M_deallocateEPS1_m = comdat any

$_ZNSt12_Vector_baseIPKcSaIS1_EE12_Vector_implD2Ev = comdat any

$_ZNSt15__new_allocatorIPKcE10deallocateEPS1_m = comdat any

$_ZSt8_DestroyIPPKcEvT_S3_ = comdat any

$_ZNSt12_Destroy_auxILb1EE9__destroyIPPKcEEvT_S5_ = comdat any

$_ZNSt11char_traitsIcE6lengthEPKc = comdat any

$_ZNSt7__cxx1112basic_stringIcSt11char_traitsIcESaIcEE12_M_constructIPKcEEvT_S8_St20forward_iterator_tag = comdat any

$_ZNSt7__cxx1112basic_stringIcSt11char_traitsIcESaIcEE12_Alloc_hiderD2Ev = comdat any

$_ZZNSt7__cxx1112basic_stringIcSt11char_traitsIcESaIcEE12_M_constructIPKcEEvT_S8_St20forward_iterator_tagEN6_GuardC2EPS4_ = comdat any

$_ZZNSt7__cxx1112basic_stringIcSt11char_traitsIcESaIcEE12_M_constructIPKcEEvT_S8_St20forward_iterator_tagEN6_GuardD2Ev = comdat any

$_ZN9__gnu_cxx17__normal_iteratorIPKPKcSt6vectorIS2_SaIS2_EEEC2ERKS4_ = comdat any

$_ZNK9__gnu_cxx17__normal_iteratorIPKPKcSt6vectorIS2_SaIS2_EEE4baseEv = comdat any

$_Z10test_frameILj4096ELb0ELj2048ELb0ELb0EJEEvDpT4_jPKcP13trace_elementd = comdat any

$_Z10test_frameILj2ELb0ELj2048ELb0ELb0EJEEvDpT4_jPKcP13trace_elementd = comdat any

$_Z10test_frameILj4096ELb1ELj2048ELb0ELb0EJEEvDpT4_jPKcP13trace_elementd = comdat any

$_Z10test_frameILj2ELb1ELj2048ELb0ELb0EJEEvDpT4_jPKcP13trace_elementd = comdat any

$_Z10test_frameILj4096ELb0ELj2048ELb1ELb0EJEEvDpT4_jPKcP13trace_elementd = comdat any

$_Z10test_frameILj2ELb0ELj2048ELb1ELb0EJEEvDpT4_jPKcP13trace_elementd = comdat any

$_Z10test_frameILj4096ELb1ELj2048ELb1ELb0EJEEvDpT4_jPKcP13trace_elementd = comdat any

$_Z10test_frameILj2ELb1ELj2048ELb1ELb0EJEEvDpT4_jPKcP13trace_elementd = comdat any

$_Z10test_frameILj4096ELb0ELj2048ELb0ELb0EJiiiiiiiiiiiiiiiiiiiiddddddddddddddddddddEEvDpT4_jPKcP13trace_elementd = comdat any

$_Z10test_frameILj2ELb0ELj2048ELb0ELb0EJiiiiiiiiiiiiiiiiiiiiddddddddddddddddddddEEvDpT4_jPKcP13trace_elementd = comdat any

$_Z10test_frameILj4096ELb1ELj2048ELb0ELb0EJiiiiiiiiiiiiiiiiiiiiddddddddddddddddddddEEvDpT4_jPKcP13trace_elementd = comdat any

$_Z10test_frameILj2ELb1ELj2048ELb0ELb0EJiiiiiiiiiiiiiiiiiiiiddddddddddddddddddddEEvDpT4_jPKcP13trace_elementd = comdat any

$_Z10test_frameILj4096ELb0ELj2048ELb1ELb0EJiiiiiiiiiiiiiiiiiiiiddddddddddddddddddddEEvDpT4_jPKcP13trace_elementd = comdat any

$_Z10test_frameILj2ELb0ELj2048ELb1ELb0EJiiiiiiiiiiiiiiiiiiiiddddddddddddddddddddEEvDpT4_jPKcP13trace_elementd = comdat any

$_Z10test_frameILj4096ELb1ELj2048ELb1ELb0EJiiiiiiiiiiiiiiiiiiiiddddddddddddddddddddEEvDpT4_jPKcP13trace_elementd = comdat any

$_Z10test_frameILj2ELb1ELj2048ELb1ELb0EJiiiiiiiiiiiiiiiiiiiiddddddddddddddddddddEEvDpT4_jPKcP13trace_elementd = comdat any

$_Z10test_frameILj4096ELb0ELj2048ELb0ELb1EJEEvDpT4_jPKcP13trace_elementd = comdat any

$_Z10test_frameILj2ELb0ELj2048ELb0ELb1EJEEvDpT4_jPKcP13trace_elementd = comdat any

$_Z10test_frameILj4096ELb1ELj2048ELb0ELb1EJEEvDpT4_jPKcP13trace_elementd = comdat any

$_Z10test_frameILj2ELb1ELj2048ELb0ELb1EJEEvDpT4_jPKcP13trace_elementd = comdat any

$_Z10test_frameILj4096ELb0ELj2048ELb1ELb1EJEEvDpT4_jPKcP13trace_elementd = comdat any

$_Z10test_frameILj2ELb0ELj2048ELb1ELb1EJEEvDpT4_jPKcP13trace_elementd = comdat any

$_Z10test_frameILj4096ELb1ELj2048ELb1ELb1EJEEvDpT4_jPKcP13trace_elementd = comdat any

$_Z10test_frameILj2ELb1ELj2048ELb1ELb1EJEEvDpT4_jPKcP13trace_elementd = comdat any

$_Z10test_frameILj4096ELb0ELj2048ELb0ELb1EJiiiiiiiiiiiiiiiiiiiiddddddddddddddddddddEEvDpT4_jPKcP13trace_elementd = comdat any

$_Z10test_frameILj2ELb0ELj2048ELb0ELb1EJiiiiiiiiiiiiiiiiiiiiddddddddddddddddddddEEvDpT4_jPKcP13trace_elementd = comdat any

$_Z10test_frameILj4096ELb1ELj2048ELb0ELb1EJiiiiiiiiiiiiiiiiiiiiddddddddddddddddddddEEvDpT4_jPKcP13trace_elementd = comdat any

$_Z10test_frameILj2ELb1ELj2048ELb0ELb1EJiiiiiiiiiiiiiiiiiiiiddddddddddddddddddddEEvDpT4_jPKcP13trace_elementd = comdat any

$_Z10test_frameILj4096ELb0ELj2048ELb1ELb1EJiiiiiiiiiiiiiiiiiiiiddddddddddddddddddddEEvDpT4_jPKcP13trace_elementd = comdat any

$_Z10test_frameILj2ELb0ELj2048ELb1ELb1EJiiiiiiiiiiiiiiiiiiiiddddddddddddddddddddEEvDpT4_jPKcP13trace_elementd = comdat any

$_Z10test_frameILj4096ELb1ELj2048ELb1ELb1EJiiiiiiiiiiiiiiiiiiiiddddddddddddddddddddEEvDpT4_jPKcP13trace_elementd = comdat any

$_Z10test_frameILj2ELb1ELj2048ELb1ELb1EJiiiiiiiiiiiiiiiiiiiiddddddddddddddddddddEEvDpT4_jPKcP13trace_elementd = comdat any

@.str = private unnamed_addr constant [12 x i8] c"arg_passing\00", align 1
@.str.1 = private unnamed_addr constant [10 x i8] c"int_local\00", align 1
@.str.2 = private unnamed_addr constant [13 x i8] c"double_local\00", align 1
@.str.3 = private unnamed_addr constant [10 x i8] c"vla_start\00", align 1
@.str.4 = private unnamed_addr constant [8 x i8] c"vla_end\00", align 1
@.str.5 = private unnamed_addr constant [16 x i8] c"callee_save_int\00", align 1
@.str.6 = private unnamed_addr constant [19 x i8] c"callee_save_double\00", align 1
@.str.7 = private unnamed_addr constant [13 x i8] c"thrown_value\00", align 1
@_ZL21testDescriptionHeader = internal global %"class.std::vector" zeroinitializer, align 8
@.str.8 = private unnamed_addr constant [6 x i8] c"AVCAE\00", align 1
@.str.9 = private unnamed_addr constant [6 x i8] c"LLARX\00", align 1
@.str.10 = private unnamed_addr constant [6 x i8] c"IALGC\00", align 1
@.str.11 = private unnamed_addr constant [6 x i8] c"G|LSE\00", align 1
@.str.12 = private unnamed_addr constant [6 x i8] c"N|E P\00", align 1
@.str.13 = private unnamed_addr constant [6 x i8] c"E|EOT\00", align 1
@.str.14 = private unnamed_addr constant [6 x i8] c"D| NI\00", align 1
@.str.15 = private unnamed_addr constant [6 x i8] c" |S O\00", align 1
@.str.16 = private unnamed_addr constant [6 x i8] c"L|ASN\00", align 1
@.str.17 = private unnamed_addr constant [6 x i8] c"O|VT|\00", align 1
@.str.18 = private unnamed_addr constant [6 x i8] c"C|EA|\00", align 1
@.str.19 = private unnamed_addr constant [6 x i8] c"A||C|\00", align 1
@.str.20 = private unnamed_addr constant [6 x i8] c"L||K|\00", align 1
@.str.21 = private unnamed_addr constant [6 x i8] c"S||||\00", align 1
@.str.22 = private unnamed_addr constant [6 x i8] c"|||||\00", align 1
@.str.23 = private unnamed_addr constant [6 x i8] c"VVVVV\00", align 1
@constinit = private constant [16 x ptr] [ptr @.str.8, ptr @.str.9, ptr @.str.10, ptr @.str.11, ptr @.str.12, ptr @.str.13, ptr @.str.14, ptr @.str.15, ptr @.str.16, ptr @.str.17, ptr @.str.18, ptr @.str.19, ptr @.str.20, ptr @.str.21, ptr @.str.22, ptr @.str.23], align 8
@__dso_handle = external hidden global i8
@.str.24 = private unnamed_addr constant [1 x i8] zeroinitializer, align 1
@.str.25 = private unnamed_addr constant [2 x i8] c"+\00", align 1
@.str.26 = private unnamed_addr constant [2 x i8] c"-\00", align 1
@_ZSt4cout = external global %"class.std::basic_ostream", align 8
@.str.27 = private unnamed_addr constant [3 x i8] c", \00", align 1
@.str.28 = private unnamed_addr constant [14 x i8] c", alignment: \00", align 1
@.str.29 = private unnamed_addr constant [4 x i8] c" OK\00", align 1
@.str.30 = private unnamed_addr constant [29 x i8] c" ALIGNMENT NOT AS EXPECTED: \00", align 1
@.str.31 = private unnamed_addr constant [27 x i8] c" CONTENT NOT AS EXPECTED: \00", align 1
@.str.32 = private unnamed_addr constant [13 x i8] c" instead of \00", align 1
@.str.33 = private unnamed_addr constant [49 x i8] c"cannot create std::vector larger than max_size()\00", align 1
@.str.34 = private unnamed_addr constant [50 x i8] c"basic_string: construction from null is not valid\00", align 1
@.str.35 = private unnamed_addr constant [27 x i8] c"abcdefghijklmnopqrstuvwxyz\00", align 1
@_ZTIi = external constant ptr
@llvm.global_ctors = appending global [1 x { i32, ptr, ptr }] [{ i32, ptr, ptr } { i32 65535, ptr @_GLOBAL__sub_I_frame_layout.cpp, ptr null }]

; Function Attrs: noinline uwtable
define dso_local noundef zeroext i1 @_Z11check_tracePKcS0_PK13trace_elementdjbjjbbi(ptr noundef %variant, ptr noundef %input, ptr noundef %trace, double noundef %expected_d_value, i32 noundef %locals_alignment, i1 noundef zeroext %with_vla, i32 noundef %vla_size, i32 noundef %vla_alignment, i1 noundef zeroext %force_callee_save, i1 noundef zeroext %throw_exception, i32 noundef %exception_value) #0 {
entry:
  %i = alloca %struct.LotsOfLiveValues, align 4
  %d = alloca %struct.LotsOfLiveValues.0, align 8
  %frombool = zext i1 %with_vla to i8
  %frombool1 = zext i1 %force_callee_save to i8
  %frombool2 = zext i1 %throw_exception to i8
  %incdec.ptr = getelementptr inbounds %union.trace_element, ptr %trace, i32 1
  %0 = load double, ptr %trace, align 8
  %call = call noundef zeroext i1 @_ZL35check_and_print_value_and_alignmentIdEbPKcS1_jPKvT_S4_(ptr noundef %variant, ptr noundef @.str, i32 noundef 0, ptr noundef null, double noundef %0, double noundef %expected_d_value)
  %frombool3 = zext i1 %call to i8
  %incdec.ptr4 = getelementptr inbounds %union.trace_element, ptr %incdec.ptr, i32 1
  %1 = load i32, ptr %incdec.ptr, align 8
  %incdec.ptr5 = getelementptr inbounds %union.trace_element, ptr %incdec.ptr4, i32 1
  %2 = load ptr, ptr %incdec.ptr4, align 8
  %incdec.ptr6 = getelementptr inbounds %union.trace_element, ptr %incdec.ptr5, i32 1
  %3 = load double, ptr %incdec.ptr5, align 8
  %incdec.ptr7 = getelementptr inbounds %union.trace_element, ptr %incdec.ptr6, i32 1
  %4 = load ptr, ptr %incdec.ptr6, align 8
  %incdec.ptr8 = getelementptr inbounds i8, ptr %input, i32 1
  %5 = load i8, ptr %input, align 1
  %conv = sext i8 %5 to i32
  %call9 = call noundef zeroext i1 @_ZL35check_and_print_value_and_alignmentIiEbPKcS1_jPKvT_S4_(ptr noundef %variant, ptr noundef @.str.1, i32 noundef %locals_alignment, ptr noundef %2, i32 noundef %1, i32 noundef %conv)
  %conv10 = zext i1 %call9 to i32
  %tobool = trunc i8 %frombool3 to i1
  %conv11 = zext i1 %tobool to i32
  %or = or i32 %conv11, %conv10
  %tobool12 = icmp ne i32 %or, 0
  %frombool13 = zext i1 %tobool12 to i8
  %incdec.ptr14 = getelementptr inbounds i8, ptr %incdec.ptr8, i32 1
  %6 = load i8, ptr %incdec.ptr8, align 1
  %conv15 = sitofp i8 %6 to double
  %call16 = call noundef zeroext i1 @_ZL35check_and_print_value_and_alignmentIdEbPKcS1_jPKvT_S4_(ptr noundef %variant, ptr noundef @.str.2, i32 noundef %locals_alignment, ptr noundef %4, double noundef %3, double noundef %conv15)
  %conv17 = zext i1 %call16 to i32
  %tobool18 = trunc i8 %frombool13 to i1
  %conv19 = zext i1 %tobool18 to i32
  %or20 = or i32 %conv19, %conv17
  %tobool21 = icmp ne i32 %or20, 0
  %frombool22 = zext i1 %tobool21 to i8
  %tobool23 = trunc i8 %frombool to i1
  br i1 %tobool23, label %if.then, label %if.end

if.then:                                          ; preds = %entry
  %incdec.ptr24 = getelementptr inbounds i8, ptr %incdec.ptr14, i32 1
  %7 = load i8, ptr %incdec.ptr14, align 1
  %incdec.ptr25 = getelementptr inbounds i8, ptr %incdec.ptr24, i32 1
  %8 = load i8, ptr %incdec.ptr24, align 1
  %incdec.ptr26 = getelementptr inbounds %union.trace_element, ptr %incdec.ptr7, i32 1
  %9 = load i32, ptr %incdec.ptr7, align 8
  %conv27 = trunc i32 %9 to i8
  %incdec.ptr28 = getelementptr inbounds %union.trace_element, ptr %incdec.ptr26, i32 1
  %10 = load ptr, ptr %incdec.ptr26, align 8
  %incdec.ptr29 = getelementptr inbounds %union.trace_element, ptr %incdec.ptr28, i32 1
  %11 = load i32, ptr %incdec.ptr28, align 8
  %conv30 = trunc i32 %11 to i8
  %incdec.ptr31 = getelementptr inbounds %union.trace_element, ptr %incdec.ptr29, i32 1
  %12 = load ptr, ptr %incdec.ptr29, align 8
  %call32 = call noundef zeroext i1 @_ZL35check_and_print_value_and_alignmentIcEbPKcS1_jPKvT_S4_(ptr noundef %variant, ptr noundef @.str.3, i32 noundef %vla_alignment, ptr noundef %10, i8 noundef signext %conv27, i8 noundef signext %7)
  %conv33 = zext i1 %call32 to i32
  %tobool34 = trunc i8 %frombool22 to i1
  %conv35 = zext i1 %tobool34 to i32
  %or36 = or i32 %conv35, %conv33
  %tobool37 = icmp ne i32 %or36, 0
  %frombool38 = zext i1 %tobool37 to i8
  %call39 = call noundef zeroext i1 @_ZL35check_and_print_value_and_alignmentIcEbPKcS1_jPKvT_S4_(ptr noundef %variant, ptr noundef @.str.4, i32 noundef 1, ptr noundef %12, i8 noundef signext %conv30, i8 noundef signext %8)
  %conv40 = zext i1 %call39 to i32
  %tobool41 = trunc i8 %frombool38 to i1
  %conv42 = zext i1 %tobool41 to i32
  %or43 = or i32 %conv42, %conv40
  %tobool44 = icmp ne i32 %or43, 0
  %frombool45 = zext i1 %tobool44 to i8
  br label %if.end

if.end:                                           ; preds = %if.then, %entry
  %input.addr.0 = phi ptr [ %incdec.ptr25, %if.then ], [ %incdec.ptr14, %entry ]
  %trace.addr.0 = phi ptr [ %incdec.ptr31, %if.then ], [ %incdec.ptr7, %entry ]
  %problem_found.0 = phi i8 [ %frombool45, %if.then ], [ %frombool22, %entry ]
  %tobool46 = trunc i8 %frombool1 to i1
  br i1 %tobool46, label %if.then47, label %if.end74

if.then47:                                        ; preds = %if.end
  %incdec.ptr48 = getelementptr inbounds i8, ptr %input.addr.0, i32 1
  %13 = load i8, ptr %input.addr.0, align 1
  %conv49 = sext i8 %13 to i32
  store i32 %conv49, ptr %i, align 4
  %d2.i = getelementptr inbounds %struct.LotsOfLiveValues, ptr %i, i32 0, i32 1
  %14 = load i32, ptr %i, align 4
  %15 = load i32, ptr %i, align 4
  %add.i = add nsw i32 %14, %15
  store i32 %add.i, ptr %d2.i, align 4
  %d3.i = getelementptr inbounds %struct.LotsOfLiveValues, ptr %i, i32 0, i32 2
  %16 = load i32, ptr %i, align 4
  %d25.i = getelementptr inbounds %struct.LotsOfLiveValues, ptr %i, i32 0, i32 1
  %17 = load i32, ptr %d25.i, align 4
  %add6.i = add nsw i32 %16, %17
  store i32 %add6.i, ptr %d3.i, align 4
  %d4.i = getelementptr inbounds %struct.LotsOfLiveValues, ptr %i, i32 0, i32 3
  %18 = load i32, ptr %i, align 4
  %d38.i = getelementptr inbounds %struct.LotsOfLiveValues, ptr %i, i32 0, i32 2
  %19 = load i32, ptr %d38.i, align 4
  %add9.i = add nsw i32 %18, %19
  store i32 %add9.i, ptr %d4.i, align 4
  %d5.i = getelementptr inbounds %struct.LotsOfLiveValues, ptr %i, i32 0, i32 4
  %20 = load i32, ptr %i, align 4
  %d411.i = getelementptr inbounds %struct.LotsOfLiveValues, ptr %i, i32 0, i32 3
  %21 = load i32, ptr %d411.i, align 4
  %add12.i = add nsw i32 %20, %21
  store i32 %add12.i, ptr %d5.i, align 4
  %d6.i = getelementptr inbounds %struct.LotsOfLiveValues, ptr %i, i32 0, i32 5
  %22 = load i32, ptr %i, align 4
  %d514.i = getelementptr inbounds %struct.LotsOfLiveValues, ptr %i, i32 0, i32 4
  %23 = load i32, ptr %d514.i, align 4
  %add15.i = add nsw i32 %22, %23
  store i32 %add15.i, ptr %d6.i, align 4
  %d7.i = getelementptr inbounds %struct.LotsOfLiveValues, ptr %i, i32 0, i32 6
  %24 = load i32, ptr %i, align 4
  %d617.i = getelementptr inbounds %struct.LotsOfLiveValues, ptr %i, i32 0, i32 5
  %25 = load i32, ptr %d617.i, align 4
  %add18.i = add nsw i32 %24, %25
  store i32 %add18.i, ptr %d7.i, align 4
  %d8.i = getelementptr inbounds %struct.LotsOfLiveValues, ptr %i, i32 0, i32 7
  %26 = load i32, ptr %i, align 4
  %d720.i = getelementptr inbounds %struct.LotsOfLiveValues, ptr %i, i32 0, i32 6
  %27 = load i32, ptr %d720.i, align 4
  %add21.i = add nsw i32 %26, %27
  store i32 %add21.i, ptr %d8.i, align 4
  %d9.i = getelementptr inbounds %struct.LotsOfLiveValues, ptr %i, i32 0, i32 8
  %28 = load i32, ptr %i, align 4
  %d823.i = getelementptr inbounds %struct.LotsOfLiveValues, ptr %i, i32 0, i32 7
  %29 = load i32, ptr %d823.i, align 4
  %add24.i = add nsw i32 %28, %29
  store i32 %add24.i, ptr %d9.i, align 4
  %d10.i = getelementptr inbounds %struct.LotsOfLiveValues, ptr %i, i32 0, i32 9
  %30 = load i32, ptr %i, align 4
  %d926.i = getelementptr inbounds %struct.LotsOfLiveValues, ptr %i, i32 0, i32 8
  %31 = load i32, ptr %d926.i, align 4
  %add27.i = add nsw i32 %30, %31
  store i32 %add27.i, ptr %d10.i, align 4
  %d11.i = getelementptr inbounds %struct.LotsOfLiveValues, ptr %i, i32 0, i32 10
  %32 = load i32, ptr %i, align 4
  %d1029.i = getelementptr inbounds %struct.LotsOfLiveValues, ptr %i, i32 0, i32 9
  %33 = load i32, ptr %d1029.i, align 4
  %add30.i = add nsw i32 %32, %33
  store i32 %add30.i, ptr %d11.i, align 4
  %d1231.i = getelementptr inbounds %struct.LotsOfLiveValues, ptr %i, i32 0, i32 11
  %34 = load i32, ptr %i, align 4
  %d1133.i = getelementptr inbounds %struct.LotsOfLiveValues, ptr %i, i32 0, i32 10
  %35 = load i32, ptr %d1133.i, align 4
  %add34.i = add nsw i32 %34, %35
  store i32 %add34.i, ptr %d1231.i, align 4
  %d1335.i = getelementptr inbounds %struct.LotsOfLiveValues, ptr %i, i32 0, i32 12
  %36 = load i32, ptr %i, align 4
  %d1237.i = getelementptr inbounds %struct.LotsOfLiveValues, ptr %i, i32 0, i32 11
  %37 = load i32, ptr %d1237.i, align 4
  %add38.i = add nsw i32 %36, %37
  store i32 %add38.i, ptr %d1335.i, align 4
  %d1439.i = getelementptr inbounds %struct.LotsOfLiveValues, ptr %i, i32 0, i32 13
  %38 = load i32, ptr %i, align 4
  %d1341.i = getelementptr inbounds %struct.LotsOfLiveValues, ptr %i, i32 0, i32 12
  %39 = load i32, ptr %d1341.i, align 4
  %add42.i = add nsw i32 %38, %39
  store i32 %add42.i, ptr %d1439.i, align 4
  %d15.i = getelementptr inbounds %struct.LotsOfLiveValues, ptr %i, i32 0, i32 14
  %40 = load i32, ptr %i, align 4
  %d1444.i = getelementptr inbounds %struct.LotsOfLiveValues, ptr %i, i32 0, i32 13
  %41 = load i32, ptr %d1444.i, align 4
  %add45.i = add nsw i32 %40, %41
  store i32 %add45.i, ptr %d15.i, align 4
  %d16.i = getelementptr inbounds %struct.LotsOfLiveValues, ptr %i, i32 0, i32 15
  %42 = load i32, ptr %i, align 4
  %d1547.i = getelementptr inbounds %struct.LotsOfLiveValues, ptr %i, i32 0, i32 14
  %43 = load i32, ptr %d1547.i, align 4
  %add48.i = add nsw i32 %42, %43
  store i32 %add48.i, ptr %d16.i, align 4
  %d1749.i = getelementptr inbounds %struct.LotsOfLiveValues, ptr %i, i32 0, i32 16
  %44 = load i32, ptr %i, align 4
  %d1651.i = getelementptr inbounds %struct.LotsOfLiveValues, ptr %i, i32 0, i32 15
  %45 = load i32, ptr %d1651.i, align 4
  %add52.i = add nsw i32 %44, %45
  store i32 %add52.i, ptr %d1749.i, align 4
  %d18.i = getelementptr inbounds %struct.LotsOfLiveValues, ptr %i, i32 0, i32 17
  %46 = load i32, ptr %i, align 4
  %d1754.i = getelementptr inbounds %struct.LotsOfLiveValues, ptr %i, i32 0, i32 16
  %47 = load i32, ptr %d1754.i, align 4
  %add55.i = add nsw i32 %46, %47
  store i32 %add55.i, ptr %d18.i, align 4
  %d19.i = getelementptr inbounds %struct.LotsOfLiveValues, ptr %i, i32 0, i32 18
  %48 = load i32, ptr %i, align 4
  %d1857.i = getelementptr inbounds %struct.LotsOfLiveValues, ptr %i, i32 0, i32 17
  %49 = load i32, ptr %d1857.i, align 4
  %add58.i = add nsw i32 %48, %49
  store i32 %add58.i, ptr %d19.i, align 4
  %d20.i = getelementptr inbounds %struct.LotsOfLiveValues, ptr %i, i32 0, i32 19
  %50 = load i32, ptr %i, align 4
  %d1960.i = getelementptr inbounds %struct.LotsOfLiveValues, ptr %i, i32 0, i32 18
  %51 = load i32, ptr %d1960.i, align 4
  %add61.i = add nsw i32 %50, %51
  store i32 %add61.i, ptr %d20.i, align 4
  %d21.i = getelementptr inbounds %struct.LotsOfLiveValues, ptr %i, i32 0, i32 20
  %52 = load i32, ptr %i, align 4
  %d2063.i = getelementptr inbounds %struct.LotsOfLiveValues, ptr %i, i32 0, i32 19
  %53 = load i32, ptr %d2063.i, align 4
  %add64.i = add nsw i32 %52, %53
  store i32 %add64.i, ptr %d21.i, align 4
  %d22.i = getelementptr inbounds %struct.LotsOfLiveValues, ptr %i, i32 0, i32 21
  %54 = load i32, ptr %i, align 4
  %d2166.i = getelementptr inbounds %struct.LotsOfLiveValues, ptr %i, i32 0, i32 20
  %55 = load i32, ptr %d2166.i, align 4
  %add67.i = add nsw i32 %54, %55
  store i32 %add67.i, ptr %d22.i, align 4
  %d23.i = getelementptr inbounds %struct.LotsOfLiveValues, ptr %i, i32 0, i32 22
  %56 = load i32, ptr %i, align 4
  %d2269.i = getelementptr inbounds %struct.LotsOfLiveValues, ptr %i, i32 0, i32 21
  %57 = load i32, ptr %d2269.i, align 4
  %add70.i = add nsw i32 %56, %57
  store i32 %add70.i, ptr %d23.i, align 4
  %d24.i = getelementptr inbounds %struct.LotsOfLiveValues, ptr %i, i32 0, i32 23
  %58 = load i32, ptr %i, align 4
  %d2372.i = getelementptr inbounds %struct.LotsOfLiveValues, ptr %i, i32 0, i32 22
  %59 = load i32, ptr %d2372.i, align 4
  %add73.i = add nsw i32 %58, %59
  store i32 %add73.i, ptr %d24.i, align 4
  %d2574.i = getelementptr inbounds %struct.LotsOfLiveValues, ptr %i, i32 0, i32 24
  %60 = load i32, ptr %i, align 4
  %d2476.i = getelementptr inbounds %struct.LotsOfLiveValues, ptr %i, i32 0, i32 23
  %61 = load i32, ptr %d2476.i, align 4
  %add77.i = add nsw i32 %60, %61
  store i32 %add77.i, ptr %d2574.i, align 4
  %d26.i = getelementptr inbounds %struct.LotsOfLiveValues, ptr %i, i32 0, i32 25
  %62 = load i32, ptr %i, align 4
  %d2579.i = getelementptr inbounds %struct.LotsOfLiveValues, ptr %i, i32 0, i32 24
  %63 = load i32, ptr %d2579.i, align 4
  %add80.i = add nsw i32 %62, %63
  store i32 %add80.i, ptr %d26.i, align 4
  %d27.i = getelementptr inbounds %struct.LotsOfLiveValues, ptr %i, i32 0, i32 26
  %64 = load i32, ptr %i, align 4
  %d2682.i = getelementptr inbounds %struct.LotsOfLiveValues, ptr %i, i32 0, i32 25
  %65 = load i32, ptr %d2682.i, align 4
  %add83.i = add nsw i32 %64, %65
  store i32 %add83.i, ptr %d27.i, align 4
  %d28.i = getelementptr inbounds %struct.LotsOfLiveValues, ptr %i, i32 0, i32 27
  %66 = load i32, ptr %i, align 4
  %d2785.i = getelementptr inbounds %struct.LotsOfLiveValues, ptr %i, i32 0, i32 26
  %67 = load i32, ptr %d2785.i, align 4
  %add86.i = add nsw i32 %66, %67
  store i32 %add86.i, ptr %d28.i, align 4
  %d29.i = getelementptr inbounds %struct.LotsOfLiveValues, ptr %i, i32 0, i32 28
  %68 = load i32, ptr %i, align 4
  %d2888.i = getelementptr inbounds %struct.LotsOfLiveValues, ptr %i, i32 0, i32 27
  %69 = load i32, ptr %d2888.i, align 4
  %add89.i = add nsw i32 %68, %69
  store i32 %add89.i, ptr %d29.i, align 4
  %d30.i = getelementptr inbounds %struct.LotsOfLiveValues, ptr %i, i32 0, i32 29
  %70 = load i32, ptr %i, align 4
  %d2991.i = getelementptr inbounds %struct.LotsOfLiveValues, ptr %i, i32 0, i32 28
  %71 = load i32, ptr %d2991.i, align 4
  %add92.i = add nsw i32 %70, %71
  store i32 %add92.i, ptr %d30.i, align 4
  %d31.i = getelementptr inbounds %struct.LotsOfLiveValues, ptr %i, i32 0, i32 30
  %72 = load i32, ptr %i, align 4
  %d3094.i = getelementptr inbounds %struct.LotsOfLiveValues, ptr %i, i32 0, i32 29
  %73 = load i32, ptr %d3094.i, align 4
  %add95.i = add nsw i32 %72, %73
  store i32 %add95.i, ptr %d31.i, align 4
  %d32.i = getelementptr inbounds %struct.LotsOfLiveValues, ptr %i, i32 0, i32 31
  %74 = load i32, ptr %i, align 4
  %d3197.i = getelementptr inbounds %struct.LotsOfLiveValues, ptr %i, i32 0, i32 30
  %75 = load i32, ptr %d3197.i, align 4
  %add98.i = add nsw i32 %74, %75
  store i32 %add98.i, ptr %d32.i, align 4
  %d33.i = getelementptr inbounds %struct.LotsOfLiveValues, ptr %i, i32 0, i32 32
  %76 = load i32, ptr %i, align 4
  %d32100.i = getelementptr inbounds %struct.LotsOfLiveValues, ptr %i, i32 0, i32 31
  %77 = load i32, ptr %d32100.i, align 4
  %add101.i = add nsw i32 %76, %77
  store i32 %add101.i, ptr %d33.i, align 4
  %d34.i = getelementptr inbounds %struct.LotsOfLiveValues, ptr %i, i32 0, i32 33
  %78 = load i32, ptr %i, align 4
  %d33103.i = getelementptr inbounds %struct.LotsOfLiveValues, ptr %i, i32 0, i32 32
  %79 = load i32, ptr %d33103.i, align 4
  %add104.i = add nsw i32 %78, %79
  store i32 %add104.i, ptr %d34.i, align 4
  %d35.i = getelementptr inbounds %struct.LotsOfLiveValues, ptr %i, i32 0, i32 34
  %80 = load i32, ptr %i, align 4
  %d34106.i = getelementptr inbounds %struct.LotsOfLiveValues, ptr %i, i32 0, i32 33
  %81 = load i32, ptr %d34106.i, align 4
  %add107.i = add nsw i32 %80, %81
  store i32 %add107.i, ptr %d35.i, align 4
  %d36.i = getelementptr inbounds %struct.LotsOfLiveValues, ptr %i, i32 0, i32 35
  %82 = load i32, ptr %i, align 4
  %d35109.i = getelementptr inbounds %struct.LotsOfLiveValues, ptr %i, i32 0, i32 34
  %83 = load i32, ptr %d35109.i, align 4
  %add110.i = add nsw i32 %82, %83
  store i32 %add110.i, ptr %d36.i, align 4
  %d37.i = getelementptr inbounds %struct.LotsOfLiveValues, ptr %i, i32 0, i32 36
  %84 = load i32, ptr %i, align 4
  %d36112.i = getelementptr inbounds %struct.LotsOfLiveValues, ptr %i, i32 0, i32 35
  %85 = load i32, ptr %d36112.i, align 4
  %add113.i = add nsw i32 %84, %85
  store i32 %add113.i, ptr %d37.i, align 4
  %d38114.i = getelementptr inbounds %struct.LotsOfLiveValues, ptr %i, i32 0, i32 37
  %86 = load i32, ptr %i, align 4
  %d37116.i = getelementptr inbounds %struct.LotsOfLiveValues, ptr %i, i32 0, i32 36
  %87 = load i32, ptr %d37116.i, align 4
  %add117.i = add nsw i32 %86, %87
  store i32 %add117.i, ptr %d38114.i, align 4
  %d39.i = getelementptr inbounds %struct.LotsOfLiveValues, ptr %i, i32 0, i32 38
  %88 = load i32, ptr %i, align 4
  %d38119.i = getelementptr inbounds %struct.LotsOfLiveValues, ptr %i, i32 0, i32 37
  %89 = load i32, ptr %d38119.i, align 4
  %add120.i = add nsw i32 %88, %89
  store i32 %add120.i, ptr %d39.i, align 4
  %incdec.ptr50 = getelementptr inbounds i8, ptr %incdec.ptr48, i32 1
  %90 = load i8, ptr %incdec.ptr48, align 1
  %conv51 = sitofp i8 %90 to double
  store double %conv51, ptr %d, align 8
  %d2.i87 = getelementptr inbounds %struct.LotsOfLiveValues.0, ptr %d, i32 0, i32 1
  %91 = load double, ptr %d, align 8
  %92 = load double, ptr %d, align 8
  %add.i88 = fadd double %91, %92
  store double %add.i88, ptr %d2.i87, align 8
  %d3.i89 = getelementptr inbounds %struct.LotsOfLiveValues.0, ptr %d, i32 0, i32 2
  %93 = load double, ptr %d, align 8
  %d25.i90 = getelementptr inbounds %struct.LotsOfLiveValues.0, ptr %d, i32 0, i32 1
  %94 = load double, ptr %d25.i90, align 8
  %add6.i91 = fadd double %93, %94
  store double %add6.i91, ptr %d3.i89, align 8
  %d4.i92 = getelementptr inbounds %struct.LotsOfLiveValues.0, ptr %d, i32 0, i32 3
  %95 = load double, ptr %d, align 8
  %d38.i93 = getelementptr inbounds %struct.LotsOfLiveValues.0, ptr %d, i32 0, i32 2
  %96 = load double, ptr %d38.i93, align 8
  %add9.i94 = fadd double %95, %96
  store double %add9.i94, ptr %d4.i92, align 8
  %d5.i95 = getelementptr inbounds %struct.LotsOfLiveValues.0, ptr %d, i32 0, i32 4
  %97 = load double, ptr %d, align 8
  %d411.i96 = getelementptr inbounds %struct.LotsOfLiveValues.0, ptr %d, i32 0, i32 3
  %98 = load double, ptr %d411.i96, align 8
  %add12.i97 = fadd double %97, %98
  store double %add12.i97, ptr %d5.i95, align 8
  %d6.i98 = getelementptr inbounds %struct.LotsOfLiveValues.0, ptr %d, i32 0, i32 5
  %99 = load double, ptr %d, align 8
  %d514.i99 = getelementptr inbounds %struct.LotsOfLiveValues.0, ptr %d, i32 0, i32 4
  %100 = load double, ptr %d514.i99, align 8
  %add15.i100 = fadd double %99, %100
  store double %add15.i100, ptr %d6.i98, align 8
  %d7.i101 = getelementptr inbounds %struct.LotsOfLiveValues.0, ptr %d, i32 0, i32 6
  %101 = load double, ptr %d, align 8
  %d617.i102 = getelementptr inbounds %struct.LotsOfLiveValues.0, ptr %d, i32 0, i32 5
  %102 = load double, ptr %d617.i102, align 8
  %add18.i103 = fadd double %101, %102
  store double %add18.i103, ptr %d7.i101, align 8
  %d8.i104 = getelementptr inbounds %struct.LotsOfLiveValues.0, ptr %d, i32 0, i32 7
  %103 = load double, ptr %d, align 8
  %d720.i105 = getelementptr inbounds %struct.LotsOfLiveValues.0, ptr %d, i32 0, i32 6
  %104 = load double, ptr %d720.i105, align 8
  %add21.i106 = fadd double %103, %104
  store double %add21.i106, ptr %d8.i104, align 8
  %d9.i107 = getelementptr inbounds %struct.LotsOfLiveValues.0, ptr %d, i32 0, i32 8
  %105 = load double, ptr %d, align 8
  %d823.i108 = getelementptr inbounds %struct.LotsOfLiveValues.0, ptr %d, i32 0, i32 7
  %106 = load double, ptr %d823.i108, align 8
  %add24.i109 = fadd double %105, %106
  store double %add24.i109, ptr %d9.i107, align 8
  %d10.i110 = getelementptr inbounds %struct.LotsOfLiveValues.0, ptr %d, i32 0, i32 9
  %107 = load double, ptr %d, align 8
  %d926.i111 = getelementptr inbounds %struct.LotsOfLiveValues.0, ptr %d, i32 0, i32 8
  %108 = load double, ptr %d926.i111, align 8
  %add27.i112 = fadd double %107, %108
  store double %add27.i112, ptr %d10.i110, align 8
  %d11.i113 = getelementptr inbounds %struct.LotsOfLiveValues.0, ptr %d, i32 0, i32 10
  %109 = load double, ptr %d, align 8
  %d1029.i114 = getelementptr inbounds %struct.LotsOfLiveValues.0, ptr %d, i32 0, i32 9
  %110 = load double, ptr %d1029.i114, align 8
  %add30.i115 = fadd double %109, %110
  store double %add30.i115, ptr %d11.i113, align 8
  %d1231.i116 = getelementptr inbounds %struct.LotsOfLiveValues.0, ptr %d, i32 0, i32 11
  %111 = load double, ptr %d, align 8
  %d1133.i117 = getelementptr inbounds %struct.LotsOfLiveValues.0, ptr %d, i32 0, i32 10
  %112 = load double, ptr %d1133.i117, align 8
  %add34.i118 = fadd double %111, %112
  store double %add34.i118, ptr %d1231.i116, align 8
  %d1335.i119 = getelementptr inbounds %struct.LotsOfLiveValues.0, ptr %d, i32 0, i32 12
  %113 = load double, ptr %d, align 8
  %d1237.i120 = getelementptr inbounds %struct.LotsOfLiveValues.0, ptr %d, i32 0, i32 11
  %114 = load double, ptr %d1237.i120, align 8
  %add38.i121 = fadd double %113, %114
  store double %add38.i121, ptr %d1335.i119, align 8
  %d1439.i122 = getelementptr inbounds %struct.LotsOfLiveValues.0, ptr %d, i32 0, i32 13
  %115 = load double, ptr %d, align 8
  %d1341.i123 = getelementptr inbounds %struct.LotsOfLiveValues.0, ptr %d, i32 0, i32 12
  %116 = load double, ptr %d1341.i123, align 8
  %add42.i124 = fadd double %115, %116
  store double %add42.i124, ptr %d1439.i122, align 8
  %d15.i125 = getelementptr inbounds %struct.LotsOfLiveValues.0, ptr %d, i32 0, i32 14
  %117 = load double, ptr %d, align 8
  %d1444.i126 = getelementptr inbounds %struct.LotsOfLiveValues.0, ptr %d, i32 0, i32 13
  %118 = load double, ptr %d1444.i126, align 8
  %add45.i127 = fadd double %117, %118
  store double %add45.i127, ptr %d15.i125, align 8
  %d16.i128 = getelementptr inbounds %struct.LotsOfLiveValues.0, ptr %d, i32 0, i32 15
  %119 = load double, ptr %d, align 8
  %d1547.i129 = getelementptr inbounds %struct.LotsOfLiveValues.0, ptr %d, i32 0, i32 14
  %120 = load double, ptr %d1547.i129, align 8
  %add48.i130 = fadd double %119, %120
  store double %add48.i130, ptr %d16.i128, align 8
  %d1749.i131 = getelementptr inbounds %struct.LotsOfLiveValues.0, ptr %d, i32 0, i32 16
  %121 = load double, ptr %d, align 8
  %d1651.i132 = getelementptr inbounds %struct.LotsOfLiveValues.0, ptr %d, i32 0, i32 15
  %122 = load double, ptr %d1651.i132, align 8
  %add52.i133 = fadd double %121, %122
  store double %add52.i133, ptr %d1749.i131, align 8
  %d18.i134 = getelementptr inbounds %struct.LotsOfLiveValues.0, ptr %d, i32 0, i32 17
  %123 = load double, ptr %d, align 8
  %d1754.i135 = getelementptr inbounds %struct.LotsOfLiveValues.0, ptr %d, i32 0, i32 16
  %124 = load double, ptr %d1754.i135, align 8
  %add55.i136 = fadd double %123, %124
  store double %add55.i136, ptr %d18.i134, align 8
  %d19.i137 = getelementptr inbounds %struct.LotsOfLiveValues.0, ptr %d, i32 0, i32 18
  %125 = load double, ptr %d, align 8
  %d1857.i138 = getelementptr inbounds %struct.LotsOfLiveValues.0, ptr %d, i32 0, i32 17
  %126 = load double, ptr %d1857.i138, align 8
  %add58.i139 = fadd double %125, %126
  store double %add58.i139, ptr %d19.i137, align 8
  %d20.i140 = getelementptr inbounds %struct.LotsOfLiveValues.0, ptr %d, i32 0, i32 19
  %127 = load double, ptr %d, align 8
  %d1960.i141 = getelementptr inbounds %struct.LotsOfLiveValues.0, ptr %d, i32 0, i32 18
  %128 = load double, ptr %d1960.i141, align 8
  %add61.i142 = fadd double %127, %128
  store double %add61.i142, ptr %d20.i140, align 8
  %d21.i143 = getelementptr inbounds %struct.LotsOfLiveValues.0, ptr %d, i32 0, i32 20
  %129 = load double, ptr %d, align 8
  %d2063.i144 = getelementptr inbounds %struct.LotsOfLiveValues.0, ptr %d, i32 0, i32 19
  %130 = load double, ptr %d2063.i144, align 8
  %add64.i145 = fadd double %129, %130
  store double %add64.i145, ptr %d21.i143, align 8
  %d22.i146 = getelementptr inbounds %struct.LotsOfLiveValues.0, ptr %d, i32 0, i32 21
  %131 = load double, ptr %d, align 8
  %d2166.i147 = getelementptr inbounds %struct.LotsOfLiveValues.0, ptr %d, i32 0, i32 20
  %132 = load double, ptr %d2166.i147, align 8
  %add67.i148 = fadd double %131, %132
  store double %add67.i148, ptr %d22.i146, align 8
  %d23.i149 = getelementptr inbounds %struct.LotsOfLiveValues.0, ptr %d, i32 0, i32 22
  %133 = load double, ptr %d, align 8
  %d2269.i150 = getelementptr inbounds %struct.LotsOfLiveValues.0, ptr %d, i32 0, i32 21
  %134 = load double, ptr %d2269.i150, align 8
  %add70.i151 = fadd double %133, %134
  store double %add70.i151, ptr %d23.i149, align 8
  %d24.i152 = getelementptr inbounds %struct.LotsOfLiveValues.0, ptr %d, i32 0, i32 23
  %135 = load double, ptr %d, align 8
  %d2372.i153 = getelementptr inbounds %struct.LotsOfLiveValues.0, ptr %d, i32 0, i32 22
  %136 = load double, ptr %d2372.i153, align 8
  %add73.i154 = fadd double %135, %136
  store double %add73.i154, ptr %d24.i152, align 8
  %d2574.i155 = getelementptr inbounds %struct.LotsOfLiveValues.0, ptr %d, i32 0, i32 24
  %137 = load double, ptr %d, align 8
  %d2476.i156 = getelementptr inbounds %struct.LotsOfLiveValues.0, ptr %d, i32 0, i32 23
  %138 = load double, ptr %d2476.i156, align 8
  %add77.i157 = fadd double %137, %138
  store double %add77.i157, ptr %d2574.i155, align 8
  %d26.i158 = getelementptr inbounds %struct.LotsOfLiveValues.0, ptr %d, i32 0, i32 25
  %139 = load double, ptr %d, align 8
  %d2579.i159 = getelementptr inbounds %struct.LotsOfLiveValues.0, ptr %d, i32 0, i32 24
  %140 = load double, ptr %d2579.i159, align 8
  %add80.i160 = fadd double %139, %140
  store double %add80.i160, ptr %d26.i158, align 8
  %d27.i161 = getelementptr inbounds %struct.LotsOfLiveValues.0, ptr %d, i32 0, i32 26
  %141 = load double, ptr %d, align 8
  %d2682.i162 = getelementptr inbounds %struct.LotsOfLiveValues.0, ptr %d, i32 0, i32 25
  %142 = load double, ptr %d2682.i162, align 8
  %add83.i163 = fadd double %141, %142
  store double %add83.i163, ptr %d27.i161, align 8
  %d28.i164 = getelementptr inbounds %struct.LotsOfLiveValues.0, ptr %d, i32 0, i32 27
  %143 = load double, ptr %d, align 8
  %d2785.i165 = getelementptr inbounds %struct.LotsOfLiveValues.0, ptr %d, i32 0, i32 26
  %144 = load double, ptr %d2785.i165, align 8
  %add86.i166 = fadd double %143, %144
  store double %add86.i166, ptr %d28.i164, align 8
  %d29.i167 = getelementptr inbounds %struct.LotsOfLiveValues.0, ptr %d, i32 0, i32 28
  %145 = load double, ptr %d, align 8
  %d2888.i168 = getelementptr inbounds %struct.LotsOfLiveValues.0, ptr %d, i32 0, i32 27
  %146 = load double, ptr %d2888.i168, align 8
  %add89.i169 = fadd double %145, %146
  store double %add89.i169, ptr %d29.i167, align 8
  %d30.i170 = getelementptr inbounds %struct.LotsOfLiveValues.0, ptr %d, i32 0, i32 29
  %147 = load double, ptr %d, align 8
  %d2991.i171 = getelementptr inbounds %struct.LotsOfLiveValues.0, ptr %d, i32 0, i32 28
  %148 = load double, ptr %d2991.i171, align 8
  %add92.i172 = fadd double %147, %148
  store double %add92.i172, ptr %d30.i170, align 8
  %d31.i173 = getelementptr inbounds %struct.LotsOfLiveValues.0, ptr %d, i32 0, i32 30
  %149 = load double, ptr %d, align 8
  %d3094.i174 = getelementptr inbounds %struct.LotsOfLiveValues.0, ptr %d, i32 0, i32 29
  %150 = load double, ptr %d3094.i174, align 8
  %add95.i175 = fadd double %149, %150
  store double %add95.i175, ptr %d31.i173, align 8
  %d32.i176 = getelementptr inbounds %struct.LotsOfLiveValues.0, ptr %d, i32 0, i32 31
  %151 = load double, ptr %d, align 8
  %d3197.i177 = getelementptr inbounds %struct.LotsOfLiveValues.0, ptr %d, i32 0, i32 30
  %152 = load double, ptr %d3197.i177, align 8
  %add98.i178 = fadd double %151, %152
  store double %add98.i178, ptr %d32.i176, align 8
  %d33.i179 = getelementptr inbounds %struct.LotsOfLiveValues.0, ptr %d, i32 0, i32 32
  %153 = load double, ptr %d, align 8
  %d32100.i180 = getelementptr inbounds %struct.LotsOfLiveValues.0, ptr %d, i32 0, i32 31
  %154 = load double, ptr %d32100.i180, align 8
  %add101.i181 = fadd double %153, %154
  store double %add101.i181, ptr %d33.i179, align 8
  %d34.i182 = getelementptr inbounds %struct.LotsOfLiveValues.0, ptr %d, i32 0, i32 33
  %155 = load double, ptr %d, align 8
  %d33103.i183 = getelementptr inbounds %struct.LotsOfLiveValues.0, ptr %d, i32 0, i32 32
  %156 = load double, ptr %d33103.i183, align 8
  %add104.i184 = fadd double %155, %156
  store double %add104.i184, ptr %d34.i182, align 8
  %d35.i185 = getelementptr inbounds %struct.LotsOfLiveValues.0, ptr %d, i32 0, i32 34
  %157 = load double, ptr %d, align 8
  %d34106.i186 = getelementptr inbounds %struct.LotsOfLiveValues.0, ptr %d, i32 0, i32 33
  %158 = load double, ptr %d34106.i186, align 8
  %add107.i187 = fadd double %157, %158
  store double %add107.i187, ptr %d35.i185, align 8
  %d36.i188 = getelementptr inbounds %struct.LotsOfLiveValues.0, ptr %d, i32 0, i32 35
  %159 = load double, ptr %d, align 8
  %d35109.i189 = getelementptr inbounds %struct.LotsOfLiveValues.0, ptr %d, i32 0, i32 34
  %160 = load double, ptr %d35109.i189, align 8
  %add110.i190 = fadd double %159, %160
  store double %add110.i190, ptr %d36.i188, align 8
  %d37.i191 = getelementptr inbounds %struct.LotsOfLiveValues.0, ptr %d, i32 0, i32 36
  %161 = load double, ptr %d, align 8
  %d36112.i192 = getelementptr inbounds %struct.LotsOfLiveValues.0, ptr %d, i32 0, i32 35
  %162 = load double, ptr %d36112.i192, align 8
  %add113.i193 = fadd double %161, %162
  store double %add113.i193, ptr %d37.i191, align 8
  %d38114.i194 = getelementptr inbounds %struct.LotsOfLiveValues.0, ptr %d, i32 0, i32 37
  %163 = load double, ptr %d, align 8
  %d37116.i195 = getelementptr inbounds %struct.LotsOfLiveValues.0, ptr %d, i32 0, i32 36
  %164 = load double, ptr %d37116.i195, align 8
  %add117.i196 = fadd double %163, %164
  store double %add117.i196, ptr %d38114.i194, align 8
  %d39.i197 = getelementptr inbounds %struct.LotsOfLiveValues.0, ptr %d, i32 0, i32 38
  %165 = load double, ptr %d, align 8
  %d38119.i198 = getelementptr inbounds %struct.LotsOfLiveValues.0, ptr %d, i32 0, i32 37
  %166 = load double, ptr %d38119.i198, align 8
  %add120.i199 = fadd double %165, %166
  store double %add120.i199, ptr %d39.i197, align 8
  %d39.i209 = getelementptr inbounds %struct.LotsOfLiveValues, ptr %i, i32 0, i32 38
  %167 = load i32, ptr %d39.i209, align 4
  %d38.i210 = getelementptr inbounds %struct.LotsOfLiveValues, ptr %i, i32 0, i32 37
  %168 = load i32, ptr %d38.i210, align 4
  %div.i = sdiv i32 %167, %168
  %d37.i211 = getelementptr inbounds %struct.LotsOfLiveValues, ptr %i, i32 0, i32 36
  %169 = load i32, ptr %d37.i211, align 4
  %div2.i = sdiv i32 %div.i, %169
  %d36.i212 = getelementptr inbounds %struct.LotsOfLiveValues, ptr %i, i32 0, i32 35
  %170 = load i32, ptr %d36.i212, align 4
  %div3.i = sdiv i32 %div2.i, %170
  %d35.i213 = getelementptr inbounds %struct.LotsOfLiveValues, ptr %i, i32 0, i32 34
  %171 = load i32, ptr %d35.i213, align 4
  %div4.i = sdiv i32 %div3.i, %171
  %d34.i214 = getelementptr inbounds %struct.LotsOfLiveValues, ptr %i, i32 0, i32 33
  %172 = load i32, ptr %d34.i214, align 4
  %div5.i = sdiv i32 %div4.i, %172
  %d33.i215 = getelementptr inbounds %struct.LotsOfLiveValues, ptr %i, i32 0, i32 32
  %173 = load i32, ptr %d33.i215, align 4
  %div6.i = sdiv i32 %div5.i, %173
  %d32.i216 = getelementptr inbounds %struct.LotsOfLiveValues, ptr %i, i32 0, i32 31
  %174 = load i32, ptr %d32.i216, align 4
  %div7.i = sdiv i32 %div6.i, %174
  %d31.i217 = getelementptr inbounds %struct.LotsOfLiveValues, ptr %i, i32 0, i32 30
  %175 = load i32, ptr %d31.i217, align 4
  %div8.i = sdiv i32 %div7.i, %175
  %d30.i218 = getelementptr inbounds %struct.LotsOfLiveValues, ptr %i, i32 0, i32 29
  %176 = load i32, ptr %d30.i218, align 4
  %div9.i = sdiv i32 %div8.i, %176
  %d29.i219 = getelementptr inbounds %struct.LotsOfLiveValues, ptr %i, i32 0, i32 28
  %177 = load i32, ptr %d29.i219, align 4
  %div10.i = sdiv i32 %div9.i, %177
  %d28.i220 = getelementptr inbounds %struct.LotsOfLiveValues, ptr %i, i32 0, i32 27
  %178 = load i32, ptr %d28.i220, align 4
  %div11.i = sdiv i32 %div10.i, %178
  %d27.i221 = getelementptr inbounds %struct.LotsOfLiveValues, ptr %i, i32 0, i32 26
  %179 = load i32, ptr %d27.i221, align 4
  %div12.i = sdiv i32 %div11.i, %179
  %d26.i222 = getelementptr inbounds %struct.LotsOfLiveValues, ptr %i, i32 0, i32 25
  %180 = load i32, ptr %d26.i222, align 4
  %div13.i = sdiv i32 %div12.i, %180
  %d25.i223 = getelementptr inbounds %struct.LotsOfLiveValues, ptr %i, i32 0, i32 24
  %181 = load i32, ptr %d25.i223, align 4
  %div14.i = sdiv i32 %div13.i, %181
  %d24.i224 = getelementptr inbounds %struct.LotsOfLiveValues, ptr %i, i32 0, i32 23
  %182 = load i32, ptr %d24.i224, align 4
  %div15.i = sdiv i32 %div14.i, %182
  %d23.i225 = getelementptr inbounds %struct.LotsOfLiveValues, ptr %i, i32 0, i32 22
  %183 = load i32, ptr %d23.i225, align 4
  %div16.i = sdiv i32 %div15.i, %183
  %d22.i226 = getelementptr inbounds %struct.LotsOfLiveValues, ptr %i, i32 0, i32 21
  %184 = load i32, ptr %d22.i226, align 4
  %div17.i = sdiv i32 %div16.i, %184
  %d21.i227 = getelementptr inbounds %struct.LotsOfLiveValues, ptr %i, i32 0, i32 20
  %185 = load i32, ptr %d21.i227, align 4
  %div18.i = sdiv i32 %div17.i, %185
  %d20.i228 = getelementptr inbounds %struct.LotsOfLiveValues, ptr %i, i32 0, i32 19
  %186 = load i32, ptr %d20.i228, align 4
  %div19.i = sdiv i32 %div18.i, %186
  %d19.i229 = getelementptr inbounds %struct.LotsOfLiveValues, ptr %i, i32 0, i32 18
  %187 = load i32, ptr %d19.i229, align 4
  %div20.i = sdiv i32 %div19.i, %187
  %d18.i230 = getelementptr inbounds %struct.LotsOfLiveValues, ptr %i, i32 0, i32 17
  %188 = load i32, ptr %d18.i230, align 4
  %div21.i = sdiv i32 %div20.i, %188
  %d17.i = getelementptr inbounds %struct.LotsOfLiveValues, ptr %i, i32 0, i32 16
  %189 = load i32, ptr %d17.i, align 4
  %div22.i = sdiv i32 %div21.i, %189
  %d16.i231 = getelementptr inbounds %struct.LotsOfLiveValues, ptr %i, i32 0, i32 15
  %190 = load i32, ptr %d16.i231, align 4
  %div23.i = sdiv i32 %div22.i, %190
  %d15.i232 = getelementptr inbounds %struct.LotsOfLiveValues, ptr %i, i32 0, i32 14
  %191 = load i32, ptr %d15.i232, align 4
  %div24.i = sdiv i32 %div23.i, %191
  %d14.i = getelementptr inbounds %struct.LotsOfLiveValues, ptr %i, i32 0, i32 13
  %192 = load i32, ptr %d14.i, align 4
  %div25.i = sdiv i32 %div24.i, %192
  %d13.i = getelementptr inbounds %struct.LotsOfLiveValues, ptr %i, i32 0, i32 12
  %193 = load i32, ptr %d13.i, align 4
  %div26.i = sdiv i32 %div25.i, %193
  %d12.i = getelementptr inbounds %struct.LotsOfLiveValues, ptr %i, i32 0, i32 11
  %194 = load i32, ptr %d12.i, align 4
  %div27.i = sdiv i32 %div26.i, %194
  %d11.i233 = getelementptr inbounds %struct.LotsOfLiveValues, ptr %i, i32 0, i32 10
  %195 = load i32, ptr %d11.i233, align 4
  %div28.i = sdiv i32 %div27.i, %195
  %d10.i234 = getelementptr inbounds %struct.LotsOfLiveValues, ptr %i, i32 0, i32 9
  %196 = load i32, ptr %d10.i234, align 4
  %div29.i = sdiv i32 %div28.i, %196
  %d9.i235 = getelementptr inbounds %struct.LotsOfLiveValues, ptr %i, i32 0, i32 8
  %197 = load i32, ptr %d9.i235, align 4
  %div30.i = sdiv i32 %div29.i, %197
  %d8.i236 = getelementptr inbounds %struct.LotsOfLiveValues, ptr %i, i32 0, i32 7
  %198 = load i32, ptr %d8.i236, align 4
  %div31.i = sdiv i32 %div30.i, %198
  %d7.i237 = getelementptr inbounds %struct.LotsOfLiveValues, ptr %i, i32 0, i32 6
  %199 = load i32, ptr %d7.i237, align 4
  %div32.i = sdiv i32 %div31.i, %199
  %d6.i238 = getelementptr inbounds %struct.LotsOfLiveValues, ptr %i, i32 0, i32 5
  %200 = load i32, ptr %d6.i238, align 4
  %div33.i = sdiv i32 %div32.i, %200
  %d5.i239 = getelementptr inbounds %struct.LotsOfLiveValues, ptr %i, i32 0, i32 4
  %201 = load i32, ptr %d5.i239, align 4
  %div34.i = sdiv i32 %div33.i, %201
  %d4.i240 = getelementptr inbounds %struct.LotsOfLiveValues, ptr %i, i32 0, i32 3
  %202 = load i32, ptr %d4.i240, align 4
  %div35.i = sdiv i32 %div34.i, %202
  %d3.i241 = getelementptr inbounds %struct.LotsOfLiveValues, ptr %i, i32 0, i32 2
  %203 = load i32, ptr %d3.i241, align 4
  %div36.i = sdiv i32 %div35.i, %203
  %d2.i242 = getelementptr inbounds %struct.LotsOfLiveValues, ptr %i, i32 0, i32 1
  %204 = load i32, ptr %d2.i242, align 4
  %div37.i = sdiv i32 %div36.i, %204
  %205 = load i32, ptr %i, align 4
  %div38.i = sdiv i32 %div37.i, %205
  %206 = load i32, ptr %i, align 4
  %207 = load i32, ptr %i, align 4
  %d2.i245 = getelementptr inbounds %struct.LotsOfLiveValues, ptr %i, i32 0, i32 1
  %208 = load i32, ptr %d2.i245, align 4
  %div.i246 = sdiv i32 %207, %208
  %d3.i247 = getelementptr inbounds %struct.LotsOfLiveValues, ptr %i, i32 0, i32 2
  %209 = load i32, ptr %d3.i247, align 4
  %div2.i248 = sdiv i32 %div.i246, %209
  %d4.i249 = getelementptr inbounds %struct.LotsOfLiveValues, ptr %i, i32 0, i32 3
  %210 = load i32, ptr %d4.i249, align 4
  %div3.i250 = sdiv i32 %div2.i248, %210
  %d5.i251 = getelementptr inbounds %struct.LotsOfLiveValues, ptr %i, i32 0, i32 4
  %211 = load i32, ptr %d5.i251, align 4
  %div4.i252 = sdiv i32 %div3.i250, %211
  %d6.i253 = getelementptr inbounds %struct.LotsOfLiveValues, ptr %i, i32 0, i32 5
  %212 = load i32, ptr %d6.i253, align 4
  %div5.i254 = sdiv i32 %div4.i252, %212
  %d7.i255 = getelementptr inbounds %struct.LotsOfLiveValues, ptr %i, i32 0, i32 6
  %213 = load i32, ptr %d7.i255, align 4
  %div6.i256 = sdiv i32 %div5.i254, %213
  %d8.i257 = getelementptr inbounds %struct.LotsOfLiveValues, ptr %i, i32 0, i32 7
  %214 = load i32, ptr %d8.i257, align 4
  %div7.i258 = sdiv i32 %div6.i256, %214
  %d9.i259 = getelementptr inbounds %struct.LotsOfLiveValues, ptr %i, i32 0, i32 8
  %215 = load i32, ptr %d9.i259, align 4
  %div8.i260 = sdiv i32 %div7.i258, %215
  %d10.i261 = getelementptr inbounds %struct.LotsOfLiveValues, ptr %i, i32 0, i32 9
  %216 = load i32, ptr %d10.i261, align 4
  %div9.i262 = sdiv i32 %div8.i260, %216
  %d11.i263 = getelementptr inbounds %struct.LotsOfLiveValues, ptr %i, i32 0, i32 10
  %217 = load i32, ptr %d11.i263, align 4
  %div10.i264 = sdiv i32 %div9.i262, %217
  %d12.i265 = getelementptr inbounds %struct.LotsOfLiveValues, ptr %i, i32 0, i32 11
  %218 = load i32, ptr %d12.i265, align 4
  %div11.i266 = sdiv i32 %div10.i264, %218
  %d13.i267 = getelementptr inbounds %struct.LotsOfLiveValues, ptr %i, i32 0, i32 12
  %219 = load i32, ptr %d13.i267, align 4
  %div12.i268 = sdiv i32 %div11.i266, %219
  %d14.i269 = getelementptr inbounds %struct.LotsOfLiveValues, ptr %i, i32 0, i32 13
  %220 = load i32, ptr %d14.i269, align 4
  %div13.i270 = sdiv i32 %div12.i268, %220
  %d15.i271 = getelementptr inbounds %struct.LotsOfLiveValues, ptr %i, i32 0, i32 14
  %221 = load i32, ptr %d15.i271, align 4
  %div14.i272 = sdiv i32 %div13.i270, %221
  %d16.i273 = getelementptr inbounds %struct.LotsOfLiveValues, ptr %i, i32 0, i32 15
  %222 = load i32, ptr %d16.i273, align 4
  %div15.i274 = sdiv i32 %div14.i272, %222
  %d17.i275 = getelementptr inbounds %struct.LotsOfLiveValues, ptr %i, i32 0, i32 16
  %223 = load i32, ptr %d17.i275, align 4
  %div16.i276 = sdiv i32 %div15.i274, %223
  %d18.i277 = getelementptr inbounds %struct.LotsOfLiveValues, ptr %i, i32 0, i32 17
  %224 = load i32, ptr %d18.i277, align 4
  %div17.i278 = sdiv i32 %div16.i276, %224
  %d19.i279 = getelementptr inbounds %struct.LotsOfLiveValues, ptr %i, i32 0, i32 18
  %225 = load i32, ptr %d19.i279, align 4
  %div18.i280 = sdiv i32 %div17.i278, %225
  %d20.i281 = getelementptr inbounds %struct.LotsOfLiveValues, ptr %i, i32 0, i32 19
  %226 = load i32, ptr %d20.i281, align 4
  %div19.i282 = sdiv i32 %div18.i280, %226
  %d21.i283 = getelementptr inbounds %struct.LotsOfLiveValues, ptr %i, i32 0, i32 20
  %227 = load i32, ptr %d21.i283, align 4
  %div20.i284 = sdiv i32 %div19.i282, %227
  %d22.i285 = getelementptr inbounds %struct.LotsOfLiveValues, ptr %i, i32 0, i32 21
  %228 = load i32, ptr %d22.i285, align 4
  %div21.i286 = sdiv i32 %div20.i284, %228
  %d23.i287 = getelementptr inbounds %struct.LotsOfLiveValues, ptr %i, i32 0, i32 22
  %229 = load i32, ptr %d23.i287, align 4
  %div22.i288 = sdiv i32 %div21.i286, %229
  %d24.i289 = getelementptr inbounds %struct.LotsOfLiveValues, ptr %i, i32 0, i32 23
  %230 = load i32, ptr %d24.i289, align 4
  %div23.i290 = sdiv i32 %div22.i288, %230
  %d25.i291 = getelementptr inbounds %struct.LotsOfLiveValues, ptr %i, i32 0, i32 24
  %231 = load i32, ptr %d25.i291, align 4
  %div24.i292 = sdiv i32 %div23.i290, %231
  %d26.i293 = getelementptr inbounds %struct.LotsOfLiveValues, ptr %i, i32 0, i32 25
  %232 = load i32, ptr %d26.i293, align 4
  %div25.i294 = sdiv i32 %div24.i292, %232
  %d27.i295 = getelementptr inbounds %struct.LotsOfLiveValues, ptr %i, i32 0, i32 26
  %233 = load i32, ptr %d27.i295, align 4
  %div26.i296 = sdiv i32 %div25.i294, %233
  %d28.i297 = getelementptr inbounds %struct.LotsOfLiveValues, ptr %i, i32 0, i32 27
  %234 = load i32, ptr %d28.i297, align 4
  %div27.i298 = sdiv i32 %div26.i296, %234
  %d29.i299 = getelementptr inbounds %struct.LotsOfLiveValues, ptr %i, i32 0, i32 28
  %235 = load i32, ptr %d29.i299, align 4
  %div28.i300 = sdiv i32 %div27.i298, %235
  %d30.i301 = getelementptr inbounds %struct.LotsOfLiveValues, ptr %i, i32 0, i32 29
  %236 = load i32, ptr %d30.i301, align 4
  %div29.i302 = sdiv i32 %div28.i300, %236
  %d31.i303 = getelementptr inbounds %struct.LotsOfLiveValues, ptr %i, i32 0, i32 30
  %237 = load i32, ptr %d31.i303, align 4
  %div30.i304 = sdiv i32 %div29.i302, %237
  %d32.i305 = getelementptr inbounds %struct.LotsOfLiveValues, ptr %i, i32 0, i32 31
  %238 = load i32, ptr %d32.i305, align 4
  %div31.i306 = sdiv i32 %div30.i304, %238
  %d33.i307 = getelementptr inbounds %struct.LotsOfLiveValues, ptr %i, i32 0, i32 32
  %239 = load i32, ptr %d33.i307, align 4
  %div32.i308 = sdiv i32 %div31.i306, %239
  %d34.i309 = getelementptr inbounds %struct.LotsOfLiveValues, ptr %i, i32 0, i32 33
  %240 = load i32, ptr %d34.i309, align 4
  %div33.i310 = sdiv i32 %div32.i308, %240
  %d35.i311 = getelementptr inbounds %struct.LotsOfLiveValues, ptr %i, i32 0, i32 34
  %241 = load i32, ptr %d35.i311, align 4
  %div34.i312 = sdiv i32 %div33.i310, %241
  %d36.i313 = getelementptr inbounds %struct.LotsOfLiveValues, ptr %i, i32 0, i32 35
  %242 = load i32, ptr %d36.i313, align 4
  %div35.i314 = sdiv i32 %div34.i312, %242
  %d37.i315 = getelementptr inbounds %struct.LotsOfLiveValues, ptr %i, i32 0, i32 36
  %243 = load i32, ptr %d37.i315, align 4
  %div36.i316 = sdiv i32 %div35.i314, %243
  %d38.i317 = getelementptr inbounds %struct.LotsOfLiveValues, ptr %i, i32 0, i32 37
  %244 = load i32, ptr %d38.i317, align 4
  %div37.i318 = sdiv i32 %div36.i316, %244
  %d39.i319 = getelementptr inbounds %struct.LotsOfLiveValues, ptr %i, i32 0, i32 38
  %245 = load i32, ptr %d39.i319, align 4
  %div38.i320 = sdiv i32 %div37.i318, %245
  %div39.i = sdiv i32 %div38.i320, %206
  %mul.i = mul nsw i32 %div38.i, %div39.i
  %d39.i323 = getelementptr inbounds %struct.LotsOfLiveValues.0, ptr %d, i32 0, i32 38
  %246 = load double, ptr %d39.i323, align 8
  %d38.i324 = getelementptr inbounds %struct.LotsOfLiveValues.0, ptr %d, i32 0, i32 37
  %247 = load double, ptr %d38.i324, align 8
  %div.i325 = fdiv double %246, %247
  %d37.i326 = getelementptr inbounds %struct.LotsOfLiveValues.0, ptr %d, i32 0, i32 36
  %248 = load double, ptr %d37.i326, align 8
  %div2.i327 = fdiv double %div.i325, %248
  %d36.i328 = getelementptr inbounds %struct.LotsOfLiveValues.0, ptr %d, i32 0, i32 35
  %249 = load double, ptr %d36.i328, align 8
  %div3.i329 = fdiv double %div2.i327, %249
  %d35.i330 = getelementptr inbounds %struct.LotsOfLiveValues.0, ptr %d, i32 0, i32 34
  %250 = load double, ptr %d35.i330, align 8
  %div4.i331 = fdiv double %div3.i329, %250
  %d34.i332 = getelementptr inbounds %struct.LotsOfLiveValues.0, ptr %d, i32 0, i32 33
  %251 = load double, ptr %d34.i332, align 8
  %div5.i333 = fdiv double %div4.i331, %251
  %d33.i334 = getelementptr inbounds %struct.LotsOfLiveValues.0, ptr %d, i32 0, i32 32
  %252 = load double, ptr %d33.i334, align 8
  %div6.i335 = fdiv double %div5.i333, %252
  %d32.i336 = getelementptr inbounds %struct.LotsOfLiveValues.0, ptr %d, i32 0, i32 31
  %253 = load double, ptr %d32.i336, align 8
  %div7.i337 = fdiv double %div6.i335, %253
  %d31.i338 = getelementptr inbounds %struct.LotsOfLiveValues.0, ptr %d, i32 0, i32 30
  %254 = load double, ptr %d31.i338, align 8
  %div8.i339 = fdiv double %div7.i337, %254
  %d30.i340 = getelementptr inbounds %struct.LotsOfLiveValues.0, ptr %d, i32 0, i32 29
  %255 = load double, ptr %d30.i340, align 8
  %div9.i341 = fdiv double %div8.i339, %255
  %d29.i342 = getelementptr inbounds %struct.LotsOfLiveValues.0, ptr %d, i32 0, i32 28
  %256 = load double, ptr %d29.i342, align 8
  %div10.i343 = fdiv double %div9.i341, %256
  %d28.i344 = getelementptr inbounds %struct.LotsOfLiveValues.0, ptr %d, i32 0, i32 27
  %257 = load double, ptr %d28.i344, align 8
  %div11.i345 = fdiv double %div10.i343, %257
  %d27.i346 = getelementptr inbounds %struct.LotsOfLiveValues.0, ptr %d, i32 0, i32 26
  %258 = load double, ptr %d27.i346, align 8
  %div12.i347 = fdiv double %div11.i345, %258
  %d26.i348 = getelementptr inbounds %struct.LotsOfLiveValues.0, ptr %d, i32 0, i32 25
  %259 = load double, ptr %d26.i348, align 8
  %div13.i349 = fdiv double %div12.i347, %259
  %d25.i350 = getelementptr inbounds %struct.LotsOfLiveValues.0, ptr %d, i32 0, i32 24
  %260 = load double, ptr %d25.i350, align 8
  %div14.i351 = fdiv double %div13.i349, %260
  %d24.i352 = getelementptr inbounds %struct.LotsOfLiveValues.0, ptr %d, i32 0, i32 23
  %261 = load double, ptr %d24.i352, align 8
  %div15.i353 = fdiv double %div14.i351, %261
  %d23.i354 = getelementptr inbounds %struct.LotsOfLiveValues.0, ptr %d, i32 0, i32 22
  %262 = load double, ptr %d23.i354, align 8
  %div16.i355 = fdiv double %div15.i353, %262
  %d22.i356 = getelementptr inbounds %struct.LotsOfLiveValues.0, ptr %d, i32 0, i32 21
  %263 = load double, ptr %d22.i356, align 8
  %div17.i357 = fdiv double %div16.i355, %263
  %d21.i358 = getelementptr inbounds %struct.LotsOfLiveValues.0, ptr %d, i32 0, i32 20
  %264 = load double, ptr %d21.i358, align 8
  %div18.i359 = fdiv double %div17.i357, %264
  %d20.i360 = getelementptr inbounds %struct.LotsOfLiveValues.0, ptr %d, i32 0, i32 19
  %265 = load double, ptr %d20.i360, align 8
  %div19.i361 = fdiv double %div18.i359, %265
  %d19.i362 = getelementptr inbounds %struct.LotsOfLiveValues.0, ptr %d, i32 0, i32 18
  %266 = load double, ptr %d19.i362, align 8
  %div20.i363 = fdiv double %div19.i361, %266
  %d18.i364 = getelementptr inbounds %struct.LotsOfLiveValues.0, ptr %d, i32 0, i32 17
  %267 = load double, ptr %d18.i364, align 8
  %div21.i365 = fdiv double %div20.i363, %267
  %d17.i366 = getelementptr inbounds %struct.LotsOfLiveValues.0, ptr %d, i32 0, i32 16
  %268 = load double, ptr %d17.i366, align 8
  %div22.i367 = fdiv double %div21.i365, %268
  %d16.i368 = getelementptr inbounds %struct.LotsOfLiveValues.0, ptr %d, i32 0, i32 15
  %269 = load double, ptr %d16.i368, align 8
  %div23.i369 = fdiv double %div22.i367, %269
  %d15.i370 = getelementptr inbounds %struct.LotsOfLiveValues.0, ptr %d, i32 0, i32 14
  %270 = load double, ptr %d15.i370, align 8
  %div24.i371 = fdiv double %div23.i369, %270
  %d14.i372 = getelementptr inbounds %struct.LotsOfLiveValues.0, ptr %d, i32 0, i32 13
  %271 = load double, ptr %d14.i372, align 8
  %div25.i373 = fdiv double %div24.i371, %271
  %d13.i374 = getelementptr inbounds %struct.LotsOfLiveValues.0, ptr %d, i32 0, i32 12
  %272 = load double, ptr %d13.i374, align 8
  %div26.i375 = fdiv double %div25.i373, %272
  %d12.i376 = getelementptr inbounds %struct.LotsOfLiveValues.0, ptr %d, i32 0, i32 11
  %273 = load double, ptr %d12.i376, align 8
  %div27.i377 = fdiv double %div26.i375, %273
  %d11.i378 = getelementptr inbounds %struct.LotsOfLiveValues.0, ptr %d, i32 0, i32 10
  %274 = load double, ptr %d11.i378, align 8
  %div28.i379 = fdiv double %div27.i377, %274
  %d10.i380 = getelementptr inbounds %struct.LotsOfLiveValues.0, ptr %d, i32 0, i32 9
  %275 = load double, ptr %d10.i380, align 8
  %div29.i381 = fdiv double %div28.i379, %275
  %d9.i382 = getelementptr inbounds %struct.LotsOfLiveValues.0, ptr %d, i32 0, i32 8
  %276 = load double, ptr %d9.i382, align 8
  %div30.i383 = fdiv double %div29.i381, %276
  %d8.i384 = getelementptr inbounds %struct.LotsOfLiveValues.0, ptr %d, i32 0, i32 7
  %277 = load double, ptr %d8.i384, align 8
  %div31.i385 = fdiv double %div30.i383, %277
  %d7.i386 = getelementptr inbounds %struct.LotsOfLiveValues.0, ptr %d, i32 0, i32 6
  %278 = load double, ptr %d7.i386, align 8
  %div32.i387 = fdiv double %div31.i385, %278
  %d6.i388 = getelementptr inbounds %struct.LotsOfLiveValues.0, ptr %d, i32 0, i32 5
  %279 = load double, ptr %d6.i388, align 8
  %div33.i389 = fdiv double %div32.i387, %279
  %d5.i390 = getelementptr inbounds %struct.LotsOfLiveValues.0, ptr %d, i32 0, i32 4
  %280 = load double, ptr %d5.i390, align 8
  %div34.i391 = fdiv double %div33.i389, %280
  %d4.i392 = getelementptr inbounds %struct.LotsOfLiveValues.0, ptr %d, i32 0, i32 3
  %281 = load double, ptr %d4.i392, align 8
  %div35.i393 = fdiv double %div34.i391, %281
  %d3.i394 = getelementptr inbounds %struct.LotsOfLiveValues.0, ptr %d, i32 0, i32 2
  %282 = load double, ptr %d3.i394, align 8
  %div36.i395 = fdiv double %div35.i393, %282
  %d2.i396 = getelementptr inbounds %struct.LotsOfLiveValues.0, ptr %d, i32 0, i32 1
  %283 = load double, ptr %d2.i396, align 8
  %div37.i397 = fdiv double %div36.i395, %283
  %284 = load double, ptr %d, align 8
  %div38.i398 = fdiv double %div37.i397, %284
  %285 = load double, ptr %d, align 8
  %286 = load double, ptr %d, align 8
  %d2.i402 = getelementptr inbounds %struct.LotsOfLiveValues.0, ptr %d, i32 0, i32 1
  %287 = load double, ptr %d2.i402, align 8
  %div.i403 = fdiv double %286, %287
  %d3.i404 = getelementptr inbounds %struct.LotsOfLiveValues.0, ptr %d, i32 0, i32 2
  %288 = load double, ptr %d3.i404, align 8
  %div2.i405 = fdiv double %div.i403, %288
  %d4.i406 = getelementptr inbounds %struct.LotsOfLiveValues.0, ptr %d, i32 0, i32 3
  %289 = load double, ptr %d4.i406, align 8
  %div3.i407 = fdiv double %div2.i405, %289
  %d5.i408 = getelementptr inbounds %struct.LotsOfLiveValues.0, ptr %d, i32 0, i32 4
  %290 = load double, ptr %d5.i408, align 8
  %div4.i409 = fdiv double %div3.i407, %290
  %d6.i410 = getelementptr inbounds %struct.LotsOfLiveValues.0, ptr %d, i32 0, i32 5
  %291 = load double, ptr %d6.i410, align 8
  %div5.i411 = fdiv double %div4.i409, %291
  %d7.i412 = getelementptr inbounds %struct.LotsOfLiveValues.0, ptr %d, i32 0, i32 6
  %292 = load double, ptr %d7.i412, align 8
  %div6.i413 = fdiv double %div5.i411, %292
  %d8.i414 = getelementptr inbounds %struct.LotsOfLiveValues.0, ptr %d, i32 0, i32 7
  %293 = load double, ptr %d8.i414, align 8
  %div7.i415 = fdiv double %div6.i413, %293
  %d9.i416 = getelementptr inbounds %struct.LotsOfLiveValues.0, ptr %d, i32 0, i32 8
  %294 = load double, ptr %d9.i416, align 8
  %div8.i417 = fdiv double %div7.i415, %294
  %d10.i418 = getelementptr inbounds %struct.LotsOfLiveValues.0, ptr %d, i32 0, i32 9
  %295 = load double, ptr %d10.i418, align 8
  %div9.i419 = fdiv double %div8.i417, %295
  %d11.i420 = getelementptr inbounds %struct.LotsOfLiveValues.0, ptr %d, i32 0, i32 10
  %296 = load double, ptr %d11.i420, align 8
  %div10.i421 = fdiv double %div9.i419, %296
  %d12.i422 = getelementptr inbounds %struct.LotsOfLiveValues.0, ptr %d, i32 0, i32 11
  %297 = load double, ptr %d12.i422, align 8
  %div11.i423 = fdiv double %div10.i421, %297
  %d13.i424 = getelementptr inbounds %struct.LotsOfLiveValues.0, ptr %d, i32 0, i32 12
  %298 = load double, ptr %d13.i424, align 8
  %div12.i425 = fdiv double %div11.i423, %298
  %d14.i426 = getelementptr inbounds %struct.LotsOfLiveValues.0, ptr %d, i32 0, i32 13
  %299 = load double, ptr %d14.i426, align 8
  %div13.i427 = fdiv double %div12.i425, %299
  %d15.i428 = getelementptr inbounds %struct.LotsOfLiveValues.0, ptr %d, i32 0, i32 14
  %300 = load double, ptr %d15.i428, align 8
  %div14.i429 = fdiv double %div13.i427, %300
  %d16.i430 = getelementptr inbounds %struct.LotsOfLiveValues.0, ptr %d, i32 0, i32 15
  %301 = load double, ptr %d16.i430, align 8
  %div15.i431 = fdiv double %div14.i429, %301
  %d17.i432 = getelementptr inbounds %struct.LotsOfLiveValues.0, ptr %d, i32 0, i32 16
  %302 = load double, ptr %d17.i432, align 8
  %div16.i433 = fdiv double %div15.i431, %302
  %d18.i434 = getelementptr inbounds %struct.LotsOfLiveValues.0, ptr %d, i32 0, i32 17
  %303 = load double, ptr %d18.i434, align 8
  %div17.i435 = fdiv double %div16.i433, %303
  %d19.i436 = getelementptr inbounds %struct.LotsOfLiveValues.0, ptr %d, i32 0, i32 18
  %304 = load double, ptr %d19.i436, align 8
  %div18.i437 = fdiv double %div17.i435, %304
  %d20.i438 = getelementptr inbounds %struct.LotsOfLiveValues.0, ptr %d, i32 0, i32 19
  %305 = load double, ptr %d20.i438, align 8
  %div19.i439 = fdiv double %div18.i437, %305
  %d21.i440 = getelementptr inbounds %struct.LotsOfLiveValues.0, ptr %d, i32 0, i32 20
  %306 = load double, ptr %d21.i440, align 8
  %div20.i441 = fdiv double %div19.i439, %306
  %d22.i442 = getelementptr inbounds %struct.LotsOfLiveValues.0, ptr %d, i32 0, i32 21
  %307 = load double, ptr %d22.i442, align 8
  %div21.i443 = fdiv double %div20.i441, %307
  %d23.i444 = getelementptr inbounds %struct.LotsOfLiveValues.0, ptr %d, i32 0, i32 22
  %308 = load double, ptr %d23.i444, align 8
  %div22.i445 = fdiv double %div21.i443, %308
  %d24.i446 = getelementptr inbounds %struct.LotsOfLiveValues.0, ptr %d, i32 0, i32 23
  %309 = load double, ptr %d24.i446, align 8
  %div23.i447 = fdiv double %div22.i445, %309
  %d25.i448 = getelementptr inbounds %struct.LotsOfLiveValues.0, ptr %d, i32 0, i32 24
  %310 = load double, ptr %d25.i448, align 8
  %div24.i449 = fdiv double %div23.i447, %310
  %d26.i450 = getelementptr inbounds %struct.LotsOfLiveValues.0, ptr %d, i32 0, i32 25
  %311 = load double, ptr %d26.i450, align 8
  %div25.i451 = fdiv double %div24.i449, %311
  %d27.i452 = getelementptr inbounds %struct.LotsOfLiveValues.0, ptr %d, i32 0, i32 26
  %312 = load double, ptr %d27.i452, align 8
  %div26.i453 = fdiv double %div25.i451, %312
  %d28.i454 = getelementptr inbounds %struct.LotsOfLiveValues.0, ptr %d, i32 0, i32 27
  %313 = load double, ptr %d28.i454, align 8
  %div27.i455 = fdiv double %div26.i453, %313
  %d29.i456 = getelementptr inbounds %struct.LotsOfLiveValues.0, ptr %d, i32 0, i32 28
  %314 = load double, ptr %d29.i456, align 8
  %div28.i457 = fdiv double %div27.i455, %314
  %d30.i458 = getelementptr inbounds %struct.LotsOfLiveValues.0, ptr %d, i32 0, i32 29
  %315 = load double, ptr %d30.i458, align 8
  %div29.i459 = fdiv double %div28.i457, %315
  %d31.i460 = getelementptr inbounds %struct.LotsOfLiveValues.0, ptr %d, i32 0, i32 30
  %316 = load double, ptr %d31.i460, align 8
  %div30.i461 = fdiv double %div29.i459, %316
  %d32.i462 = getelementptr inbounds %struct.LotsOfLiveValues.0, ptr %d, i32 0, i32 31
  %317 = load double, ptr %d32.i462, align 8
  %div31.i463 = fdiv double %div30.i461, %317
  %d33.i464 = getelementptr inbounds %struct.LotsOfLiveValues.0, ptr %d, i32 0, i32 32
  %318 = load double, ptr %d33.i464, align 8
  %div32.i465 = fdiv double %div31.i463, %318
  %d34.i466 = getelementptr inbounds %struct.LotsOfLiveValues.0, ptr %d, i32 0, i32 33
  %319 = load double, ptr %d34.i466, align 8
  %div33.i467 = fdiv double %div32.i465, %319
  %d35.i468 = getelementptr inbounds %struct.LotsOfLiveValues.0, ptr %d, i32 0, i32 34
  %320 = load double, ptr %d35.i468, align 8
  %div34.i469 = fdiv double %div33.i467, %320
  %d36.i470 = getelementptr inbounds %struct.LotsOfLiveValues.0, ptr %d, i32 0, i32 35
  %321 = load double, ptr %d36.i470, align 8
  %div35.i471 = fdiv double %div34.i469, %321
  %d37.i472 = getelementptr inbounds %struct.LotsOfLiveValues.0, ptr %d, i32 0, i32 36
  %322 = load double, ptr %d37.i472, align 8
  %div36.i473 = fdiv double %div35.i471, %322
  %d38.i474 = getelementptr inbounds %struct.LotsOfLiveValues.0, ptr %d, i32 0, i32 37
  %323 = load double, ptr %d38.i474, align 8
  %div37.i475 = fdiv double %div36.i473, %323
  %d39.i476 = getelementptr inbounds %struct.LotsOfLiveValues.0, ptr %d, i32 0, i32 38
  %324 = load double, ptr %d39.i476, align 8
  %div38.i477 = fdiv double %div37.i475, %324
  %div39.i478 = fdiv double %div38.i477, %285
  %mul.i206 = fmul double %div38.i398, %div39.i478
  %incdec.ptr54 = getelementptr inbounds %union.trace_element, ptr %trace.addr.0, i32 1
  %325 = load i32, ptr %trace.addr.0, align 8
  %conv55 = trunc i32 %325 to i8
  %conv56 = trunc i32 %mul.i to i8
  %call57 = call noundef zeroext i1 @_ZL35check_and_print_value_and_alignmentIcEbPKcS1_jPKvT_S4_(ptr noundef %variant, ptr noundef @.str.5, i32 noundef 1, ptr noundef null, i8 noundef signext %conv55, i8 noundef signext %conv56)
  %conv58 = zext i1 %call57 to i32
  %tobool59 = trunc i8 %problem_found.0 to i1
  %conv60 = zext i1 %tobool59 to i32
  %or61 = or i32 %conv60, %conv58
  %tobool62 = icmp ne i32 %or61, 0
  %frombool63 = zext i1 %tobool62 to i8
  %incdec.ptr64 = getelementptr inbounds %union.trace_element, ptr %incdec.ptr54, i32 1
  %326 = load double, ptr %incdec.ptr54, align 8
  %conv65 = fptosi double %326 to i8
  %conv66 = fptosi double %mul.i206 to i8
  %call67 = call noundef zeroext i1 @_ZL35check_and_print_value_and_alignmentIcEbPKcS1_jPKvT_S4_(ptr noundef %variant, ptr noundef @.str.6, i32 noundef 1, ptr noundef null, i8 noundef signext %conv65, i8 noundef signext %conv66)
  %conv68 = zext i1 %call67 to i32
  %tobool69 = trunc i8 %frombool63 to i1
  %conv70 = zext i1 %tobool69 to i32
  %or71 = or i32 %conv70, %conv68
  %tobool72 = icmp ne i32 %or71, 0
  %frombool73 = zext i1 %tobool72 to i8
  br label %if.end74

if.end74:                                         ; preds = %if.then47, %if.end
  %problem_found.1 = phi i8 [ %frombool73, %if.then47 ], [ %problem_found.0, %if.end ]
  %tobool75 = trunc i8 %frombool2 to i1
  %327 = zext i1 %tobool75 to i64
  %cond = select i1 %tobool75, i32 42, i32 -1
  %call76 = call noundef zeroext i1 @_ZL35check_and_print_value_and_alignmentIiEbPKcS1_jPKvT_S4_(ptr noundef %variant, ptr noundef @.str.7, i32 noundef 1, ptr noundef null, i32 noundef %exception_value, i32 noundef %cond)
  %conv77 = zext i1 %call76 to i32
  %tobool78 = trunc i8 %problem_found.1 to i1
  %conv79 = zext i1 %tobool78 to i32
  %or80 = or i32 %conv79, %conv77
  %tobool81 = icmp ne i32 %or80, 0
  %frombool82 = zext i1 %tobool81 to i8
  %tobool83 = trunc i8 %frombool82 to i1
  ret i1 %tobool83
}

; Function Attrs: mustprogress noinline uwtable
define internal noundef zeroext i1 @_ZL35check_and_print_value_and_alignmentIdEbPKcS1_jPKvT_S4_(ptr noundef %variant, ptr noundef %label, i32 noundef %expected_alignment, ptr noundef %p, double noundef %value, double noundef %expected_value) #1 {
entry:
  %call = call noundef zeroext i1 @_ZL24is_alignment_as_expectedPKvj(ptr noundef %p, i32 noundef %expected_alignment)
  %frombool = zext i1 %call to i8
  %cmp = fcmp oeq double %value, %expected_value
  %frombool1 = zext i1 %cmp to i8
  %call2 = call noundef nonnull align 8 dereferenceable(8) ptr @_ZStlsISt11char_traitsIcEERSt13basic_ostreamIcT_ES5_PKc(ptr noundef nonnull align 8 dereferenceable(8) @_ZSt4cout, ptr noundef %variant)
  %call3 = call noundef nonnull align 8 dereferenceable(8) ptr @_ZStlsISt11char_traitsIcEERSt13basic_ostreamIcT_ES5_PKc(ptr noundef nonnull align 8 dereferenceable(8) %call2, ptr noundef @.str.27)
  %call4 = call noundef nonnull align 8 dereferenceable(8) ptr @_ZStlsISt11char_traitsIcEERSt13basic_ostreamIcT_ES5_PKc(ptr noundef nonnull align 8 dereferenceable(8) %call3, ptr noundef %label)
  %call5 = call noundef nonnull align 8 dereferenceable(8) ptr @_ZStlsISt11char_traitsIcEERSt13basic_ostreamIcT_ES5_PKc(ptr noundef nonnull align 8 dereferenceable(8) %call4, ptr noundef @.str.28)
  %call6 = call noundef nonnull align 8 dereferenceable(8) ptr @_ZNSolsEj(ptr noundef nonnull align 8 dereferenceable(8) %call5, i32 noundef %expected_alignment)
  %tobool = trunc i8 %frombool to i1
  br i1 %tobool, label %land.lhs.true, label %if.else

land.lhs.true:                                    ; preds = %entry
  %tobool7 = trunc i8 %frombool1 to i1
  br i1 %tobool7, label %if.then, label %if.else

if.then:                                          ; preds = %land.lhs.true
  %call8 = call noundef nonnull align 8 dereferenceable(8) ptr @_ZStlsISt11char_traitsIcEERSt13basic_ostreamIcT_ES5_PKc(ptr noundef nonnull align 8 dereferenceable(8) @_ZSt4cout, ptr noundef @.str.29)
  br label %if.end20

if.else:                                          ; preds = %land.lhs.true, %entry
  %tobool9 = trunc i8 %frombool to i1
  br i1 %tobool9, label %if.end, label %if.then10

if.then10:                                        ; preds = %if.else
  %call11 = call noundef nonnull align 8 dereferenceable(8) ptr @_ZStlsISt11char_traitsIcEERSt13basic_ostreamIcT_ES5_PKc(ptr noundef nonnull align 8 dereferenceable(8) @_ZSt4cout, ptr noundef @.str.30)
  %call12 = call noundef nonnull align 8 dereferenceable(8) ptr @_ZNSolsEPKv(ptr noundef nonnull align 8 dereferenceable(8) %call11, ptr noundef %p)
  br label %if.end

if.end:                                           ; preds = %if.then10, %if.else
  %tobool13 = trunc i8 %frombool1 to i1
  br i1 %tobool13, label %if.end19, label %if.then14

if.then14:                                        ; preds = %if.end
  %call15 = call noundef nonnull align 8 dereferenceable(8) ptr @_ZStlsISt11char_traitsIcEERSt13basic_ostreamIcT_ES5_PKc(ptr noundef nonnull align 8 dereferenceable(8) @_ZSt4cout, ptr noundef @.str.31)
  %call16 = call noundef nonnull align 8 dereferenceable(8) ptr @_ZNSolsEd(ptr noundef nonnull align 8 dereferenceable(8) %call15, double noundef %value)
  %call17 = call noundef nonnull align 8 dereferenceable(8) ptr @_ZStlsISt11char_traitsIcEERSt13basic_ostreamIcT_ES5_PKc(ptr noundef nonnull align 8 dereferenceable(8) %call16, ptr noundef @.str.32)
  %call18 = call noundef nonnull align 8 dereferenceable(8) ptr @_ZNSolsEd(ptr noundef nonnull align 8 dereferenceable(8) %call17, double noundef %expected_value)
  br label %if.end19

if.end19:                                         ; preds = %if.then14, %if.end
  br label %if.end20

if.end20:                                         ; preds = %if.end19, %if.then
  %call21 = call noundef nonnull align 8 dereferenceable(8) ptr @_ZNSolsEPFRSoS_E(ptr noundef nonnull align 8 dereferenceable(8) @_ZSt4cout, ptr noundef @_ZSt4endlIcSt11char_traitsIcEERSt13basic_ostreamIT_T0_ES6_)
  %tobool22 = trunc i8 %frombool to i1
  br i1 %tobool22, label %land.rhs, label %land.end

land.rhs:                                         ; preds = %if.end20
  %tobool23 = trunc i8 %frombool1 to i1
  br label %land.end

land.end:                                         ; preds = %land.rhs, %if.end20
  %0 = phi i1 [ false, %if.end20 ], [ %tobool23, %land.rhs ]
  %lnot = xor i1 %0, true
  ret i1 %lnot
}

; Function Attrs: mustprogress noinline uwtable
define internal noundef zeroext i1 @_ZL35check_and_print_value_and_alignmentIiEbPKcS1_jPKvT_S4_(ptr noundef %variant, ptr noundef %label, i32 noundef %expected_alignment, ptr noundef %p, i32 noundef %value, i32 noundef %expected_value) #1 {
entry:
  %call = call noundef zeroext i1 @_ZL24is_alignment_as_expectedPKvj(ptr noundef %p, i32 noundef %expected_alignment)
  %frombool = zext i1 %call to i8
  %cmp = icmp eq i32 %value, %expected_value
  %frombool1 = zext i1 %cmp to i8
  %call2 = call noundef nonnull align 8 dereferenceable(8) ptr @_ZStlsISt11char_traitsIcEERSt13basic_ostreamIcT_ES5_PKc(ptr noundef nonnull align 8 dereferenceable(8) @_ZSt4cout, ptr noundef %variant)
  %call3 = call noundef nonnull align 8 dereferenceable(8) ptr @_ZStlsISt11char_traitsIcEERSt13basic_ostreamIcT_ES5_PKc(ptr noundef nonnull align 8 dereferenceable(8) %call2, ptr noundef @.str.27)
  %call4 = call noundef nonnull align 8 dereferenceable(8) ptr @_ZStlsISt11char_traitsIcEERSt13basic_ostreamIcT_ES5_PKc(ptr noundef nonnull align 8 dereferenceable(8) %call3, ptr noundef %label)
  %call5 = call noundef nonnull align 8 dereferenceable(8) ptr @_ZStlsISt11char_traitsIcEERSt13basic_ostreamIcT_ES5_PKc(ptr noundef nonnull align 8 dereferenceable(8) %call4, ptr noundef @.str.28)
  %call6 = call noundef nonnull align 8 dereferenceable(8) ptr @_ZNSolsEj(ptr noundef nonnull align 8 dereferenceable(8) %call5, i32 noundef %expected_alignment)
  %tobool = trunc i8 %frombool to i1
  br i1 %tobool, label %land.lhs.true, label %if.else

land.lhs.true:                                    ; preds = %entry
  %tobool7 = trunc i8 %frombool1 to i1
  br i1 %tobool7, label %if.then, label %if.else

if.then:                                          ; preds = %land.lhs.true
  %call8 = call noundef nonnull align 8 dereferenceable(8) ptr @_ZStlsISt11char_traitsIcEERSt13basic_ostreamIcT_ES5_PKc(ptr noundef nonnull align 8 dereferenceable(8) @_ZSt4cout, ptr noundef @.str.29)
  br label %if.end20

if.else:                                          ; preds = %land.lhs.true, %entry
  %tobool9 = trunc i8 %frombool to i1
  br i1 %tobool9, label %if.end, label %if.then10

if.then10:                                        ; preds = %if.else
  %call11 = call noundef nonnull align 8 dereferenceable(8) ptr @_ZStlsISt11char_traitsIcEERSt13basic_ostreamIcT_ES5_PKc(ptr noundef nonnull align 8 dereferenceable(8) @_ZSt4cout, ptr noundef @.str.30)
  %call12 = call noundef nonnull align 8 dereferenceable(8) ptr @_ZNSolsEPKv(ptr noundef nonnull align 8 dereferenceable(8) %call11, ptr noundef %p)
  br label %if.end

if.end:                                           ; preds = %if.then10, %if.else
  %tobool13 = trunc i8 %frombool1 to i1
  br i1 %tobool13, label %if.end19, label %if.then14

if.then14:                                        ; preds = %if.end
  %call15 = call noundef nonnull align 8 dereferenceable(8) ptr @_ZStlsISt11char_traitsIcEERSt13basic_ostreamIcT_ES5_PKc(ptr noundef nonnull align 8 dereferenceable(8) @_ZSt4cout, ptr noundef @.str.31)
  %call16 = call noundef nonnull align 8 dereferenceable(8) ptr @_ZNSolsEi(ptr noundef nonnull align 8 dereferenceable(8) %call15, i32 noundef %value)
  %call17 = call noundef nonnull align 8 dereferenceable(8) ptr @_ZStlsISt11char_traitsIcEERSt13basic_ostreamIcT_ES5_PKc(ptr noundef nonnull align 8 dereferenceable(8) %call16, ptr noundef @.str.32)
  %call18 = call noundef nonnull align 8 dereferenceable(8) ptr @_ZNSolsEi(ptr noundef nonnull align 8 dereferenceable(8) %call17, i32 noundef %expected_value)
  br label %if.end19

if.end19:                                         ; preds = %if.then14, %if.end
  br label %if.end20

if.end20:                                         ; preds = %if.end19, %if.then
  %call21 = call noundef nonnull align 8 dereferenceable(8) ptr @_ZNSolsEPFRSoS_E(ptr noundef nonnull align 8 dereferenceable(8) @_ZSt4cout, ptr noundef @_ZSt4endlIcSt11char_traitsIcEERSt13basic_ostreamIT_T0_ES6_)
  %tobool22 = trunc i8 %frombool to i1
  br i1 %tobool22, label %land.rhs, label %land.end

land.rhs:                                         ; preds = %if.end20
  %tobool23 = trunc i8 %frombool1 to i1
  br label %land.end

land.end:                                         ; preds = %land.rhs, %if.end20
  %0 = phi i1 [ false, %if.end20 ], [ %tobool23, %land.rhs ]
  %lnot = xor i1 %0, true
  ret i1 %lnot
}

; Function Attrs: mustprogress noinline uwtable
define internal noundef zeroext i1 @_ZL35check_and_print_value_and_alignmentIcEbPKcS1_jPKvT_S4_(ptr noundef %variant, ptr noundef %label, i32 noundef %expected_alignment, ptr noundef %p, i8 noundef signext %value, i8 noundef signext %expected_value) #1 {
entry:
  %call = call noundef zeroext i1 @_ZL24is_alignment_as_expectedPKvj(ptr noundef %p, i32 noundef %expected_alignment)
  %frombool = zext i1 %call to i8
  %conv = sext i8 %value to i32
  %conv1 = sext i8 %expected_value to i32
  %cmp = icmp eq i32 %conv, %conv1
  %frombool2 = zext i1 %cmp to i8
  %call3 = call noundef nonnull align 8 dereferenceable(8) ptr @_ZStlsISt11char_traitsIcEERSt13basic_ostreamIcT_ES5_PKc(ptr noundef nonnull align 8 dereferenceable(8) @_ZSt4cout, ptr noundef %variant)
  %call4 = call noundef nonnull align 8 dereferenceable(8) ptr @_ZStlsISt11char_traitsIcEERSt13basic_ostreamIcT_ES5_PKc(ptr noundef nonnull align 8 dereferenceable(8) %call3, ptr noundef @.str.27)
  %call5 = call noundef nonnull align 8 dereferenceable(8) ptr @_ZStlsISt11char_traitsIcEERSt13basic_ostreamIcT_ES5_PKc(ptr noundef nonnull align 8 dereferenceable(8) %call4, ptr noundef %label)
  %call6 = call noundef nonnull align 8 dereferenceable(8) ptr @_ZStlsISt11char_traitsIcEERSt13basic_ostreamIcT_ES5_PKc(ptr noundef nonnull align 8 dereferenceable(8) %call5, ptr noundef @.str.28)
  %call7 = call noundef nonnull align 8 dereferenceable(8) ptr @_ZNSolsEj(ptr noundef nonnull align 8 dereferenceable(8) %call6, i32 noundef %expected_alignment)
  %tobool = trunc i8 %frombool to i1
  br i1 %tobool, label %land.lhs.true, label %if.else

land.lhs.true:                                    ; preds = %entry
  %tobool8 = trunc i8 %frombool2 to i1
  br i1 %tobool8, label %if.then, label %if.else

if.then:                                          ; preds = %land.lhs.true
  %call9 = call noundef nonnull align 8 dereferenceable(8) ptr @_ZStlsISt11char_traitsIcEERSt13basic_ostreamIcT_ES5_PKc(ptr noundef nonnull align 8 dereferenceable(8) @_ZSt4cout, ptr noundef @.str.29)
  br label %if.end21

if.else:                                          ; preds = %land.lhs.true, %entry
  %tobool10 = trunc i8 %frombool to i1
  br i1 %tobool10, label %if.end, label %if.then11

if.then11:                                        ; preds = %if.else
  %call12 = call noundef nonnull align 8 dereferenceable(8) ptr @_ZStlsISt11char_traitsIcEERSt13basic_ostreamIcT_ES5_PKc(ptr noundef nonnull align 8 dereferenceable(8) @_ZSt4cout, ptr noundef @.str.30)
  %call13 = call noundef nonnull align 8 dereferenceable(8) ptr @_ZNSolsEPKv(ptr noundef nonnull align 8 dereferenceable(8) %call12, ptr noundef %p)
  br label %if.end

if.end:                                           ; preds = %if.then11, %if.else
  %tobool14 = trunc i8 %frombool2 to i1
  br i1 %tobool14, label %if.end20, label %if.then15

if.then15:                                        ; preds = %if.end
  %call16 = call noundef nonnull align 8 dereferenceable(8) ptr @_ZStlsISt11char_traitsIcEERSt13basic_ostreamIcT_ES5_PKc(ptr noundef nonnull align 8 dereferenceable(8) @_ZSt4cout, ptr noundef @.str.31)
  %call17 = call noundef nonnull align 8 dereferenceable(8) ptr @_ZStlsISt11char_traitsIcEERSt13basic_ostreamIcT_ES5_c(ptr noundef nonnull align 8 dereferenceable(8) %call16, i8 noundef signext %value)
  %call18 = call noundef nonnull align 8 dereferenceable(8) ptr @_ZStlsISt11char_traitsIcEERSt13basic_ostreamIcT_ES5_PKc(ptr noundef nonnull align 8 dereferenceable(8) %call17, ptr noundef @.str.32)
  %call19 = call noundef nonnull align 8 dereferenceable(8) ptr @_ZStlsISt11char_traitsIcEERSt13basic_ostreamIcT_ES5_c(ptr noundef nonnull align 8 dereferenceable(8) %call18, i8 noundef signext %expected_value)
  br label %if.end20

if.end20:                                         ; preds = %if.then15, %if.end
  br label %if.end21

if.end21:                                         ; preds = %if.end20, %if.then
  %call22 = call noundef nonnull align 8 dereferenceable(8) ptr @_ZNSolsEPFRSoS_E(ptr noundef nonnull align 8 dereferenceable(8) @_ZSt4cout, ptr noundef @_ZSt4endlIcSt11char_traitsIcEERSt13basic_ostreamIT_T0_ES6_)
  %tobool23 = trunc i8 %frombool to i1
  br i1 %tobool23, label %land.rhs, label %land.end

land.rhs:                                         ; preds = %if.end21
  %tobool24 = trunc i8 %frombool2 to i1
  br label %land.end

land.end:                                         ; preds = %land.rhs, %if.end21
  %0 = phi i1 [ false, %if.end21 ], [ %tobool24, %land.rhs ]
  %lnot = xor i1 %0, true
  ret i1 %lnot
}

; Function Attrs: noinline uwtable
define internal void @__cxx_global_var_init() #0 section ".text.startup" personality ptr @__gxx_personality_v0 {
entry:
  %agg.tmp = alloca %"class.std::initializer_list", align 8
  %ref.tmp = alloca [16 x ptr], align 8
  %ref.tmp1 = alloca %"class.std::allocator", align 1
  %arrayinit.begin = getelementptr inbounds [16 x ptr], ptr %ref.tmp, i64 0, i64 0
  call void @llvm.memcpy.p0.p0.i64(ptr align 8 %ref.tmp, ptr align 8 @constinit, i64 128, i1 false)
  %_M_array = getelementptr inbounds %"class.std::initializer_list", ptr %agg.tmp, i32 0, i32 0
  %arraystart = getelementptr inbounds [16 x ptr], ptr %ref.tmp, i64 0, i64 0
  store ptr %arraystart, ptr %_M_array, align 8
  %_M_len = getelementptr inbounds %"class.std::initializer_list", ptr %agg.tmp, i32 0, i32 1
  store i64 16, ptr %_M_len, align 8
  %0 = getelementptr inbounds { ptr, i64 }, ptr %agg.tmp, i32 0, i32 0
  %1 = load ptr, ptr %0, align 8
  %2 = getelementptr inbounds { ptr, i64 }, ptr %agg.tmp, i32 0, i32 1
  %3 = load i64, ptr %2, align 8
  invoke void @_ZNSt6vectorIPKcSaIS1_EEC2ESt16initializer_listIS1_ERKS2_(ptr noundef nonnull align 8 dereferenceable(24) @_ZL21testDescriptionHeader, ptr %1, i64 %3, ptr noundef nonnull align 1 dereferenceable(1) %ref.tmp1)
          to label %invoke.cont unwind label %lpad

invoke.cont:                                      ; preds = %entry
  call void @_ZNSt15__new_allocatorIPKcED2Ev(ptr noundef nonnull align 1 dereferenceable(1) %ref.tmp1) #4
  %4 = call i32 @__cxa_atexit(ptr @_ZNSt6vectorIPKcSaIS1_EED2Ev, ptr @_ZL21testDescriptionHeader, ptr @__dso_handle) #4
  ret void

lpad:                                             ; preds = %entry
  %5 = landingpad { ptr, i32 }
          cleanup
  %6 = extractvalue { ptr, i32 } %5, 0
  %7 = extractvalue { ptr, i32 } %5, 1
  call void @_ZNSt15__new_allocatorIPKcED2Ev(ptr noundef nonnull align 1 dereferenceable(1) %ref.tmp1) #4
  br label %eh.resume

eh.resume:                                        ; preds = %lpad
  %lpad.val = insertvalue { ptr, i32 } poison, ptr %6, 0
  %lpad.val2 = insertvalue { ptr, i32 } %lpad.val, i32 %7, 1
  resume { ptr, i32 } %lpad.val2
}

; Function Attrs: nocallback nofree nounwind willreturn memory(argmem: readwrite)
declare void @llvm.memcpy.p0.p0.i64(ptr noalias nocapture writeonly, ptr noalias nocapture readonly, i64, i1 immarg) #2

; Function Attrs: noinline uwtable
define linkonce_odr dso_local void @_ZNSt6vectorIPKcSaIS1_EEC2ESt16initializer_listIS1_ERKS2_(ptr noundef nonnull align 8 dereferenceable(24) %this, ptr %__l.coerce0, i64 %__l.coerce1, ptr noundef nonnull align 1 dereferenceable(1) %__a) unnamed_addr #0 comdat align 2 personality ptr @__gxx_personality_v0 {
entry:
  %__l = alloca %"class.std::initializer_list", align 8
  %0 = getelementptr inbounds { ptr, i64 }, ptr %__l, i32 0, i32 0
  store ptr %__l.coerce0, ptr %0, align 8
  %1 = getelementptr inbounds { ptr, i64 }, ptr %__l, i32 0, i32 1
  store i64 %__l.coerce1, ptr %1, align 8
  call void @_ZNSt12_Vector_baseIPKcSaIS1_EEC2ERKS2_(ptr noundef nonnull align 8 dereferenceable(24) %this, ptr noundef nonnull align 1 dereferenceable(1) %__a) #4
  %call = call noundef ptr @_ZNKSt16initializer_listIPKcE5beginEv(ptr noundef nonnull align 8 dereferenceable(16) %__l) #4
  %call2 = call noundef ptr @_ZNKSt16initializer_listIPKcE3endEv(ptr noundef nonnull align 8 dereferenceable(16) %__l) #4
  invoke void @_ZNSt6vectorIPKcSaIS1_EE19_M_range_initializeIPKS1_EEvT_S7_St20forward_iterator_tag(ptr noundef nonnull align 8 dereferenceable(24) %this, ptr noundef %call, ptr noundef %call2)
          to label %invoke.cont unwind label %lpad

invoke.cont:                                      ; preds = %entry
  ret void

lpad:                                             ; preds = %entry
  %2 = landingpad { ptr, i32 }
          cleanup
  %3 = extractvalue { ptr, i32 } %2, 0
  %4 = extractvalue { ptr, i32 } %2, 1
  call void @_ZNSt12_Vector_baseIPKcSaIS1_EED2Ev(ptr noundef nonnull align 8 dereferenceable(24) %this) #4
  br label %eh.resume

eh.resume:                                        ; preds = %lpad
  %lpad.val = insertvalue { ptr, i32 } poison, ptr %3, 0
  %lpad.val3 = insertvalue { ptr, i32 } %lpad.val, i32 %4, 1
  resume { ptr, i32 } %lpad.val3
}

declare i32 @__gxx_personality_v0(...)

; Function Attrs: noinline nounwind uwtable
define linkonce_odr dso_local void @_ZNSt6vectorIPKcSaIS1_EED2Ev(ptr noundef nonnull align 8 dereferenceable(24) %this) unnamed_addr #3 comdat align 2 personality ptr @__gxx_personality_v0 {
entry:
  %_M_impl = getelementptr inbounds %"struct.std::_Vector_base", ptr %this, i32 0, i32 0
  %_M_start = getelementptr inbounds %"struct.std::_Vector_base<const char *, std::allocator<const char *>>::_Vector_impl_data", ptr %_M_impl, i32 0, i32 0
  %0 = load ptr, ptr %_M_start, align 8
  %_M_impl2 = getelementptr inbounds %"struct.std::_Vector_base", ptr %this, i32 0, i32 0
  %_M_finish = getelementptr inbounds %"struct.std::_Vector_base<const char *, std::allocator<const char *>>::_Vector_impl_data", ptr %_M_impl2, i32 0, i32 1
  %1 = load ptr, ptr %_M_finish, align 8
  %call = call noundef nonnull align 1 dereferenceable(1) ptr @_ZNSt12_Vector_baseIPKcSaIS1_EE19_M_get_Tp_allocatorEv(ptr noundef nonnull align 8 dereferenceable(24) %this) #4
  invoke void @_ZSt8_DestroyIPPKcEvT_S3_(ptr noundef %0, ptr noundef %1)
          to label %_ZSt8_DestroyIPPKcS1_EvT_S3_RSaIT0_E.exit unwind label %terminate.lpad

_ZSt8_DestroyIPPKcS1_EvT_S3_RSaIT0_E.exit:        ; preds = %entry
  br label %invoke.cont

invoke.cont:                                      ; preds = %_ZSt8_DestroyIPPKcS1_EvT_S3_RSaIT0_E.exit
  call void @_ZNSt12_Vector_baseIPKcSaIS1_EED2Ev(ptr noundef nonnull align 8 dereferenceable(24) %this) #4
  ret void

terminate.lpad:                                   ; preds = %entry
  %2 = landingpad { ptr, i32 }
          catch ptr null
  %3 = extractvalue { ptr, i32 } %2, 0
  call void @__clang_call_terminate(ptr %3) #16
  unreachable
}

; Function Attrs: nounwind
declare i32 @__cxa_atexit(ptr, ptr, ptr) #4

; Function Attrs: noinline uwtable
define dso_local void @_Z24getTestDescriptionStringB5cxx11bbbbb(ptr noalias sret(%"class.std::__cxx11::basic_string") align 8 %agg.result, i1 noundef zeroext %overaligned_locals, i1 noundef zeroext %with_vla, i1 noundef zeroext %force_callee_save_and_spills, i1 noundef zeroext %ensure_args_go_on_stack, i1 noundef zeroext %throw_exception) #0 personality ptr @__gxx_personality_v0 {
entry:
  %ref.tmp = alloca %"class.std::__cxx11::basic_string", align 8
  %ref.tmp5 = alloca %"class.std::__cxx11::basic_string", align 8
  %ref.tmp6 = alloca %"class.std::__cxx11::basic_string", align 8
  %ref.tmp7 = alloca %"class.std::__cxx11::basic_string", align 8
  %ref.tmp8 = alloca %"class.std::__cxx11::basic_string", align 8
  %ref.tmp9 = alloca %"class.std::allocator.1", align 1
  %frombool = zext i1 %overaligned_locals to i8
  %frombool1 = zext i1 %with_vla to i8
  %frombool2 = zext i1 %force_callee_save_and_spills to i8
  %frombool3 = zext i1 %ensure_args_go_on_stack to i8
  %frombool4 = zext i1 %throw_exception to i8
  invoke void @_ZNSt7__cxx1112basic_stringIcSt11char_traitsIcESaIcEEC2IS3_EEPKcRKS3_(ptr noundef nonnull align 8 dereferenceable(32) %ref.tmp8, ptr noundef @.str.24, ptr noundef nonnull align 1 dereferenceable(1) %ref.tmp9)
          to label %invoke.cont unwind label %lpad

invoke.cont:                                      ; preds = %entry
  %tobool = trunc i8 %frombool to i1
  br i1 %tobool, label %cond.true, label %cond.false

cond.true:                                        ; preds = %invoke.cont
  br label %cond.end

cond.false:                                       ; preds = %invoke.cont
  br label %cond.end

cond.end:                                         ; preds = %cond.false, %cond.true
  %cond-lvalue = phi ptr [ @.str.25, %cond.true ], [ @.str.26, %cond.false ]
  %arraydecay = getelementptr inbounds [2 x i8], ptr %cond-lvalue, i64 0, i64 0
  invoke void @_ZStplIcSt11char_traitsIcESaIcEENSt7__cxx1112basic_stringIT_T0_T1_EEOS8_PKS5_(ptr sret(%"class.std::__cxx11::basic_string") align 8 %ref.tmp7, ptr noundef nonnull align 8 dereferenceable(32) %ref.tmp8, ptr noundef %arraydecay)
          to label %invoke.cont11 unwind label %lpad10

invoke.cont11:                                    ; preds = %cond.end
  %tobool12 = trunc i8 %frombool1 to i1
  br i1 %tobool12, label %cond.true13, label %cond.false14

cond.true13:                                      ; preds = %invoke.cont11
  br label %cond.end15

cond.false14:                                     ; preds = %invoke.cont11
  br label %cond.end15

cond.end15:                                       ; preds = %cond.false14, %cond.true13
  %cond-lvalue16 = phi ptr [ @.str.25, %cond.true13 ], [ @.str.26, %cond.false14 ]
  %arraydecay17 = getelementptr inbounds [2 x i8], ptr %cond-lvalue16, i64 0, i64 0
  invoke void @_ZStplIcSt11char_traitsIcESaIcEENSt7__cxx1112basic_stringIT_T0_T1_EEOS8_PKS5_(ptr sret(%"class.std::__cxx11::basic_string") align 8 %ref.tmp6, ptr noundef nonnull align 8 dereferenceable(32) %ref.tmp7, ptr noundef %arraydecay17)
          to label %invoke.cont19 unwind label %lpad18

invoke.cont19:                                    ; preds = %cond.end15
  %tobool20 = trunc i8 %frombool2 to i1
  br i1 %tobool20, label %cond.true21, label %cond.false22

cond.true21:                                      ; preds = %invoke.cont19
  br label %cond.end23

cond.false22:                                     ; preds = %invoke.cont19
  br label %cond.end23

cond.end23:                                       ; preds = %cond.false22, %cond.true21
  %cond-lvalue24 = phi ptr [ @.str.25, %cond.true21 ], [ @.str.26, %cond.false22 ]
  %arraydecay25 = getelementptr inbounds [2 x i8], ptr %cond-lvalue24, i64 0, i64 0
  invoke void @_ZStplIcSt11char_traitsIcESaIcEENSt7__cxx1112basic_stringIT_T0_T1_EEOS8_PKS5_(ptr sret(%"class.std::__cxx11::basic_string") align 8 %ref.tmp5, ptr noundef nonnull align 8 dereferenceable(32) %ref.tmp6, ptr noundef %arraydecay25)
          to label %invoke.cont27 unwind label %lpad26

invoke.cont27:                                    ; preds = %cond.end23
  %tobool28 = trunc i8 %frombool3 to i1
  br i1 %tobool28, label %cond.true29, label %cond.false30

cond.true29:                                      ; preds = %invoke.cont27
  br label %cond.end31

cond.false30:                                     ; preds = %invoke.cont27
  br label %cond.end31

cond.end31:                                       ; preds = %cond.false30, %cond.true29
  %cond-lvalue32 = phi ptr [ @.str.25, %cond.true29 ], [ @.str.26, %cond.false30 ]
  %arraydecay33 = getelementptr inbounds [2 x i8], ptr %cond-lvalue32, i64 0, i64 0
  invoke void @_ZStplIcSt11char_traitsIcESaIcEENSt7__cxx1112basic_stringIT_T0_T1_EEOS8_PKS5_(ptr sret(%"class.std::__cxx11::basic_string") align 8 %ref.tmp, ptr noundef nonnull align 8 dereferenceable(32) %ref.tmp5, ptr noundef %arraydecay33)
          to label %invoke.cont35 unwind label %lpad34

invoke.cont35:                                    ; preds = %cond.end31
  %tobool36 = trunc i8 %frombool4 to i1
  br i1 %tobool36, label %cond.true37, label %cond.false38

cond.true37:                                      ; preds = %invoke.cont35
  br label %cond.end39

cond.false38:                                     ; preds = %invoke.cont35
  br label %cond.end39

cond.end39:                                       ; preds = %cond.false38, %cond.true37
  %cond-lvalue40 = phi ptr [ @.str.25, %cond.true37 ], [ @.str.26, %cond.false38 ]
  %arraydecay41 = getelementptr inbounds [2 x i8], ptr %cond-lvalue40, i64 0, i64 0
  invoke void @_ZStplIcSt11char_traitsIcESaIcEENSt7__cxx1112basic_stringIT_T0_T1_EEOS8_PKS5_(ptr sret(%"class.std::__cxx11::basic_string") align 8 %agg.result, ptr noundef nonnull align 8 dereferenceable(32) %ref.tmp, ptr noundef %arraydecay41)
          to label %invoke.cont43 unwind label %lpad42

invoke.cont43:                                    ; preds = %cond.end39
  call void @_ZNSt7__cxx1112basic_stringIcSt11char_traitsIcESaIcEED1Ev(ptr noundef nonnull align 8 dereferenceable(32) %ref.tmp) #4
  call void @_ZNSt7__cxx1112basic_stringIcSt11char_traitsIcESaIcEED1Ev(ptr noundef nonnull align 8 dereferenceable(32) %ref.tmp5) #4
  call void @_ZNSt7__cxx1112basic_stringIcSt11char_traitsIcESaIcEED1Ev(ptr noundef nonnull align 8 dereferenceable(32) %ref.tmp6) #4
  call void @_ZNSt7__cxx1112basic_stringIcSt11char_traitsIcESaIcEED1Ev(ptr noundef nonnull align 8 dereferenceable(32) %ref.tmp7) #4
  call void @_ZNSt7__cxx1112basic_stringIcSt11char_traitsIcESaIcEED1Ev(ptr noundef nonnull align 8 dereferenceable(32) %ref.tmp8) #4
  call void @_ZNSt15__new_allocatorIcED2Ev(ptr noundef nonnull align 1 dereferenceable(1) %ref.tmp9) #4
  ret void

lpad:                                             ; preds = %entry
  %0 = landingpad { ptr, i32 }
          cleanup
  %1 = extractvalue { ptr, i32 } %0, 0
  %2 = extractvalue { ptr, i32 } %0, 1
  br label %ehcleanup47

lpad10:                                           ; preds = %cond.end
  %3 = landingpad { ptr, i32 }
          cleanup
  %4 = extractvalue { ptr, i32 } %3, 0
  %5 = extractvalue { ptr, i32 } %3, 1
  br label %ehcleanup46

lpad18:                                           ; preds = %cond.end15
  %6 = landingpad { ptr, i32 }
          cleanup
  %7 = extractvalue { ptr, i32 } %6, 0
  %8 = extractvalue { ptr, i32 } %6, 1
  br label %ehcleanup45

lpad26:                                           ; preds = %cond.end23
  %9 = landingpad { ptr, i32 }
          cleanup
  %10 = extractvalue { ptr, i32 } %9, 0
  %11 = extractvalue { ptr, i32 } %9, 1
  br label %ehcleanup44

lpad34:                                           ; preds = %cond.end31
  %12 = landingpad { ptr, i32 }
          cleanup
  %13 = extractvalue { ptr, i32 } %12, 0
  %14 = extractvalue { ptr, i32 } %12, 1
  br label %ehcleanup

lpad42:                                           ; preds = %cond.end39
  %15 = landingpad { ptr, i32 }
          cleanup
  %16 = extractvalue { ptr, i32 } %15, 0
  %17 = extractvalue { ptr, i32 } %15, 1
  call void @_ZNSt7__cxx1112basic_stringIcSt11char_traitsIcESaIcEED1Ev(ptr noundef nonnull align 8 dereferenceable(32) %ref.tmp) #4
  br label %ehcleanup

ehcleanup:                                        ; preds = %lpad42, %lpad34
  %exn.slot.0 = phi ptr [ %16, %lpad42 ], [ %13, %lpad34 ]
  %ehselector.slot.0 = phi i32 [ %17, %lpad42 ], [ %14, %lpad34 ]
  call void @_ZNSt7__cxx1112basic_stringIcSt11char_traitsIcESaIcEED1Ev(ptr noundef nonnull align 8 dereferenceable(32) %ref.tmp5) #4
  br label %ehcleanup44

ehcleanup44:                                      ; preds = %ehcleanup, %lpad26
  %exn.slot.1 = phi ptr [ %exn.slot.0, %ehcleanup ], [ %10, %lpad26 ]
  %ehselector.slot.1 = phi i32 [ %ehselector.slot.0, %ehcleanup ], [ %11, %lpad26 ]
  call void @_ZNSt7__cxx1112basic_stringIcSt11char_traitsIcESaIcEED1Ev(ptr noundef nonnull align 8 dereferenceable(32) %ref.tmp6) #4
  br label %ehcleanup45

ehcleanup45:                                      ; preds = %ehcleanup44, %lpad18
  %exn.slot.2 = phi ptr [ %exn.slot.1, %ehcleanup44 ], [ %7, %lpad18 ]
  %ehselector.slot.2 = phi i32 [ %ehselector.slot.1, %ehcleanup44 ], [ %8, %lpad18 ]
  call void @_ZNSt7__cxx1112basic_stringIcSt11char_traitsIcESaIcEED1Ev(ptr noundef nonnull align 8 dereferenceable(32) %ref.tmp7) #4
  br label %ehcleanup46

ehcleanup46:                                      ; preds = %ehcleanup45, %lpad10
  %exn.slot.3 = phi ptr [ %exn.slot.2, %ehcleanup45 ], [ %4, %lpad10 ]
  %ehselector.slot.3 = phi i32 [ %ehselector.slot.2, %ehcleanup45 ], [ %5, %lpad10 ]
  call void @_ZNSt7__cxx1112basic_stringIcSt11char_traitsIcESaIcEED1Ev(ptr noundef nonnull align 8 dereferenceable(32) %ref.tmp8) #4
  br label %ehcleanup47

ehcleanup47:                                      ; preds = %ehcleanup46, %lpad
  %exn.slot.4 = phi ptr [ %exn.slot.3, %ehcleanup46 ], [ %1, %lpad ]
  %ehselector.slot.4 = phi i32 [ %ehselector.slot.3, %ehcleanup46 ], [ %2, %lpad ]
  call void @_ZNSt15__new_allocatorIcED2Ev(ptr noundef nonnull align 1 dereferenceable(1) %ref.tmp9) #4
  br label %eh.resume

eh.resume:                                        ; preds = %ehcleanup47
  %lpad.val = insertvalue { ptr, i32 } poison, ptr %exn.slot.4, 0
  %lpad.val48 = insertvalue { ptr, i32 } %lpad.val, i32 %ehselector.slot.4, 1
  resume { ptr, i32 } %lpad.val48
}

; Function Attrs: mustprogress noinline uwtable
define linkonce_odr dso_local void @_ZStplIcSt11char_traitsIcESaIcEENSt7__cxx1112basic_stringIT_T0_T1_EEOS8_PKS5_(ptr noalias sret(%"class.std::__cxx11::basic_string") align 8 %agg.result, ptr noundef nonnull align 8 dereferenceable(32) %__lhs, ptr noundef %__rhs) #1 comdat {
entry:
  %call = call noundef nonnull align 8 dereferenceable(32) ptr @_ZNSt7__cxx1112basic_stringIcSt11char_traitsIcESaIcEE6appendEPKc(ptr noundef nonnull align 8 dereferenceable(32) %__lhs, ptr noundef %__rhs)
  call void @_ZNSt7__cxx1112basic_stringIcSt11char_traitsIcESaIcEEC1EOS4_(ptr noundef nonnull align 8 dereferenceable(32) %agg.result, ptr noundef nonnull align 8 dereferenceable(32) %call) #4
  ret void
}

; Function Attrs: noinline uwtable
define linkonce_odr dso_local void @_ZNSt7__cxx1112basic_stringIcSt11char_traitsIcESaIcEEC2IS3_EEPKcRKS3_(ptr noundef nonnull align 8 dereferenceable(32) %this, ptr noundef %__s, ptr noundef nonnull align 1 dereferenceable(1) %__a) unnamed_addr #0 comdat align 2 personality ptr @__gxx_personality_v0 {
entry:
  %_M_dataplus = getelementptr inbounds %"class.std::__cxx11::basic_string", ptr %this, i32 0, i32 0
  %call = call noundef ptr @_ZNSt7__cxx1112basic_stringIcSt11char_traitsIcESaIcEE13_M_local_dataEv(ptr noundef nonnull align 8 dereferenceable(32) %this)
  call void @_ZNSt7__cxx1112basic_stringIcSt11char_traitsIcESaIcEE12_Alloc_hiderC1EPcRKS3_(ptr noundef nonnull align 8 dereferenceable(8) %_M_dataplus, ptr noundef %call, ptr noundef nonnull align 1 dereferenceable(1) %__a)
  %cmp = icmp eq ptr %__s, null
  br i1 %cmp, label %if.then, label %if.end

if.then:                                          ; preds = %entry
  invoke void @_ZSt19__throw_logic_errorPKc(ptr noundef @.str.34) #17
          to label %invoke.cont unwind label %lpad

invoke.cont:                                      ; preds = %if.then
  unreachable

lpad:                                             ; preds = %invoke.cont2, %if.end, %if.then
  %0 = landingpad { ptr, i32 }
          cleanup
  %1 = extractvalue { ptr, i32 } %0, 0
  %2 = extractvalue { ptr, i32 } %0, 1
  call void @_ZNSt7__cxx1112basic_stringIcSt11char_traitsIcESaIcEE12_Alloc_hiderD2Ev(ptr noundef nonnull align 8 dereferenceable(8) %_M_dataplus) #4
  br label %eh.resume

if.end:                                           ; preds = %entry
  %call3 = invoke noundef i64 @_ZNSt11char_traitsIcE6lengthEPKc(ptr noundef %__s)
          to label %invoke.cont2 unwind label %lpad

invoke.cont2:                                     ; preds = %if.end
  %add.ptr = getelementptr inbounds i8, ptr %__s, i64 %call3
  invoke void @_ZNSt7__cxx1112basic_stringIcSt11char_traitsIcESaIcEE12_M_constructIPKcEEvT_S8_St20forward_iterator_tag(ptr noundef nonnull align 8 dereferenceable(32) %this, ptr noundef %__s, ptr noundef %add.ptr)
          to label %invoke.cont4 unwind label %lpad

invoke.cont4:                                     ; preds = %invoke.cont2
  ret void

eh.resume:                                        ; preds = %lpad
  %lpad.val = insertvalue { ptr, i32 } poison, ptr %1, 0
  %lpad.val5 = insertvalue { ptr, i32 } %lpad.val, i32 %2, 1
  resume { ptr, i32 } %lpad.val5
}

; Function Attrs: nounwind
declare void @_ZNSt7__cxx1112basic_stringIcSt11char_traitsIcESaIcEED1Ev(ptr noundef nonnull align 8 dereferenceable(32)) unnamed_addr #5

; Function Attrs: mustprogress noinline norecurse uwtable
define dso_local noundef i32 @main() #6 {
entry:
  %dumping_ground = alloca i32, align 4
  %__begin1 = alloca %"class.__gnu_cxx::__normal_iterator", align 8
  %__end1 = alloca %"class.__gnu_cxx::__normal_iterator", align 8
  %call = call ptr @_ZNKSt6vectorIPKcSaIS1_EE5beginEv(ptr noundef nonnull align 8 dereferenceable(24) @_ZL21testDescriptionHeader) #4
  %coerce.dive = getelementptr inbounds %"class.__gnu_cxx::__normal_iterator", ptr %__begin1, i32 0, i32 0
  store ptr %call, ptr %coerce.dive, align 8
  %call1 = call ptr @_ZNKSt6vectorIPKcSaIS1_EE3endEv(ptr noundef nonnull align 8 dereferenceable(24) @_ZL21testDescriptionHeader) #4
  %coerce.dive2 = getelementptr inbounds %"class.__gnu_cxx::__normal_iterator", ptr %__end1, i32 0, i32 0
  store ptr %call1, ptr %coerce.dive2, align 8
  br label %for.cond

for.cond:                                         ; preds = %for.inc, %entry
  %call3 = call noundef zeroext i1 @_ZN9__gnu_cxxneIPKPKcSt6vectorIS2_SaIS2_EEEEbRKNS_17__normal_iteratorIT_T0_EESD_(ptr noundef nonnull align 8 dereferenceable(8) %__begin1, ptr noundef nonnull align 8 dereferenceable(8) %__end1) #4
  br i1 %call3, label %for.body, label %for.end

for.body:                                         ; preds = %for.cond
  %call4 = call noundef nonnull align 8 dereferenceable(8) ptr @_ZNK9__gnu_cxx17__normal_iteratorIPKPKcSt6vectorIS2_SaIS2_EEEdeEv(ptr noundef nonnull align 8 dereferenceable(8) %__begin1) #4
  %0 = load ptr, ptr %call4, align 8
  %call5 = call noundef nonnull align 8 dereferenceable(8) ptr @_ZStlsISt11char_traitsIcEERSt13basic_ostreamIcT_ES5_PKc(ptr noundef nonnull align 8 dereferenceable(8) @_ZSt4cout, ptr noundef %0)
  %call6 = call noundef nonnull align 8 dereferenceable(8) ptr @_ZNSolsEPFRSoS_E(ptr noundef nonnull align 8 dereferenceable(8) %call5, ptr noundef @_ZSt4endlIcSt11char_traitsIcEERSt13basic_ostreamIT_T0_ES6_)
  br label %for.inc

for.inc:                                          ; preds = %for.body
  %call7 = call noundef nonnull align 8 dereferenceable(8) ptr @_ZN9__gnu_cxx17__normal_iteratorIPKPKcSt6vectorIS2_SaIS2_EEEppEv(ptr noundef nonnull align 8 dereferenceable(8) %__begin1) #4
  br label %for.cond

for.end:                                          ; preds = %for.cond
  %call8 = call noundef zeroext i1 @_Z19check_frame_variantILb1ELb0ELb0ELb0ELb0EEbiRVi(i32 noundef 42, ptr noundef nonnull align 4 dereferenceable(4) %dumping_ground)
  %conv = zext i1 %call8 to i32
  %tobool = trunc i8 0 to i1
  %conv9 = zext i1 %tobool to i32
  %or = or i32 %conv9, %conv
  %tobool10 = icmp ne i32 %or, 0
  %frombool = zext i1 %tobool10 to i8
  %call11 = call noundef zeroext i1 @_Z19check_frame_variantILb0ELb0ELb0ELb0ELb0EEbiRVi(i32 noundef 42, ptr noundef nonnull align 4 dereferenceable(4) %dumping_ground)
  %conv12 = zext i1 %call11 to i32
  %tobool13 = trunc i8 %frombool to i1
  %conv14 = zext i1 %tobool13 to i32
  %or15 = or i32 %conv14, %conv12
  %tobool16 = icmp ne i32 %or15, 0
  %frombool17 = zext i1 %tobool16 to i8
  %call18 = call noundef zeroext i1 @_Z19check_frame_variantILb1ELb1ELb0ELb0ELb0EEbiRVi(i32 noundef 42, ptr noundef nonnull align 4 dereferenceable(4) %dumping_ground)
  %conv19 = zext i1 %call18 to i32
  %tobool20 = trunc i8 %frombool17 to i1
  %conv21 = zext i1 %tobool20 to i32
  %or22 = or i32 %conv21, %conv19
  %tobool23 = icmp ne i32 %or22, 0
  %frombool24 = zext i1 %tobool23 to i8
  %call25 = call noundef zeroext i1 @_Z19check_frame_variantILb0ELb1ELb0ELb0ELb0EEbiRVi(i32 noundef 42, ptr noundef nonnull align 4 dereferenceable(4) %dumping_ground)
  %conv26 = zext i1 %call25 to i32
  %tobool27 = trunc i8 %frombool24 to i1
  %conv28 = zext i1 %tobool27 to i32
  %or29 = or i32 %conv28, %conv26
  %tobool30 = icmp ne i32 %or29, 0
  %frombool31 = zext i1 %tobool30 to i8
  %call32 = call noundef zeroext i1 @_Z19check_frame_variantILb1ELb0ELb1ELb0ELb0EEbiRVi(i32 noundef 42, ptr noundef nonnull align 4 dereferenceable(4) %dumping_ground)
  %conv33 = zext i1 %call32 to i32
  %tobool34 = trunc i8 %frombool31 to i1
  %conv35 = zext i1 %tobool34 to i32
  %or36 = or i32 %conv35, %conv33
  %tobool37 = icmp ne i32 %or36, 0
  %frombool38 = zext i1 %tobool37 to i8
  %call39 = call noundef zeroext i1 @_Z19check_frame_variantILb0ELb0ELb1ELb0ELb0EEbiRVi(i32 noundef 42, ptr noundef nonnull align 4 dereferenceable(4) %dumping_ground)
  %conv40 = zext i1 %call39 to i32
  %tobool41 = trunc i8 %frombool38 to i1
  %conv42 = zext i1 %tobool41 to i32
  %or43 = or i32 %conv42, %conv40
  %tobool44 = icmp ne i32 %or43, 0
  %frombool45 = zext i1 %tobool44 to i8
  %call46 = call noundef zeroext i1 @_Z19check_frame_variantILb1ELb1ELb1ELb0ELb0EEbiRVi(i32 noundef 42, ptr noundef nonnull align 4 dereferenceable(4) %dumping_ground)
  %conv47 = zext i1 %call46 to i32
  %tobool48 = trunc i8 %frombool45 to i1
  %conv49 = zext i1 %tobool48 to i32
  %or50 = or i32 %conv49, %conv47
  %tobool51 = icmp ne i32 %or50, 0
  %frombool52 = zext i1 %tobool51 to i8
  %call53 = call noundef zeroext i1 @_Z19check_frame_variantILb0ELb1ELb1ELb0ELb0EEbiRVi(i32 noundef 42, ptr noundef nonnull align 4 dereferenceable(4) %dumping_ground)
  %conv54 = zext i1 %call53 to i32
  %tobool55 = trunc i8 %frombool52 to i1
  %conv56 = zext i1 %tobool55 to i32
  %or57 = or i32 %conv56, %conv54
  %tobool58 = icmp ne i32 %or57, 0
  %frombool59 = zext i1 %tobool58 to i8
  %call60 = call noundef zeroext i1 @_Z19check_frame_variantILb1ELb0ELb0ELb1ELb0EEbiRVi(i32 noundef 42, ptr noundef nonnull align 4 dereferenceable(4) %dumping_ground)
  %conv61 = zext i1 %call60 to i32
  %tobool62 = trunc i8 %frombool59 to i1
  %conv63 = zext i1 %tobool62 to i32
  %or64 = or i32 %conv63, %conv61
  %tobool65 = icmp ne i32 %or64, 0
  %frombool66 = zext i1 %tobool65 to i8
  %call67 = call noundef zeroext i1 @_Z19check_frame_variantILb0ELb0ELb0ELb1ELb0EEbiRVi(i32 noundef 42, ptr noundef nonnull align 4 dereferenceable(4) %dumping_ground)
  %conv68 = zext i1 %call67 to i32
  %tobool69 = trunc i8 %frombool66 to i1
  %conv70 = zext i1 %tobool69 to i32
  %or71 = or i32 %conv70, %conv68
  %tobool72 = icmp ne i32 %or71, 0
  %frombool73 = zext i1 %tobool72 to i8
  %call74 = call noundef zeroext i1 @_Z19check_frame_variantILb1ELb1ELb0ELb1ELb0EEbiRVi(i32 noundef 42, ptr noundef nonnull align 4 dereferenceable(4) %dumping_ground)
  %conv75 = zext i1 %call74 to i32
  %tobool76 = trunc i8 %frombool73 to i1
  %conv77 = zext i1 %tobool76 to i32
  %or78 = or i32 %conv77, %conv75
  %tobool79 = icmp ne i32 %or78, 0
  %frombool80 = zext i1 %tobool79 to i8
  %call81 = call noundef zeroext i1 @_Z19check_frame_variantILb0ELb1ELb0ELb1ELb0EEbiRVi(i32 noundef 42, ptr noundef nonnull align 4 dereferenceable(4) %dumping_ground)
  %conv82 = zext i1 %call81 to i32
  %tobool83 = trunc i8 %frombool80 to i1
  %conv84 = zext i1 %tobool83 to i32
  %or85 = or i32 %conv84, %conv82
  %tobool86 = icmp ne i32 %or85, 0
  %frombool87 = zext i1 %tobool86 to i8
  %call88 = call noundef zeroext i1 @_Z19check_frame_variantILb1ELb0ELb1ELb1ELb0EEbiRVi(i32 noundef 42, ptr noundef nonnull align 4 dereferenceable(4) %dumping_ground)
  %conv89 = zext i1 %call88 to i32
  %tobool90 = trunc i8 %frombool87 to i1
  %conv91 = zext i1 %tobool90 to i32
  %or92 = or i32 %conv91, %conv89
  %tobool93 = icmp ne i32 %or92, 0
  %frombool94 = zext i1 %tobool93 to i8
  %call95 = call noundef zeroext i1 @_Z19check_frame_variantILb0ELb0ELb1ELb1ELb0EEbiRVi(i32 noundef 42, ptr noundef nonnull align 4 dereferenceable(4) %dumping_ground)
  %conv96 = zext i1 %call95 to i32
  %tobool97 = trunc i8 %frombool94 to i1
  %conv98 = zext i1 %tobool97 to i32
  %or99 = or i32 %conv98, %conv96
  %tobool100 = icmp ne i32 %or99, 0
  %frombool101 = zext i1 %tobool100 to i8
  %call102 = call noundef zeroext i1 @_Z19check_frame_variantILb1ELb1ELb1ELb1ELb0EEbiRVi(i32 noundef 42, ptr noundef nonnull align 4 dereferenceable(4) %dumping_ground)
  %conv103 = zext i1 %call102 to i32
  %tobool104 = trunc i8 %frombool101 to i1
  %conv105 = zext i1 %tobool104 to i32
  %or106 = or i32 %conv105, %conv103
  %tobool107 = icmp ne i32 %or106, 0
  %frombool108 = zext i1 %tobool107 to i8
  %call109 = call noundef zeroext i1 @_Z19check_frame_variantILb0ELb1ELb1ELb1ELb0EEbiRVi(i32 noundef 42, ptr noundef nonnull align 4 dereferenceable(4) %dumping_ground)
  %conv110 = zext i1 %call109 to i32
  %tobool111 = trunc i8 %frombool108 to i1
  %conv112 = zext i1 %tobool111 to i32
  %or113 = or i32 %conv112, %conv110
  %tobool114 = icmp ne i32 %or113, 0
  %frombool115 = zext i1 %tobool114 to i8
  %call116 = call noundef zeroext i1 @_Z19check_frame_variantILb1ELb0ELb0ELb0ELb1EEbiRVi(i32 noundef 42, ptr noundef nonnull align 4 dereferenceable(4) %dumping_ground)
  %conv117 = zext i1 %call116 to i32
  %tobool118 = trunc i8 %frombool115 to i1
  %conv119 = zext i1 %tobool118 to i32
  %or120 = or i32 %conv119, %conv117
  %tobool121 = icmp ne i32 %or120, 0
  %frombool122 = zext i1 %tobool121 to i8
  %call123 = call noundef zeroext i1 @_Z19check_frame_variantILb0ELb0ELb0ELb0ELb1EEbiRVi(i32 noundef 42, ptr noundef nonnull align 4 dereferenceable(4) %dumping_ground)
  %conv124 = zext i1 %call123 to i32
  %tobool125 = trunc i8 %frombool122 to i1
  %conv126 = zext i1 %tobool125 to i32
  %or127 = or i32 %conv126, %conv124
  %tobool128 = icmp ne i32 %or127, 0
  %frombool129 = zext i1 %tobool128 to i8
  %call130 = call noundef zeroext i1 @_Z19check_frame_variantILb1ELb1ELb0ELb0ELb1EEbiRVi(i32 noundef 42, ptr noundef nonnull align 4 dereferenceable(4) %dumping_ground)
  %conv131 = zext i1 %call130 to i32
  %tobool132 = trunc i8 %frombool129 to i1
  %conv133 = zext i1 %tobool132 to i32
  %or134 = or i32 %conv133, %conv131
  %tobool135 = icmp ne i32 %or134, 0
  %frombool136 = zext i1 %tobool135 to i8
  %call137 = call noundef zeroext i1 @_Z19check_frame_variantILb0ELb1ELb0ELb0ELb1EEbiRVi(i32 noundef 42, ptr noundef nonnull align 4 dereferenceable(4) %dumping_ground)
  %conv138 = zext i1 %call137 to i32
  %tobool139 = trunc i8 %frombool136 to i1
  %conv140 = zext i1 %tobool139 to i32
  %or141 = or i32 %conv140, %conv138
  %tobool142 = icmp ne i32 %or141, 0
  %frombool143 = zext i1 %tobool142 to i8
  %call144 = call noundef zeroext i1 @_Z19check_frame_variantILb1ELb0ELb1ELb0ELb1EEbiRVi(i32 noundef 42, ptr noundef nonnull align 4 dereferenceable(4) %dumping_ground)
  %conv145 = zext i1 %call144 to i32
  %tobool146 = trunc i8 %frombool143 to i1
  %conv147 = zext i1 %tobool146 to i32
  %or148 = or i32 %conv147, %conv145
  %tobool149 = icmp ne i32 %or148, 0
  %frombool150 = zext i1 %tobool149 to i8
  %call151 = call noundef zeroext i1 @_Z19check_frame_variantILb0ELb0ELb1ELb0ELb1EEbiRVi(i32 noundef 42, ptr noundef nonnull align 4 dereferenceable(4) %dumping_ground)
  %conv152 = zext i1 %call151 to i32
  %tobool153 = trunc i8 %frombool150 to i1
  %conv154 = zext i1 %tobool153 to i32
  %or155 = or i32 %conv154, %conv152
  %tobool156 = icmp ne i32 %or155, 0
  %frombool157 = zext i1 %tobool156 to i8
  %call158 = call noundef zeroext i1 @_Z19check_frame_variantILb1ELb1ELb1ELb0ELb1EEbiRVi(i32 noundef 42, ptr noundef nonnull align 4 dereferenceable(4) %dumping_ground)
  %conv159 = zext i1 %call158 to i32
  %tobool160 = trunc i8 %frombool157 to i1
  %conv161 = zext i1 %tobool160 to i32
  %or162 = or i32 %conv161, %conv159
  %tobool163 = icmp ne i32 %or162, 0
  %frombool164 = zext i1 %tobool163 to i8
  %call165 = call noundef zeroext i1 @_Z19check_frame_variantILb0ELb1ELb1ELb0ELb1EEbiRVi(i32 noundef 42, ptr noundef nonnull align 4 dereferenceable(4) %dumping_ground)
  %conv166 = zext i1 %call165 to i32
  %tobool167 = trunc i8 %frombool164 to i1
  %conv168 = zext i1 %tobool167 to i32
  %or169 = or i32 %conv168, %conv166
  %tobool170 = icmp ne i32 %or169, 0
  %frombool171 = zext i1 %tobool170 to i8
  %call172 = call noundef zeroext i1 @_Z19check_frame_variantILb1ELb0ELb0ELb1ELb1EEbiRVi(i32 noundef 42, ptr noundef nonnull align 4 dereferenceable(4) %dumping_ground)
  %conv173 = zext i1 %call172 to i32
  %tobool174 = trunc i8 %frombool171 to i1
  %conv175 = zext i1 %tobool174 to i32
  %or176 = or i32 %conv175, %conv173
  %tobool177 = icmp ne i32 %or176, 0
  %frombool178 = zext i1 %tobool177 to i8
  %call179 = call noundef zeroext i1 @_Z19check_frame_variantILb0ELb0ELb0ELb1ELb1EEbiRVi(i32 noundef 42, ptr noundef nonnull align 4 dereferenceable(4) %dumping_ground)
  %conv180 = zext i1 %call179 to i32
  %tobool181 = trunc i8 %frombool178 to i1
  %conv182 = zext i1 %tobool181 to i32
  %or183 = or i32 %conv182, %conv180
  %tobool184 = icmp ne i32 %or183, 0
  %frombool185 = zext i1 %tobool184 to i8
  %call186 = call noundef zeroext i1 @_Z19check_frame_variantILb1ELb1ELb0ELb1ELb1EEbiRVi(i32 noundef 42, ptr noundef nonnull align 4 dereferenceable(4) %dumping_ground)
  %conv187 = zext i1 %call186 to i32
  %tobool188 = trunc i8 %frombool185 to i1
  %conv189 = zext i1 %tobool188 to i32
  %or190 = or i32 %conv189, %conv187
  %tobool191 = icmp ne i32 %or190, 0
  %frombool192 = zext i1 %tobool191 to i8
  %call193 = call noundef zeroext i1 @_Z19check_frame_variantILb0ELb1ELb0ELb1ELb1EEbiRVi(i32 noundef 42, ptr noundef nonnull align 4 dereferenceable(4) %dumping_ground)
  %conv194 = zext i1 %call193 to i32
  %tobool195 = trunc i8 %frombool192 to i1
  %conv196 = zext i1 %tobool195 to i32
  %or197 = or i32 %conv196, %conv194
  %tobool198 = icmp ne i32 %or197, 0
  %frombool199 = zext i1 %tobool198 to i8
  %call200 = call noundef zeroext i1 @_Z19check_frame_variantILb1ELb0ELb1ELb1ELb1EEbiRVi(i32 noundef 42, ptr noundef nonnull align 4 dereferenceable(4) %dumping_ground)
  %conv201 = zext i1 %call200 to i32
  %tobool202 = trunc i8 %frombool199 to i1
  %conv203 = zext i1 %tobool202 to i32
  %or204 = or i32 %conv203, %conv201
  %tobool205 = icmp ne i32 %or204, 0
  %frombool206 = zext i1 %tobool205 to i8
  %call207 = call noundef zeroext i1 @_Z19check_frame_variantILb0ELb0ELb1ELb1ELb1EEbiRVi(i32 noundef 42, ptr noundef nonnull align 4 dereferenceable(4) %dumping_ground)
  %conv208 = zext i1 %call207 to i32
  %tobool209 = trunc i8 %frombool206 to i1
  %conv210 = zext i1 %tobool209 to i32
  %or211 = or i32 %conv210, %conv208
  %tobool212 = icmp ne i32 %or211, 0
  %frombool213 = zext i1 %tobool212 to i8
  %call214 = call noundef zeroext i1 @_Z19check_frame_variantILb1ELb1ELb1ELb1ELb1EEbiRVi(i32 noundef 42, ptr noundef nonnull align 4 dereferenceable(4) %dumping_ground)
  %conv215 = zext i1 %call214 to i32
  %tobool216 = trunc i8 %frombool213 to i1
  %conv217 = zext i1 %tobool216 to i32
  %or218 = or i32 %conv217, %conv215
  %tobool219 = icmp ne i32 %or218, 0
  %frombool220 = zext i1 %tobool219 to i8
  %call221 = call noundef zeroext i1 @_Z19check_frame_variantILb0ELb1ELb1ELb1ELb1EEbiRVi(i32 noundef 42, ptr noundef nonnull align 4 dereferenceable(4) %dumping_ground)
  %conv222 = zext i1 %call221 to i32
  %tobool223 = trunc i8 %frombool220 to i1
  %conv224 = zext i1 %tobool223 to i32
  %or225 = or i32 %conv224, %conv222
  %tobool226 = icmp ne i32 %or225, 0
  %frombool227 = zext i1 %tobool226 to i8
  %tobool228 = trunc i8 %frombool227 to i1
  %1 = zext i1 %tobool228 to i64
  %cond = select i1 %tobool228, i32 -1, i32 0
  ret i32 %cond
}

; Function Attrs: mustprogress noinline nounwind uwtable
define linkonce_odr dso_local ptr @_ZNKSt6vectorIPKcSaIS1_EE5beginEv(ptr noundef nonnull align 8 dereferenceable(24) %this) #7 comdat align 2 {
entry:
  %retval = alloca %"class.__gnu_cxx::__normal_iterator", align 8
  %_M_impl = getelementptr inbounds %"struct.std::_Vector_base", ptr %this, i32 0, i32 0
  %_M_start = getelementptr inbounds %"struct.std::_Vector_base<const char *, std::allocator<const char *>>::_Vector_impl_data", ptr %_M_impl, i32 0, i32 0
  call void @_ZN9__gnu_cxx17__normal_iteratorIPKPKcSt6vectorIS2_SaIS2_EEEC2ERKS4_(ptr noundef nonnull align 8 dereferenceable(8) %retval, ptr noundef nonnull align 8 dereferenceable(8) %_M_start) #4
  %coerce.dive = getelementptr inbounds %"class.__gnu_cxx::__normal_iterator", ptr %retval, i32 0, i32 0
  %0 = load ptr, ptr %coerce.dive, align 8
  ret ptr %0
}

; Function Attrs: mustprogress noinline nounwind uwtable
define linkonce_odr dso_local ptr @_ZNKSt6vectorIPKcSaIS1_EE3endEv(ptr noundef nonnull align 8 dereferenceable(24) %this) #7 comdat align 2 {
entry:
  %retval = alloca %"class.__gnu_cxx::__normal_iterator", align 8
  %_M_impl = getelementptr inbounds %"struct.std::_Vector_base", ptr %this, i32 0, i32 0
  %_M_finish = getelementptr inbounds %"struct.std::_Vector_base<const char *, std::allocator<const char *>>::_Vector_impl_data", ptr %_M_impl, i32 0, i32 1
  call void @_ZN9__gnu_cxx17__normal_iteratorIPKPKcSt6vectorIS2_SaIS2_EEEC2ERKS4_(ptr noundef nonnull align 8 dereferenceable(8) %retval, ptr noundef nonnull align 8 dereferenceable(8) %_M_finish) #4
  %coerce.dive = getelementptr inbounds %"class.__gnu_cxx::__normal_iterator", ptr %retval, i32 0, i32 0
  %0 = load ptr, ptr %coerce.dive, align 8
  ret ptr %0
}

; Function Attrs: mustprogress noinline nounwind uwtable
define linkonce_odr dso_local noundef zeroext i1 @_ZN9__gnu_cxxneIPKPKcSt6vectorIS2_SaIS2_EEEEbRKNS_17__normal_iteratorIT_T0_EESD_(ptr noundef nonnull align 8 dereferenceable(8) %__lhs, ptr noundef nonnull align 8 dereferenceable(8) %__rhs) #7 comdat {
entry:
  %call = call noundef nonnull align 8 dereferenceable(8) ptr @_ZNK9__gnu_cxx17__normal_iteratorIPKPKcSt6vectorIS2_SaIS2_EEE4baseEv(ptr noundef nonnull align 8 dereferenceable(8) %__lhs) #4
  %0 = load ptr, ptr %call, align 8
  %call1 = call noundef nonnull align 8 dereferenceable(8) ptr @_ZNK9__gnu_cxx17__normal_iteratorIPKPKcSt6vectorIS2_SaIS2_EEE4baseEv(ptr noundef nonnull align 8 dereferenceable(8) %__rhs) #4
  %1 = load ptr, ptr %call1, align 8
  %cmp = icmp ne ptr %0, %1
  ret i1 %cmp
}

; Function Attrs: mustprogress noinline nounwind uwtable
define linkonce_odr dso_local noundef nonnull align 8 dereferenceable(8) ptr @_ZNK9__gnu_cxx17__normal_iteratorIPKPKcSt6vectorIS2_SaIS2_EEEdeEv(ptr noundef nonnull align 8 dereferenceable(8) %this) #7 comdat align 2 {
entry:
  %_M_current = getelementptr inbounds %"class.__gnu_cxx::__normal_iterator", ptr %this, i32 0, i32 0
  %0 = load ptr, ptr %_M_current, align 8
  ret ptr %0
}

declare noundef nonnull align 8 dereferenceable(8) ptr @_ZStlsISt11char_traitsIcEERSt13basic_ostreamIcT_ES5_PKc(ptr noundef nonnull align 8 dereferenceable(8), ptr noundef) #8

declare noundef nonnull align 8 dereferenceable(8) ptr @_ZNSolsEPFRSoS_E(ptr noundef nonnull align 8 dereferenceable(8), ptr noundef) #8

declare noundef nonnull align 8 dereferenceable(8) ptr @_ZSt4endlIcSt11char_traitsIcEERSt13basic_ostreamIT_T0_ES6_(ptr noundef nonnull align 8 dereferenceable(8)) #8

; Function Attrs: mustprogress noinline nounwind uwtable
define linkonce_odr dso_local noundef nonnull align 8 dereferenceable(8) ptr @_ZN9__gnu_cxx17__normal_iteratorIPKPKcSt6vectorIS2_SaIS2_EEEppEv(ptr noundef nonnull align 8 dereferenceable(8) %this) #7 comdat align 2 {
entry:
  %_M_current = getelementptr inbounds %"class.__gnu_cxx::__normal_iterator", ptr %this, i32 0, i32 0
  %0 = load ptr, ptr %_M_current, align 8
  %incdec.ptr = getelementptr inbounds ptr, ptr %0, i32 1
  store ptr %incdec.ptr, ptr %_M_current, align 8
  ret ptr %this
}

; Function Attrs: noinline uwtable
define linkonce_odr dso_local noundef zeroext i1 @_Z19check_frame_variantILb1ELb0ELb0ELb0ELb0EEbiRVi(i32 noundef %seed, ptr noundef nonnull align 4 dereferenceable(4) %dumping_ground) #0 comdat personality ptr @__gxx_personality_v0 {
entry:
  %trace = alloca [100 x %union.trace_element], align 16
  %test_description = alloca %"class.std::__cxx11::basic_string", align 8
  %liveValues_double = alloca %struct.LotsOfLiveValues.0, align 8
  %liveValues_int = alloca %struct.LotsOfLiveValues, align 4
  call void @_Z24getTestDescriptionStringB5cxx11bbbbb(ptr sret(%"class.std::__cxx11::basic_string") align 8 %test_description, i1 noundef zeroext true, i1 noundef zeroext false, i1 noundef zeroext false, i1 noundef zeroext false, i1 noundef zeroext false)
  %conv = sitofp i32 %seed to double
  store double %conv, ptr %liveValues_double, align 8
  %d2.i23 = getelementptr inbounds %struct.LotsOfLiveValues.0, ptr %liveValues_double, i32 0, i32 1
  %0 = load double, ptr %liveValues_double, align 8
  %1 = load double, ptr %liveValues_double, align 8
  %add.i24 = fadd double %0, %1
  store double %add.i24, ptr %d2.i23, align 8
  %d3.i25 = getelementptr inbounds %struct.LotsOfLiveValues.0, ptr %liveValues_double, i32 0, i32 2
  %2 = load double, ptr %liveValues_double, align 8
  %d25.i26 = getelementptr inbounds %struct.LotsOfLiveValues.0, ptr %liveValues_double, i32 0, i32 1
  %3 = load double, ptr %d25.i26, align 8
  %add6.i27 = fadd double %2, %3
  store double %add6.i27, ptr %d3.i25, align 8
  %d4.i28 = getelementptr inbounds %struct.LotsOfLiveValues.0, ptr %liveValues_double, i32 0, i32 3
  %4 = load double, ptr %liveValues_double, align 8
  %d38.i29 = getelementptr inbounds %struct.LotsOfLiveValues.0, ptr %liveValues_double, i32 0, i32 2
  %5 = load double, ptr %d38.i29, align 8
  %add9.i30 = fadd double %4, %5
  store double %add9.i30, ptr %d4.i28, align 8
  %d5.i31 = getelementptr inbounds %struct.LotsOfLiveValues.0, ptr %liveValues_double, i32 0, i32 4
  %6 = load double, ptr %liveValues_double, align 8
  %d411.i32 = getelementptr inbounds %struct.LotsOfLiveValues.0, ptr %liveValues_double, i32 0, i32 3
  %7 = load double, ptr %d411.i32, align 8
  %add12.i33 = fadd double %6, %7
  store double %add12.i33, ptr %d5.i31, align 8
  %d6.i34 = getelementptr inbounds %struct.LotsOfLiveValues.0, ptr %liveValues_double, i32 0, i32 5
  %8 = load double, ptr %liveValues_double, align 8
  %d514.i35 = getelementptr inbounds %struct.LotsOfLiveValues.0, ptr %liveValues_double, i32 0, i32 4
  %9 = load double, ptr %d514.i35, align 8
  %add15.i36 = fadd double %8, %9
  store double %add15.i36, ptr %d6.i34, align 8
  %d7.i37 = getelementptr inbounds %struct.LotsOfLiveValues.0, ptr %liveValues_double, i32 0, i32 6
  %10 = load double, ptr %liveValues_double, align 8
  %d617.i38 = getelementptr inbounds %struct.LotsOfLiveValues.0, ptr %liveValues_double, i32 0, i32 5
  %11 = load double, ptr %d617.i38, align 8
  %add18.i39 = fadd double %10, %11
  store double %add18.i39, ptr %d7.i37, align 8
  %d8.i40 = getelementptr inbounds %struct.LotsOfLiveValues.0, ptr %liveValues_double, i32 0, i32 7
  %12 = load double, ptr %liveValues_double, align 8
  %d720.i41 = getelementptr inbounds %struct.LotsOfLiveValues.0, ptr %liveValues_double, i32 0, i32 6
  %13 = load double, ptr %d720.i41, align 8
  %add21.i42 = fadd double %12, %13
  store double %add21.i42, ptr %d8.i40, align 8
  %d9.i43 = getelementptr inbounds %struct.LotsOfLiveValues.0, ptr %liveValues_double, i32 0, i32 8
  %14 = load double, ptr %liveValues_double, align 8
  %d823.i44 = getelementptr inbounds %struct.LotsOfLiveValues.0, ptr %liveValues_double, i32 0, i32 7
  %15 = load double, ptr %d823.i44, align 8
  %add24.i45 = fadd double %14, %15
  store double %add24.i45, ptr %d9.i43, align 8
  %d10.i46 = getelementptr inbounds %struct.LotsOfLiveValues.0, ptr %liveValues_double, i32 0, i32 9
  %16 = load double, ptr %liveValues_double, align 8
  %d926.i47 = getelementptr inbounds %struct.LotsOfLiveValues.0, ptr %liveValues_double, i32 0, i32 8
  %17 = load double, ptr %d926.i47, align 8
  %add27.i48 = fadd double %16, %17
  store double %add27.i48, ptr %d10.i46, align 8
  %d11.i49 = getelementptr inbounds %struct.LotsOfLiveValues.0, ptr %liveValues_double, i32 0, i32 10
  %18 = load double, ptr %liveValues_double, align 8
  %d1029.i50 = getelementptr inbounds %struct.LotsOfLiveValues.0, ptr %liveValues_double, i32 0, i32 9
  %19 = load double, ptr %d1029.i50, align 8
  %add30.i51 = fadd double %18, %19
  store double %add30.i51, ptr %d11.i49, align 8
  %d1231.i52 = getelementptr inbounds %struct.LotsOfLiveValues.0, ptr %liveValues_double, i32 0, i32 11
  %20 = load double, ptr %liveValues_double, align 8
  %d1133.i53 = getelementptr inbounds %struct.LotsOfLiveValues.0, ptr %liveValues_double, i32 0, i32 10
  %21 = load double, ptr %d1133.i53, align 8
  %add34.i54 = fadd double %20, %21
  store double %add34.i54, ptr %d1231.i52, align 8
  %d1335.i55 = getelementptr inbounds %struct.LotsOfLiveValues.0, ptr %liveValues_double, i32 0, i32 12
  %22 = load double, ptr %liveValues_double, align 8
  %d1237.i56 = getelementptr inbounds %struct.LotsOfLiveValues.0, ptr %liveValues_double, i32 0, i32 11
  %23 = load double, ptr %d1237.i56, align 8
  %add38.i57 = fadd double %22, %23
  store double %add38.i57, ptr %d1335.i55, align 8
  %d1439.i58 = getelementptr inbounds %struct.LotsOfLiveValues.0, ptr %liveValues_double, i32 0, i32 13
  %24 = load double, ptr %liveValues_double, align 8
  %d1341.i59 = getelementptr inbounds %struct.LotsOfLiveValues.0, ptr %liveValues_double, i32 0, i32 12
  %25 = load double, ptr %d1341.i59, align 8
  %add42.i60 = fadd double %24, %25
  store double %add42.i60, ptr %d1439.i58, align 8
  %d15.i61 = getelementptr inbounds %struct.LotsOfLiveValues.0, ptr %liveValues_double, i32 0, i32 14
  %26 = load double, ptr %liveValues_double, align 8
  %d1444.i62 = getelementptr inbounds %struct.LotsOfLiveValues.0, ptr %liveValues_double, i32 0, i32 13
  %27 = load double, ptr %d1444.i62, align 8
  %add45.i63 = fadd double %26, %27
  store double %add45.i63, ptr %d15.i61, align 8
  %d16.i64 = getelementptr inbounds %struct.LotsOfLiveValues.0, ptr %liveValues_double, i32 0, i32 15
  %28 = load double, ptr %liveValues_double, align 8
  %d1547.i65 = getelementptr inbounds %struct.LotsOfLiveValues.0, ptr %liveValues_double, i32 0, i32 14
  %29 = load double, ptr %d1547.i65, align 8
  %add48.i66 = fadd double %28, %29
  store double %add48.i66, ptr %d16.i64, align 8
  %d1749.i67 = getelementptr inbounds %struct.LotsOfLiveValues.0, ptr %liveValues_double, i32 0, i32 16
  %30 = load double, ptr %liveValues_double, align 8
  %d1651.i68 = getelementptr inbounds %struct.LotsOfLiveValues.0, ptr %liveValues_double, i32 0, i32 15
  %31 = load double, ptr %d1651.i68, align 8
  %add52.i69 = fadd double %30, %31
  store double %add52.i69, ptr %d1749.i67, align 8
  %d18.i70 = getelementptr inbounds %struct.LotsOfLiveValues.0, ptr %liveValues_double, i32 0, i32 17
  %32 = load double, ptr %liveValues_double, align 8
  %d1754.i71 = getelementptr inbounds %struct.LotsOfLiveValues.0, ptr %liveValues_double, i32 0, i32 16
  %33 = load double, ptr %d1754.i71, align 8
  %add55.i72 = fadd double %32, %33
  store double %add55.i72, ptr %d18.i70, align 8
  %d19.i73 = getelementptr inbounds %struct.LotsOfLiveValues.0, ptr %liveValues_double, i32 0, i32 18
  %34 = load double, ptr %liveValues_double, align 8
  %d1857.i74 = getelementptr inbounds %struct.LotsOfLiveValues.0, ptr %liveValues_double, i32 0, i32 17
  %35 = load double, ptr %d1857.i74, align 8
  %add58.i75 = fadd double %34, %35
  store double %add58.i75, ptr %d19.i73, align 8
  %d20.i76 = getelementptr inbounds %struct.LotsOfLiveValues.0, ptr %liveValues_double, i32 0, i32 19
  %36 = load double, ptr %liveValues_double, align 8
  %d1960.i77 = getelementptr inbounds %struct.LotsOfLiveValues.0, ptr %liveValues_double, i32 0, i32 18
  %37 = load double, ptr %d1960.i77, align 8
  %add61.i78 = fadd double %36, %37
  store double %add61.i78, ptr %d20.i76, align 8
  %d21.i79 = getelementptr inbounds %struct.LotsOfLiveValues.0, ptr %liveValues_double, i32 0, i32 20
  %38 = load double, ptr %liveValues_double, align 8
  %d2063.i80 = getelementptr inbounds %struct.LotsOfLiveValues.0, ptr %liveValues_double, i32 0, i32 19
  %39 = load double, ptr %d2063.i80, align 8
  %add64.i81 = fadd double %38, %39
  store double %add64.i81, ptr %d21.i79, align 8
  %d22.i82 = getelementptr inbounds %struct.LotsOfLiveValues.0, ptr %liveValues_double, i32 0, i32 21
  %40 = load double, ptr %liveValues_double, align 8
  %d2166.i83 = getelementptr inbounds %struct.LotsOfLiveValues.0, ptr %liveValues_double, i32 0, i32 20
  %41 = load double, ptr %d2166.i83, align 8
  %add67.i84 = fadd double %40, %41
  store double %add67.i84, ptr %d22.i82, align 8
  %d23.i85 = getelementptr inbounds %struct.LotsOfLiveValues.0, ptr %liveValues_double, i32 0, i32 22
  %42 = load double, ptr %liveValues_double, align 8
  %d2269.i86 = getelementptr inbounds %struct.LotsOfLiveValues.0, ptr %liveValues_double, i32 0, i32 21
  %43 = load double, ptr %d2269.i86, align 8
  %add70.i87 = fadd double %42, %43
  store double %add70.i87, ptr %d23.i85, align 8
  %d24.i88 = getelementptr inbounds %struct.LotsOfLiveValues.0, ptr %liveValues_double, i32 0, i32 23
  %44 = load double, ptr %liveValues_double, align 8
  %d2372.i89 = getelementptr inbounds %struct.LotsOfLiveValues.0, ptr %liveValues_double, i32 0, i32 22
  %45 = load double, ptr %d2372.i89, align 8
  %add73.i90 = fadd double %44, %45
  store double %add73.i90, ptr %d24.i88, align 8
  %d2574.i91 = getelementptr inbounds %struct.LotsOfLiveValues.0, ptr %liveValues_double, i32 0, i32 24
  %46 = load double, ptr %liveValues_double, align 8
  %d2476.i92 = getelementptr inbounds %struct.LotsOfLiveValues.0, ptr %liveValues_double, i32 0, i32 23
  %47 = load double, ptr %d2476.i92, align 8
  %add77.i93 = fadd double %46, %47
  store double %add77.i93, ptr %d2574.i91, align 8
  %d26.i94 = getelementptr inbounds %struct.LotsOfLiveValues.0, ptr %liveValues_double, i32 0, i32 25
  %48 = load double, ptr %liveValues_double, align 8
  %d2579.i95 = getelementptr inbounds %struct.LotsOfLiveValues.0, ptr %liveValues_double, i32 0, i32 24
  %49 = load double, ptr %d2579.i95, align 8
  %add80.i96 = fadd double %48, %49
  store double %add80.i96, ptr %d26.i94, align 8
  %d27.i97 = getelementptr inbounds %struct.LotsOfLiveValues.0, ptr %liveValues_double, i32 0, i32 26
  %50 = load double, ptr %liveValues_double, align 8
  %d2682.i98 = getelementptr inbounds %struct.LotsOfLiveValues.0, ptr %liveValues_double, i32 0, i32 25
  %51 = load double, ptr %d2682.i98, align 8
  %add83.i99 = fadd double %50, %51
  store double %add83.i99, ptr %d27.i97, align 8
  %d28.i100 = getelementptr inbounds %struct.LotsOfLiveValues.0, ptr %liveValues_double, i32 0, i32 27
  %52 = load double, ptr %liveValues_double, align 8
  %d2785.i101 = getelementptr inbounds %struct.LotsOfLiveValues.0, ptr %liveValues_double, i32 0, i32 26
  %53 = load double, ptr %d2785.i101, align 8
  %add86.i102 = fadd double %52, %53
  store double %add86.i102, ptr %d28.i100, align 8
  %d29.i103 = getelementptr inbounds %struct.LotsOfLiveValues.0, ptr %liveValues_double, i32 0, i32 28
  %54 = load double, ptr %liveValues_double, align 8
  %d2888.i104 = getelementptr inbounds %struct.LotsOfLiveValues.0, ptr %liveValues_double, i32 0, i32 27
  %55 = load double, ptr %d2888.i104, align 8
  %add89.i105 = fadd double %54, %55
  store double %add89.i105, ptr %d29.i103, align 8
  %d30.i106 = getelementptr inbounds %struct.LotsOfLiveValues.0, ptr %liveValues_double, i32 0, i32 29
  %56 = load double, ptr %liveValues_double, align 8
  %d2991.i107 = getelementptr inbounds %struct.LotsOfLiveValues.0, ptr %liveValues_double, i32 0, i32 28
  %57 = load double, ptr %d2991.i107, align 8
  %add92.i108 = fadd double %56, %57
  store double %add92.i108, ptr %d30.i106, align 8
  %d31.i109 = getelementptr inbounds %struct.LotsOfLiveValues.0, ptr %liveValues_double, i32 0, i32 30
  %58 = load double, ptr %liveValues_double, align 8
  %d3094.i110 = getelementptr inbounds %struct.LotsOfLiveValues.0, ptr %liveValues_double, i32 0, i32 29
  %59 = load double, ptr %d3094.i110, align 8
  %add95.i111 = fadd double %58, %59
  store double %add95.i111, ptr %d31.i109, align 8
  %d32.i112 = getelementptr inbounds %struct.LotsOfLiveValues.0, ptr %liveValues_double, i32 0, i32 31
  %60 = load double, ptr %liveValues_double, align 8
  %d3197.i113 = getelementptr inbounds %struct.LotsOfLiveValues.0, ptr %liveValues_double, i32 0, i32 30
  %61 = load double, ptr %d3197.i113, align 8
  %add98.i114 = fadd double %60, %61
  store double %add98.i114, ptr %d32.i112, align 8
  %d33.i115 = getelementptr inbounds %struct.LotsOfLiveValues.0, ptr %liveValues_double, i32 0, i32 32
  %62 = load double, ptr %liveValues_double, align 8
  %d32100.i116 = getelementptr inbounds %struct.LotsOfLiveValues.0, ptr %liveValues_double, i32 0, i32 31
  %63 = load double, ptr %d32100.i116, align 8
  %add101.i117 = fadd double %62, %63
  store double %add101.i117, ptr %d33.i115, align 8
  %d34.i118 = getelementptr inbounds %struct.LotsOfLiveValues.0, ptr %liveValues_double, i32 0, i32 33
  %64 = load double, ptr %liveValues_double, align 8
  %d33103.i119 = getelementptr inbounds %struct.LotsOfLiveValues.0, ptr %liveValues_double, i32 0, i32 32
  %65 = load double, ptr %d33103.i119, align 8
  %add104.i120 = fadd double %64, %65
  store double %add104.i120, ptr %d34.i118, align 8
  %d35.i121 = getelementptr inbounds %struct.LotsOfLiveValues.0, ptr %liveValues_double, i32 0, i32 34
  %66 = load double, ptr %liveValues_double, align 8
  %d34106.i122 = getelementptr inbounds %struct.LotsOfLiveValues.0, ptr %liveValues_double, i32 0, i32 33
  %67 = load double, ptr %d34106.i122, align 8
  %add107.i123 = fadd double %66, %67
  store double %add107.i123, ptr %d35.i121, align 8
  %d36.i124 = getelementptr inbounds %struct.LotsOfLiveValues.0, ptr %liveValues_double, i32 0, i32 35
  %68 = load double, ptr %liveValues_double, align 8
  %d35109.i125 = getelementptr inbounds %struct.LotsOfLiveValues.0, ptr %liveValues_double, i32 0, i32 34
  %69 = load double, ptr %d35109.i125, align 8
  %add110.i126 = fadd double %68, %69
  store double %add110.i126, ptr %d36.i124, align 8
  %d37.i127 = getelementptr inbounds %struct.LotsOfLiveValues.0, ptr %liveValues_double, i32 0, i32 36
  %70 = load double, ptr %liveValues_double, align 8
  %d36112.i128 = getelementptr inbounds %struct.LotsOfLiveValues.0, ptr %liveValues_double, i32 0, i32 35
  %71 = load double, ptr %d36112.i128, align 8
  %add113.i129 = fadd double %70, %71
  store double %add113.i129, ptr %d37.i127, align 8
  %d38114.i130 = getelementptr inbounds %struct.LotsOfLiveValues.0, ptr %liveValues_double, i32 0, i32 37
  %72 = load double, ptr %liveValues_double, align 8
  %d37116.i131 = getelementptr inbounds %struct.LotsOfLiveValues.0, ptr %liveValues_double, i32 0, i32 36
  %73 = load double, ptr %d37116.i131, align 8
  %add117.i132 = fadd double %72, %73
  store double %add117.i132, ptr %d38114.i130, align 8
  %d39.i133 = getelementptr inbounds %struct.LotsOfLiveValues.0, ptr %liveValues_double, i32 0, i32 38
  %74 = load double, ptr %liveValues_double, align 8
  %d38119.i134 = getelementptr inbounds %struct.LotsOfLiveValues.0, ptr %liveValues_double, i32 0, i32 37
  %75 = load double, ptr %d38119.i134, align 8
  %add120.i135 = fadd double %74, %75
  store double %add120.i135, ptr %d39.i133, align 8
  br label %invoke.cont

invoke.cont:                                      ; preds = %entry
  store i32 %seed, ptr %liveValues_int, align 4
  %d2.i = getelementptr inbounds %struct.LotsOfLiveValues, ptr %liveValues_int, i32 0, i32 1
  %76 = load i32, ptr %liveValues_int, align 4
  %77 = load i32, ptr %liveValues_int, align 4
  %add.i = add nsw i32 %76, %77
  store i32 %add.i, ptr %d2.i, align 4
  %d3.i = getelementptr inbounds %struct.LotsOfLiveValues, ptr %liveValues_int, i32 0, i32 2
  %78 = load i32, ptr %liveValues_int, align 4
  %d25.i = getelementptr inbounds %struct.LotsOfLiveValues, ptr %liveValues_int, i32 0, i32 1
  %79 = load i32, ptr %d25.i, align 4
  %add6.i = add nsw i32 %78, %79
  store i32 %add6.i, ptr %d3.i, align 4
  %d4.i = getelementptr inbounds %struct.LotsOfLiveValues, ptr %liveValues_int, i32 0, i32 3
  %80 = load i32, ptr %liveValues_int, align 4
  %d38.i = getelementptr inbounds %struct.LotsOfLiveValues, ptr %liveValues_int, i32 0, i32 2
  %81 = load i32, ptr %d38.i, align 4
  %add9.i = add nsw i32 %80, %81
  store i32 %add9.i, ptr %d4.i, align 4
  %d5.i = getelementptr inbounds %struct.LotsOfLiveValues, ptr %liveValues_int, i32 0, i32 4
  %82 = load i32, ptr %liveValues_int, align 4
  %d411.i = getelementptr inbounds %struct.LotsOfLiveValues, ptr %liveValues_int, i32 0, i32 3
  %83 = load i32, ptr %d411.i, align 4
  %add12.i = add nsw i32 %82, %83
  store i32 %add12.i, ptr %d5.i, align 4
  %d6.i = getelementptr inbounds %struct.LotsOfLiveValues, ptr %liveValues_int, i32 0, i32 5
  %84 = load i32, ptr %liveValues_int, align 4
  %d514.i = getelementptr inbounds %struct.LotsOfLiveValues, ptr %liveValues_int, i32 0, i32 4
  %85 = load i32, ptr %d514.i, align 4
  %add15.i = add nsw i32 %84, %85
  store i32 %add15.i, ptr %d6.i, align 4
  %d7.i = getelementptr inbounds %struct.LotsOfLiveValues, ptr %liveValues_int, i32 0, i32 6
  %86 = load i32, ptr %liveValues_int, align 4
  %d617.i = getelementptr inbounds %struct.LotsOfLiveValues, ptr %liveValues_int, i32 0, i32 5
  %87 = load i32, ptr %d617.i, align 4
  %add18.i = add nsw i32 %86, %87
  store i32 %add18.i, ptr %d7.i, align 4
  %d8.i = getelementptr inbounds %struct.LotsOfLiveValues, ptr %liveValues_int, i32 0, i32 7
  %88 = load i32, ptr %liveValues_int, align 4
  %d720.i = getelementptr inbounds %struct.LotsOfLiveValues, ptr %liveValues_int, i32 0, i32 6
  %89 = load i32, ptr %d720.i, align 4
  %add21.i = add nsw i32 %88, %89
  store i32 %add21.i, ptr %d8.i, align 4
  %d9.i = getelementptr inbounds %struct.LotsOfLiveValues, ptr %liveValues_int, i32 0, i32 8
  %90 = load i32, ptr %liveValues_int, align 4
  %d823.i = getelementptr inbounds %struct.LotsOfLiveValues, ptr %liveValues_int, i32 0, i32 7
  %91 = load i32, ptr %d823.i, align 4
  %add24.i = add nsw i32 %90, %91
  store i32 %add24.i, ptr %d9.i, align 4
  %d10.i = getelementptr inbounds %struct.LotsOfLiveValues, ptr %liveValues_int, i32 0, i32 9
  %92 = load i32, ptr %liveValues_int, align 4
  %d926.i = getelementptr inbounds %struct.LotsOfLiveValues, ptr %liveValues_int, i32 0, i32 8
  %93 = load i32, ptr %d926.i, align 4
  %add27.i = add nsw i32 %92, %93
  store i32 %add27.i, ptr %d10.i, align 4
  %d11.i = getelementptr inbounds %struct.LotsOfLiveValues, ptr %liveValues_int, i32 0, i32 10
  %94 = load i32, ptr %liveValues_int, align 4
  %d1029.i = getelementptr inbounds %struct.LotsOfLiveValues, ptr %liveValues_int, i32 0, i32 9
  %95 = load i32, ptr %d1029.i, align 4
  %add30.i = add nsw i32 %94, %95
  store i32 %add30.i, ptr %d11.i, align 4
  %d1231.i = getelementptr inbounds %struct.LotsOfLiveValues, ptr %liveValues_int, i32 0, i32 11
  %96 = load i32, ptr %liveValues_int, align 4
  %d1133.i = getelementptr inbounds %struct.LotsOfLiveValues, ptr %liveValues_int, i32 0, i32 10
  %97 = load i32, ptr %d1133.i, align 4
  %add34.i = add nsw i32 %96, %97
  store i32 %add34.i, ptr %d1231.i, align 4
  %d1335.i = getelementptr inbounds %struct.LotsOfLiveValues, ptr %liveValues_int, i32 0, i32 12
  %98 = load i32, ptr %liveValues_int, align 4
  %d1237.i = getelementptr inbounds %struct.LotsOfLiveValues, ptr %liveValues_int, i32 0, i32 11
  %99 = load i32, ptr %d1237.i, align 4
  %add38.i = add nsw i32 %98, %99
  store i32 %add38.i, ptr %d1335.i, align 4
  %d1439.i = getelementptr inbounds %struct.LotsOfLiveValues, ptr %liveValues_int, i32 0, i32 13
  %100 = load i32, ptr %liveValues_int, align 4
  %d1341.i = getelementptr inbounds %struct.LotsOfLiveValues, ptr %liveValues_int, i32 0, i32 12
  %101 = load i32, ptr %d1341.i, align 4
  %add42.i = add nsw i32 %100, %101
  store i32 %add42.i, ptr %d1439.i, align 4
  %d15.i = getelementptr inbounds %struct.LotsOfLiveValues, ptr %liveValues_int, i32 0, i32 14
  %102 = load i32, ptr %liveValues_int, align 4
  %d1444.i = getelementptr inbounds %struct.LotsOfLiveValues, ptr %liveValues_int, i32 0, i32 13
  %103 = load i32, ptr %d1444.i, align 4
  %add45.i = add nsw i32 %102, %103
  store i32 %add45.i, ptr %d15.i, align 4
  %d16.i = getelementptr inbounds %struct.LotsOfLiveValues, ptr %liveValues_int, i32 0, i32 15
  %104 = load i32, ptr %liveValues_int, align 4
  %d1547.i = getelementptr inbounds %struct.LotsOfLiveValues, ptr %liveValues_int, i32 0, i32 14
  %105 = load i32, ptr %d1547.i, align 4
  %add48.i = add nsw i32 %104, %105
  store i32 %add48.i, ptr %d16.i, align 4
  %d1749.i = getelementptr inbounds %struct.LotsOfLiveValues, ptr %liveValues_int, i32 0, i32 16
  %106 = load i32, ptr %liveValues_int, align 4
  %d1651.i = getelementptr inbounds %struct.LotsOfLiveValues, ptr %liveValues_int, i32 0, i32 15
  %107 = load i32, ptr %d1651.i, align 4
  %add52.i = add nsw i32 %106, %107
  store i32 %add52.i, ptr %d1749.i, align 4
  %d18.i = getelementptr inbounds %struct.LotsOfLiveValues, ptr %liveValues_int, i32 0, i32 17
  %108 = load i32, ptr %liveValues_int, align 4
  %d1754.i = getelementptr inbounds %struct.LotsOfLiveValues, ptr %liveValues_int, i32 0, i32 16
  %109 = load i32, ptr %d1754.i, align 4
  %add55.i = add nsw i32 %108, %109
  store i32 %add55.i, ptr %d18.i, align 4
  %d19.i = getelementptr inbounds %struct.LotsOfLiveValues, ptr %liveValues_int, i32 0, i32 18
  %110 = load i32, ptr %liveValues_int, align 4
  %d1857.i = getelementptr inbounds %struct.LotsOfLiveValues, ptr %liveValues_int, i32 0, i32 17
  %111 = load i32, ptr %d1857.i, align 4
  %add58.i = add nsw i32 %110, %111
  store i32 %add58.i, ptr %d19.i, align 4
  %d20.i = getelementptr inbounds %struct.LotsOfLiveValues, ptr %liveValues_int, i32 0, i32 19
  %112 = load i32, ptr %liveValues_int, align 4
  %d1960.i = getelementptr inbounds %struct.LotsOfLiveValues, ptr %liveValues_int, i32 0, i32 18
  %113 = load i32, ptr %d1960.i, align 4
  %add61.i = add nsw i32 %112, %113
  store i32 %add61.i, ptr %d20.i, align 4
  %d21.i = getelementptr inbounds %struct.LotsOfLiveValues, ptr %liveValues_int, i32 0, i32 20
  %114 = load i32, ptr %liveValues_int, align 4
  %d2063.i = getelementptr inbounds %struct.LotsOfLiveValues, ptr %liveValues_int, i32 0, i32 19
  %115 = load i32, ptr %d2063.i, align 4
  %add64.i = add nsw i32 %114, %115
  store i32 %add64.i, ptr %d21.i, align 4
  %d22.i = getelementptr inbounds %struct.LotsOfLiveValues, ptr %liveValues_int, i32 0, i32 21
  %116 = load i32, ptr %liveValues_int, align 4
  %d2166.i = getelementptr inbounds %struct.LotsOfLiveValues, ptr %liveValues_int, i32 0, i32 20
  %117 = load i32, ptr %d2166.i, align 4
  %add67.i = add nsw i32 %116, %117
  store i32 %add67.i, ptr %d22.i, align 4
  %d23.i = getelementptr inbounds %struct.LotsOfLiveValues, ptr %liveValues_int, i32 0, i32 22
  %118 = load i32, ptr %liveValues_int, align 4
  %d2269.i = getelementptr inbounds %struct.LotsOfLiveValues, ptr %liveValues_int, i32 0, i32 21
  %119 = load i32, ptr %d2269.i, align 4
  %add70.i = add nsw i32 %118, %119
  store i32 %add70.i, ptr %d23.i, align 4
  %d24.i = getelementptr inbounds %struct.LotsOfLiveValues, ptr %liveValues_int, i32 0, i32 23
  %120 = load i32, ptr %liveValues_int, align 4
  %d2372.i = getelementptr inbounds %struct.LotsOfLiveValues, ptr %liveValues_int, i32 0, i32 22
  %121 = load i32, ptr %d2372.i, align 4
  %add73.i = add nsw i32 %120, %121
  store i32 %add73.i, ptr %d24.i, align 4
  %d2574.i = getelementptr inbounds %struct.LotsOfLiveValues, ptr %liveValues_int, i32 0, i32 24
  %122 = load i32, ptr %liveValues_int, align 4
  %d2476.i = getelementptr inbounds %struct.LotsOfLiveValues, ptr %liveValues_int, i32 0, i32 23
  %123 = load i32, ptr %d2476.i, align 4
  %add77.i = add nsw i32 %122, %123
  store i32 %add77.i, ptr %d2574.i, align 4
  %d26.i = getelementptr inbounds %struct.LotsOfLiveValues, ptr %liveValues_int, i32 0, i32 25
  %124 = load i32, ptr %liveValues_int, align 4
  %d2579.i = getelementptr inbounds %struct.LotsOfLiveValues, ptr %liveValues_int, i32 0, i32 24
  %125 = load i32, ptr %d2579.i, align 4
  %add80.i = add nsw i32 %124, %125
  store i32 %add80.i, ptr %d26.i, align 4
  %d27.i = getelementptr inbounds %struct.LotsOfLiveValues, ptr %liveValues_int, i32 0, i32 26
  %126 = load i32, ptr %liveValues_int, align 4
  %d2682.i = getelementptr inbounds %struct.LotsOfLiveValues, ptr %liveValues_int, i32 0, i32 25
  %127 = load i32, ptr %d2682.i, align 4
  %add83.i = add nsw i32 %126, %127
  store i32 %add83.i, ptr %d27.i, align 4
  %d28.i = getelementptr inbounds %struct.LotsOfLiveValues, ptr %liveValues_int, i32 0, i32 27
  %128 = load i32, ptr %liveValues_int, align 4
  %d2785.i = getelementptr inbounds %struct.LotsOfLiveValues, ptr %liveValues_int, i32 0, i32 26
  %129 = load i32, ptr %d2785.i, align 4
  %add86.i = add nsw i32 %128, %129
  store i32 %add86.i, ptr %d28.i, align 4
  %d29.i = getelementptr inbounds %struct.LotsOfLiveValues, ptr %liveValues_int, i32 0, i32 28
  %130 = load i32, ptr %liveValues_int, align 4
  %d2888.i = getelementptr inbounds %struct.LotsOfLiveValues, ptr %liveValues_int, i32 0, i32 27
  %131 = load i32, ptr %d2888.i, align 4
  %add89.i = add nsw i32 %130, %131
  store i32 %add89.i, ptr %d29.i, align 4
  %d30.i = getelementptr inbounds %struct.LotsOfLiveValues, ptr %liveValues_int, i32 0, i32 29
  %132 = load i32, ptr %liveValues_int, align 4
  %d2991.i = getelementptr inbounds %struct.LotsOfLiveValues, ptr %liveValues_int, i32 0, i32 28
  %133 = load i32, ptr %d2991.i, align 4
  %add92.i = add nsw i32 %132, %133
  store i32 %add92.i, ptr %d30.i, align 4
  %d31.i = getelementptr inbounds %struct.LotsOfLiveValues, ptr %liveValues_int, i32 0, i32 30
  %134 = load i32, ptr %liveValues_int, align 4
  %d3094.i = getelementptr inbounds %struct.LotsOfLiveValues, ptr %liveValues_int, i32 0, i32 29
  %135 = load i32, ptr %d3094.i, align 4
  %add95.i = add nsw i32 %134, %135
  store i32 %add95.i, ptr %d31.i, align 4
  %d32.i = getelementptr inbounds %struct.LotsOfLiveValues, ptr %liveValues_int, i32 0, i32 31
  %136 = load i32, ptr %liveValues_int, align 4
  %d3197.i = getelementptr inbounds %struct.LotsOfLiveValues, ptr %liveValues_int, i32 0, i32 30
  %137 = load i32, ptr %d3197.i, align 4
  %add98.i = add nsw i32 %136, %137
  store i32 %add98.i, ptr %d32.i, align 4
  %d33.i = getelementptr inbounds %struct.LotsOfLiveValues, ptr %liveValues_int, i32 0, i32 32
  %138 = load i32, ptr %liveValues_int, align 4
  %d32100.i = getelementptr inbounds %struct.LotsOfLiveValues, ptr %liveValues_int, i32 0, i32 31
  %139 = load i32, ptr %d32100.i, align 4
  %add101.i = add nsw i32 %138, %139
  store i32 %add101.i, ptr %d33.i, align 4
  %d34.i = getelementptr inbounds %struct.LotsOfLiveValues, ptr %liveValues_int, i32 0, i32 33
  %140 = load i32, ptr %liveValues_int, align 4
  %d33103.i = getelementptr inbounds %struct.LotsOfLiveValues, ptr %liveValues_int, i32 0, i32 32
  %141 = load i32, ptr %d33103.i, align 4
  %add104.i = add nsw i32 %140, %141
  store i32 %add104.i, ptr %d34.i, align 4
  %d35.i = getelementptr inbounds %struct.LotsOfLiveValues, ptr %liveValues_int, i32 0, i32 34
  %142 = load i32, ptr %liveValues_int, align 4
  %d34106.i = getelementptr inbounds %struct.LotsOfLiveValues, ptr %liveValues_int, i32 0, i32 33
  %143 = load i32, ptr %d34106.i, align 4
  %add107.i = add nsw i32 %142, %143
  store i32 %add107.i, ptr %d35.i, align 4
  %d36.i = getelementptr inbounds %struct.LotsOfLiveValues, ptr %liveValues_int, i32 0, i32 35
  %144 = load i32, ptr %liveValues_int, align 4
  %d35109.i = getelementptr inbounds %struct.LotsOfLiveValues, ptr %liveValues_int, i32 0, i32 34
  %145 = load i32, ptr %d35109.i, align 4
  %add110.i = add nsw i32 %144, %145
  store i32 %add110.i, ptr %d36.i, align 4
  %d37.i = getelementptr inbounds %struct.LotsOfLiveValues, ptr %liveValues_int, i32 0, i32 36
  %146 = load i32, ptr %liveValues_int, align 4
  %d36112.i = getelementptr inbounds %struct.LotsOfLiveValues, ptr %liveValues_int, i32 0, i32 35
  %147 = load i32, ptr %d36112.i, align 4
  %add113.i = add nsw i32 %146, %147
  store i32 %add113.i, ptr %d37.i, align 4
  %d38114.i = getelementptr inbounds %struct.LotsOfLiveValues, ptr %liveValues_int, i32 0, i32 37
  %148 = load i32, ptr %liveValues_int, align 4
  %d37116.i = getelementptr inbounds %struct.LotsOfLiveValues, ptr %liveValues_int, i32 0, i32 36
  %149 = load i32, ptr %d37116.i, align 4
  %add117.i = add nsw i32 %148, %149
  store i32 %add117.i, ptr %d38114.i, align 4
  %d39.i = getelementptr inbounds %struct.LotsOfLiveValues, ptr %liveValues_int, i32 0, i32 38
  %150 = load i32, ptr %liveValues_int, align 4
  %d38119.i = getelementptr inbounds %struct.LotsOfLiveValues, ptr %liveValues_int, i32 0, i32 37
  %151 = load i32, ptr %d38119.i, align 4
  %add120.i = add nsw i32 %150, %151
  store i32 %add120.i, ptr %d39.i, align 4
  br label %invoke.cont1

invoke.cont1:                                     ; preds = %invoke.cont
  %d39.i252 = getelementptr inbounds %struct.LotsOfLiveValues.0, ptr %liveValues_double, i32 0, i32 38
  %152 = load double, ptr %d39.i252, align 8
  %d38.i253 = getelementptr inbounds %struct.LotsOfLiveValues.0, ptr %liveValues_double, i32 0, i32 37
  %153 = load double, ptr %d38.i253, align 8
  %div.i254 = fdiv double %152, %153
  %d37.i255 = getelementptr inbounds %struct.LotsOfLiveValues.0, ptr %liveValues_double, i32 0, i32 36
  %154 = load double, ptr %d37.i255, align 8
  %div2.i256 = fdiv double %div.i254, %154
  %d36.i257 = getelementptr inbounds %struct.LotsOfLiveValues.0, ptr %liveValues_double, i32 0, i32 35
  %155 = load double, ptr %d36.i257, align 8
  %div3.i258 = fdiv double %div2.i256, %155
  %d35.i259 = getelementptr inbounds %struct.LotsOfLiveValues.0, ptr %liveValues_double, i32 0, i32 34
  %156 = load double, ptr %d35.i259, align 8
  %div4.i260 = fdiv double %div3.i258, %156
  %d34.i261 = getelementptr inbounds %struct.LotsOfLiveValues.0, ptr %liveValues_double, i32 0, i32 33
  %157 = load double, ptr %d34.i261, align 8
  %div5.i262 = fdiv double %div4.i260, %157
  %d33.i263 = getelementptr inbounds %struct.LotsOfLiveValues.0, ptr %liveValues_double, i32 0, i32 32
  %158 = load double, ptr %d33.i263, align 8
  %div6.i264 = fdiv double %div5.i262, %158
  %d32.i265 = getelementptr inbounds %struct.LotsOfLiveValues.0, ptr %liveValues_double, i32 0, i32 31
  %159 = load double, ptr %d32.i265, align 8
  %div7.i266 = fdiv double %div6.i264, %159
  %d31.i267 = getelementptr inbounds %struct.LotsOfLiveValues.0, ptr %liveValues_double, i32 0, i32 30
  %160 = load double, ptr %d31.i267, align 8
  %div8.i268 = fdiv double %div7.i266, %160
  %d30.i269 = getelementptr inbounds %struct.LotsOfLiveValues.0, ptr %liveValues_double, i32 0, i32 29
  %161 = load double, ptr %d30.i269, align 8
  %div9.i270 = fdiv double %div8.i268, %161
  %d29.i271 = getelementptr inbounds %struct.LotsOfLiveValues.0, ptr %liveValues_double, i32 0, i32 28
  %162 = load double, ptr %d29.i271, align 8
  %div10.i272 = fdiv double %div9.i270, %162
  %d28.i273 = getelementptr inbounds %struct.LotsOfLiveValues.0, ptr %liveValues_double, i32 0, i32 27
  %163 = load double, ptr %d28.i273, align 8
  %div11.i274 = fdiv double %div10.i272, %163
  %d27.i275 = getelementptr inbounds %struct.LotsOfLiveValues.0, ptr %liveValues_double, i32 0, i32 26
  %164 = load double, ptr %d27.i275, align 8
  %div12.i276 = fdiv double %div11.i274, %164
  %d26.i277 = getelementptr inbounds %struct.LotsOfLiveValues.0, ptr %liveValues_double, i32 0, i32 25
  %165 = load double, ptr %d26.i277, align 8
  %div13.i278 = fdiv double %div12.i276, %165
  %d25.i279 = getelementptr inbounds %struct.LotsOfLiveValues.0, ptr %liveValues_double, i32 0, i32 24
  %166 = load double, ptr %d25.i279, align 8
  %div14.i280 = fdiv double %div13.i278, %166
  %d24.i281 = getelementptr inbounds %struct.LotsOfLiveValues.0, ptr %liveValues_double, i32 0, i32 23
  %167 = load double, ptr %d24.i281, align 8
  %div15.i282 = fdiv double %div14.i280, %167
  %d23.i283 = getelementptr inbounds %struct.LotsOfLiveValues.0, ptr %liveValues_double, i32 0, i32 22
  %168 = load double, ptr %d23.i283, align 8
  %div16.i284 = fdiv double %div15.i282, %168
  %d22.i285 = getelementptr inbounds %struct.LotsOfLiveValues.0, ptr %liveValues_double, i32 0, i32 21
  %169 = load double, ptr %d22.i285, align 8
  %div17.i286 = fdiv double %div16.i284, %169
  %d21.i287 = getelementptr inbounds %struct.LotsOfLiveValues.0, ptr %liveValues_double, i32 0, i32 20
  %170 = load double, ptr %d21.i287, align 8
  %div18.i288 = fdiv double %div17.i286, %170
  %d20.i289 = getelementptr inbounds %struct.LotsOfLiveValues.0, ptr %liveValues_double, i32 0, i32 19
  %171 = load double, ptr %d20.i289, align 8
  %div19.i290 = fdiv double %div18.i288, %171
  %d19.i291 = getelementptr inbounds %struct.LotsOfLiveValues.0, ptr %liveValues_double, i32 0, i32 18
  %172 = load double, ptr %d19.i291, align 8
  %div20.i292 = fdiv double %div19.i290, %172
  %d18.i293 = getelementptr inbounds %struct.LotsOfLiveValues.0, ptr %liveValues_double, i32 0, i32 17
  %173 = load double, ptr %d18.i293, align 8
  %div21.i294 = fdiv double %div20.i292, %173
  %d17.i295 = getelementptr inbounds %struct.LotsOfLiveValues.0, ptr %liveValues_double, i32 0, i32 16
  %174 = load double, ptr %d17.i295, align 8
  %div22.i296 = fdiv double %div21.i294, %174
  %d16.i297 = getelementptr inbounds %struct.LotsOfLiveValues.0, ptr %liveValues_double, i32 0, i32 15
  %175 = load double, ptr %d16.i297, align 8
  %div23.i298 = fdiv double %div22.i296, %175
  %d15.i299 = getelementptr inbounds %struct.LotsOfLiveValues.0, ptr %liveValues_double, i32 0, i32 14
  %176 = load double, ptr %d15.i299, align 8
  %div24.i300 = fdiv double %div23.i298, %176
  %d14.i301 = getelementptr inbounds %struct.LotsOfLiveValues.0, ptr %liveValues_double, i32 0, i32 13
  %177 = load double, ptr %d14.i301, align 8
  %div25.i302 = fdiv double %div24.i300, %177
  %d13.i303 = getelementptr inbounds %struct.LotsOfLiveValues.0, ptr %liveValues_double, i32 0, i32 12
  %178 = load double, ptr %d13.i303, align 8
  %div26.i304 = fdiv double %div25.i302, %178
  %d12.i305 = getelementptr inbounds %struct.LotsOfLiveValues.0, ptr %liveValues_double, i32 0, i32 11
  %179 = load double, ptr %d12.i305, align 8
  %div27.i306 = fdiv double %div26.i304, %179
  %d11.i307 = getelementptr inbounds %struct.LotsOfLiveValues.0, ptr %liveValues_double, i32 0, i32 10
  %180 = load double, ptr %d11.i307, align 8
  %div28.i308 = fdiv double %div27.i306, %180
  %d10.i309 = getelementptr inbounds %struct.LotsOfLiveValues.0, ptr %liveValues_double, i32 0, i32 9
  %181 = load double, ptr %d10.i309, align 8
  %div29.i310 = fdiv double %div28.i308, %181
  %d9.i311 = getelementptr inbounds %struct.LotsOfLiveValues.0, ptr %liveValues_double, i32 0, i32 8
  %182 = load double, ptr %d9.i311, align 8
  %div30.i312 = fdiv double %div29.i310, %182
  %d8.i313 = getelementptr inbounds %struct.LotsOfLiveValues.0, ptr %liveValues_double, i32 0, i32 7
  %183 = load double, ptr %d8.i313, align 8
  %div31.i314 = fdiv double %div30.i312, %183
  %d7.i315 = getelementptr inbounds %struct.LotsOfLiveValues.0, ptr %liveValues_double, i32 0, i32 6
  %184 = load double, ptr %d7.i315, align 8
  %div32.i316 = fdiv double %div31.i314, %184
  %d6.i317 = getelementptr inbounds %struct.LotsOfLiveValues.0, ptr %liveValues_double, i32 0, i32 5
  %185 = load double, ptr %d6.i317, align 8
  %div33.i318 = fdiv double %div32.i316, %185
  %d5.i319 = getelementptr inbounds %struct.LotsOfLiveValues.0, ptr %liveValues_double, i32 0, i32 4
  %186 = load double, ptr %d5.i319, align 8
  %div34.i320 = fdiv double %div33.i318, %186
  %d4.i321 = getelementptr inbounds %struct.LotsOfLiveValues.0, ptr %liveValues_double, i32 0, i32 3
  %187 = load double, ptr %d4.i321, align 8
  %div35.i322 = fdiv double %div34.i320, %187
  %d3.i323 = getelementptr inbounds %struct.LotsOfLiveValues.0, ptr %liveValues_double, i32 0, i32 2
  %188 = load double, ptr %d3.i323, align 8
  %div36.i324 = fdiv double %div35.i322, %188
  %d2.i325 = getelementptr inbounds %struct.LotsOfLiveValues.0, ptr %liveValues_double, i32 0, i32 1
  %189 = load double, ptr %d2.i325, align 8
  %div37.i326 = fdiv double %div36.i324, %189
  %190 = load double, ptr %liveValues_double, align 8
  %div38.i327 = fdiv double %div37.i326, %190
  %d39.i138 = getelementptr inbounds %struct.LotsOfLiveValues, ptr %liveValues_int, i32 0, i32 38
  %191 = load i32, ptr %d39.i138, align 4
  %d38.i139 = getelementptr inbounds %struct.LotsOfLiveValues, ptr %liveValues_int, i32 0, i32 37
  %192 = load i32, ptr %d38.i139, align 4
  %div.i = sdiv i32 %191, %192
  %d37.i140 = getelementptr inbounds %struct.LotsOfLiveValues, ptr %liveValues_int, i32 0, i32 36
  %193 = load i32, ptr %d37.i140, align 4
  %div2.i = sdiv i32 %div.i, %193
  %d36.i141 = getelementptr inbounds %struct.LotsOfLiveValues, ptr %liveValues_int, i32 0, i32 35
  %194 = load i32, ptr %d36.i141, align 4
  %div3.i = sdiv i32 %div2.i, %194
  %d35.i142 = getelementptr inbounds %struct.LotsOfLiveValues, ptr %liveValues_int, i32 0, i32 34
  %195 = load i32, ptr %d35.i142, align 4
  %div4.i = sdiv i32 %div3.i, %195
  %d34.i143 = getelementptr inbounds %struct.LotsOfLiveValues, ptr %liveValues_int, i32 0, i32 33
  %196 = load i32, ptr %d34.i143, align 4
  %div5.i = sdiv i32 %div4.i, %196
  %d33.i144 = getelementptr inbounds %struct.LotsOfLiveValues, ptr %liveValues_int, i32 0, i32 32
  %197 = load i32, ptr %d33.i144, align 4
  %div6.i = sdiv i32 %div5.i, %197
  %d32.i145 = getelementptr inbounds %struct.LotsOfLiveValues, ptr %liveValues_int, i32 0, i32 31
  %198 = load i32, ptr %d32.i145, align 4
  %div7.i = sdiv i32 %div6.i, %198
  %d31.i146 = getelementptr inbounds %struct.LotsOfLiveValues, ptr %liveValues_int, i32 0, i32 30
  %199 = load i32, ptr %d31.i146, align 4
  %div8.i = sdiv i32 %div7.i, %199
  %d30.i147 = getelementptr inbounds %struct.LotsOfLiveValues, ptr %liveValues_int, i32 0, i32 29
  %200 = load i32, ptr %d30.i147, align 4
  %div9.i = sdiv i32 %div8.i, %200
  %d29.i148 = getelementptr inbounds %struct.LotsOfLiveValues, ptr %liveValues_int, i32 0, i32 28
  %201 = load i32, ptr %d29.i148, align 4
  %div10.i = sdiv i32 %div9.i, %201
  %d28.i149 = getelementptr inbounds %struct.LotsOfLiveValues, ptr %liveValues_int, i32 0, i32 27
  %202 = load i32, ptr %d28.i149, align 4
  %div11.i = sdiv i32 %div10.i, %202
  %d27.i150 = getelementptr inbounds %struct.LotsOfLiveValues, ptr %liveValues_int, i32 0, i32 26
  %203 = load i32, ptr %d27.i150, align 4
  %div12.i = sdiv i32 %div11.i, %203
  %d26.i151 = getelementptr inbounds %struct.LotsOfLiveValues, ptr %liveValues_int, i32 0, i32 25
  %204 = load i32, ptr %d26.i151, align 4
  %div13.i = sdiv i32 %div12.i, %204
  %d25.i152 = getelementptr inbounds %struct.LotsOfLiveValues, ptr %liveValues_int, i32 0, i32 24
  %205 = load i32, ptr %d25.i152, align 4
  %div14.i = sdiv i32 %div13.i, %205
  %d24.i153 = getelementptr inbounds %struct.LotsOfLiveValues, ptr %liveValues_int, i32 0, i32 23
  %206 = load i32, ptr %d24.i153, align 4
  %div15.i = sdiv i32 %div14.i, %206
  %d23.i154 = getelementptr inbounds %struct.LotsOfLiveValues, ptr %liveValues_int, i32 0, i32 22
  %207 = load i32, ptr %d23.i154, align 4
  %div16.i = sdiv i32 %div15.i, %207
  %d22.i155 = getelementptr inbounds %struct.LotsOfLiveValues, ptr %liveValues_int, i32 0, i32 21
  %208 = load i32, ptr %d22.i155, align 4
  %div17.i = sdiv i32 %div16.i, %208
  %d21.i156 = getelementptr inbounds %struct.LotsOfLiveValues, ptr %liveValues_int, i32 0, i32 20
  %209 = load i32, ptr %d21.i156, align 4
  %div18.i = sdiv i32 %div17.i, %209
  %d20.i157 = getelementptr inbounds %struct.LotsOfLiveValues, ptr %liveValues_int, i32 0, i32 19
  %210 = load i32, ptr %d20.i157, align 4
  %div19.i = sdiv i32 %div18.i, %210
  %d19.i158 = getelementptr inbounds %struct.LotsOfLiveValues, ptr %liveValues_int, i32 0, i32 18
  %211 = load i32, ptr %d19.i158, align 4
  %div20.i = sdiv i32 %div19.i, %211
  %d18.i159 = getelementptr inbounds %struct.LotsOfLiveValues, ptr %liveValues_int, i32 0, i32 17
  %212 = load i32, ptr %d18.i159, align 4
  %div21.i = sdiv i32 %div20.i, %212
  %d17.i = getelementptr inbounds %struct.LotsOfLiveValues, ptr %liveValues_int, i32 0, i32 16
  %213 = load i32, ptr %d17.i, align 4
  %div22.i = sdiv i32 %div21.i, %213
  %d16.i160 = getelementptr inbounds %struct.LotsOfLiveValues, ptr %liveValues_int, i32 0, i32 15
  %214 = load i32, ptr %d16.i160, align 4
  %div23.i = sdiv i32 %div22.i, %214
  %d15.i161 = getelementptr inbounds %struct.LotsOfLiveValues, ptr %liveValues_int, i32 0, i32 14
  %215 = load i32, ptr %d15.i161, align 4
  %div24.i = sdiv i32 %div23.i, %215
  %d14.i = getelementptr inbounds %struct.LotsOfLiveValues, ptr %liveValues_int, i32 0, i32 13
  %216 = load i32, ptr %d14.i, align 4
  %div25.i = sdiv i32 %div24.i, %216
  %d13.i = getelementptr inbounds %struct.LotsOfLiveValues, ptr %liveValues_int, i32 0, i32 12
  %217 = load i32, ptr %d13.i, align 4
  %div26.i = sdiv i32 %div25.i, %217
  %d12.i = getelementptr inbounds %struct.LotsOfLiveValues, ptr %liveValues_int, i32 0, i32 11
  %218 = load i32, ptr %d12.i, align 4
  %div27.i = sdiv i32 %div26.i, %218
  %d11.i162 = getelementptr inbounds %struct.LotsOfLiveValues, ptr %liveValues_int, i32 0, i32 10
  %219 = load i32, ptr %d11.i162, align 4
  %div28.i = sdiv i32 %div27.i, %219
  %d10.i163 = getelementptr inbounds %struct.LotsOfLiveValues, ptr %liveValues_int, i32 0, i32 9
  %220 = load i32, ptr %d10.i163, align 4
  %div29.i = sdiv i32 %div28.i, %220
  %d9.i164 = getelementptr inbounds %struct.LotsOfLiveValues, ptr %liveValues_int, i32 0, i32 8
  %221 = load i32, ptr %d9.i164, align 4
  %div30.i = sdiv i32 %div29.i, %221
  %d8.i165 = getelementptr inbounds %struct.LotsOfLiveValues, ptr %liveValues_int, i32 0, i32 7
  %222 = load i32, ptr %d8.i165, align 4
  %div31.i = sdiv i32 %div30.i, %222
  %d7.i166 = getelementptr inbounds %struct.LotsOfLiveValues, ptr %liveValues_int, i32 0, i32 6
  %223 = load i32, ptr %d7.i166, align 4
  %div32.i = sdiv i32 %div31.i, %223
  %d6.i167 = getelementptr inbounds %struct.LotsOfLiveValues, ptr %liveValues_int, i32 0, i32 5
  %224 = load i32, ptr %d6.i167, align 4
  %div33.i = sdiv i32 %div32.i, %224
  %d5.i168 = getelementptr inbounds %struct.LotsOfLiveValues, ptr %liveValues_int, i32 0, i32 4
  %225 = load i32, ptr %d5.i168, align 4
  %div34.i = sdiv i32 %div33.i, %225
  %d4.i169 = getelementptr inbounds %struct.LotsOfLiveValues, ptr %liveValues_int, i32 0, i32 3
  %226 = load i32, ptr %d4.i169, align 4
  %div35.i = sdiv i32 %div34.i, %226
  %d3.i170 = getelementptr inbounds %struct.LotsOfLiveValues, ptr %liveValues_int, i32 0, i32 2
  %227 = load i32, ptr %d3.i170, align 4
  %div36.i = sdiv i32 %div35.i, %227
  %d2.i171 = getelementptr inbounds %struct.LotsOfLiveValues, ptr %liveValues_int, i32 0, i32 1
  %228 = load i32, ptr %d2.i171, align 4
  %div37.i = sdiv i32 %div36.i, %228
  %229 = load i32, ptr %liveValues_int, align 4
  %div38.i = sdiv i32 %div37.i, %229
  %conv3 = sitofp i32 %div38.i to double
  %add = fadd double %div38.i327, %conv3
  %arraydecay = getelementptr inbounds [100 x %union.trace_element], ptr %trace, i64 0, i64 0
  invoke void @_Z10test_frameILj4096ELb0ELj2048ELb0ELb0EJEEvDpT4_jPKcP13trace_elementd(i32 noundef 100, ptr noundef @.str.35, ptr noundef %arraydecay, double noundef %add)
          to label %invoke.cont5 unwind label %lpad4

invoke.cont5:                                     ; preds = %invoke.cont1
  %arrayidx = getelementptr inbounds [100 x %union.trace_element], ptr %trace, i64 0, i64 0
  %230 = load double, ptr %arrayidx, align 16
  %231 = load double, ptr %liveValues_double, align 8
  %d2.i331 = getelementptr inbounds %struct.LotsOfLiveValues.0, ptr %liveValues_double, i32 0, i32 1
  %232 = load double, ptr %d2.i331, align 8
  %div.i332 = fdiv double %231, %232
  %d3.i333 = getelementptr inbounds %struct.LotsOfLiveValues.0, ptr %liveValues_double, i32 0, i32 2
  %233 = load double, ptr %d3.i333, align 8
  %div2.i334 = fdiv double %div.i332, %233
  %d4.i335 = getelementptr inbounds %struct.LotsOfLiveValues.0, ptr %liveValues_double, i32 0, i32 3
  %234 = load double, ptr %d4.i335, align 8
  %div3.i336 = fdiv double %div2.i334, %234
  %d5.i337 = getelementptr inbounds %struct.LotsOfLiveValues.0, ptr %liveValues_double, i32 0, i32 4
  %235 = load double, ptr %d5.i337, align 8
  %div4.i338 = fdiv double %div3.i336, %235
  %d6.i339 = getelementptr inbounds %struct.LotsOfLiveValues.0, ptr %liveValues_double, i32 0, i32 5
  %236 = load double, ptr %d6.i339, align 8
  %div5.i340 = fdiv double %div4.i338, %236
  %d7.i341 = getelementptr inbounds %struct.LotsOfLiveValues.0, ptr %liveValues_double, i32 0, i32 6
  %237 = load double, ptr %d7.i341, align 8
  %div6.i342 = fdiv double %div5.i340, %237
  %d8.i343 = getelementptr inbounds %struct.LotsOfLiveValues.0, ptr %liveValues_double, i32 0, i32 7
  %238 = load double, ptr %d8.i343, align 8
  %div7.i344 = fdiv double %div6.i342, %238
  %d9.i345 = getelementptr inbounds %struct.LotsOfLiveValues.0, ptr %liveValues_double, i32 0, i32 8
  %239 = load double, ptr %d9.i345, align 8
  %div8.i346 = fdiv double %div7.i344, %239
  %d10.i347 = getelementptr inbounds %struct.LotsOfLiveValues.0, ptr %liveValues_double, i32 0, i32 9
  %240 = load double, ptr %d10.i347, align 8
  %div9.i348 = fdiv double %div8.i346, %240
  %d11.i349 = getelementptr inbounds %struct.LotsOfLiveValues.0, ptr %liveValues_double, i32 0, i32 10
  %241 = load double, ptr %d11.i349, align 8
  %div10.i350 = fdiv double %div9.i348, %241
  %d12.i351 = getelementptr inbounds %struct.LotsOfLiveValues.0, ptr %liveValues_double, i32 0, i32 11
  %242 = load double, ptr %d12.i351, align 8
  %div11.i352 = fdiv double %div10.i350, %242
  %d13.i353 = getelementptr inbounds %struct.LotsOfLiveValues.0, ptr %liveValues_double, i32 0, i32 12
  %243 = load double, ptr %d13.i353, align 8
  %div12.i354 = fdiv double %div11.i352, %243
  %d14.i355 = getelementptr inbounds %struct.LotsOfLiveValues.0, ptr %liveValues_double, i32 0, i32 13
  %244 = load double, ptr %d14.i355, align 8
  %div13.i356 = fdiv double %div12.i354, %244
  %d15.i357 = getelementptr inbounds %struct.LotsOfLiveValues.0, ptr %liveValues_double, i32 0, i32 14
  %245 = load double, ptr %d15.i357, align 8
  %div14.i358 = fdiv double %div13.i356, %245
  %d16.i359 = getelementptr inbounds %struct.LotsOfLiveValues.0, ptr %liveValues_double, i32 0, i32 15
  %246 = load double, ptr %d16.i359, align 8
  %div15.i360 = fdiv double %div14.i358, %246
  %d17.i361 = getelementptr inbounds %struct.LotsOfLiveValues.0, ptr %liveValues_double, i32 0, i32 16
  %247 = load double, ptr %d17.i361, align 8
  %div16.i362 = fdiv double %div15.i360, %247
  %d18.i363 = getelementptr inbounds %struct.LotsOfLiveValues.0, ptr %liveValues_double, i32 0, i32 17
  %248 = load double, ptr %d18.i363, align 8
  %div17.i364 = fdiv double %div16.i362, %248
  %d19.i365 = getelementptr inbounds %struct.LotsOfLiveValues.0, ptr %liveValues_double, i32 0, i32 18
  %249 = load double, ptr %d19.i365, align 8
  %div18.i366 = fdiv double %div17.i364, %249
  %d20.i367 = getelementptr inbounds %struct.LotsOfLiveValues.0, ptr %liveValues_double, i32 0, i32 19
  %250 = load double, ptr %d20.i367, align 8
  %div19.i368 = fdiv double %div18.i366, %250
  %d21.i369 = getelementptr inbounds %struct.LotsOfLiveValues.0, ptr %liveValues_double, i32 0, i32 20
  %251 = load double, ptr %d21.i369, align 8
  %div20.i370 = fdiv double %div19.i368, %251
  %d22.i371 = getelementptr inbounds %struct.LotsOfLiveValues.0, ptr %liveValues_double, i32 0, i32 21
  %252 = load double, ptr %d22.i371, align 8
  %div21.i372 = fdiv double %div20.i370, %252
  %d23.i373 = getelementptr inbounds %struct.LotsOfLiveValues.0, ptr %liveValues_double, i32 0, i32 22
  %253 = load double, ptr %d23.i373, align 8
  %div22.i374 = fdiv double %div21.i372, %253
  %d24.i375 = getelementptr inbounds %struct.LotsOfLiveValues.0, ptr %liveValues_double, i32 0, i32 23
  %254 = load double, ptr %d24.i375, align 8
  %div23.i376 = fdiv double %div22.i374, %254
  %d25.i377 = getelementptr inbounds %struct.LotsOfLiveValues.0, ptr %liveValues_double, i32 0, i32 24
  %255 = load double, ptr %d25.i377, align 8
  %div24.i378 = fdiv double %div23.i376, %255
  %d26.i379 = getelementptr inbounds %struct.LotsOfLiveValues.0, ptr %liveValues_double, i32 0, i32 25
  %256 = load double, ptr %d26.i379, align 8
  %div25.i380 = fdiv double %div24.i378, %256
  %d27.i381 = getelementptr inbounds %struct.LotsOfLiveValues.0, ptr %liveValues_double, i32 0, i32 26
  %257 = load double, ptr %d27.i381, align 8
  %div26.i382 = fdiv double %div25.i380, %257
  %d28.i383 = getelementptr inbounds %struct.LotsOfLiveValues.0, ptr %liveValues_double, i32 0, i32 27
  %258 = load double, ptr %d28.i383, align 8
  %div27.i384 = fdiv double %div26.i382, %258
  %d29.i385 = getelementptr inbounds %struct.LotsOfLiveValues.0, ptr %liveValues_double, i32 0, i32 28
  %259 = load double, ptr %d29.i385, align 8
  %div28.i386 = fdiv double %div27.i384, %259
  %d30.i387 = getelementptr inbounds %struct.LotsOfLiveValues.0, ptr %liveValues_double, i32 0, i32 29
  %260 = load double, ptr %d30.i387, align 8
  %div29.i388 = fdiv double %div28.i386, %260
  %d31.i389 = getelementptr inbounds %struct.LotsOfLiveValues.0, ptr %liveValues_double, i32 0, i32 30
  %261 = load double, ptr %d31.i389, align 8
  %div30.i390 = fdiv double %div29.i388, %261
  %d32.i391 = getelementptr inbounds %struct.LotsOfLiveValues.0, ptr %liveValues_double, i32 0, i32 31
  %262 = load double, ptr %d32.i391, align 8
  %div31.i392 = fdiv double %div30.i390, %262
  %d33.i393 = getelementptr inbounds %struct.LotsOfLiveValues.0, ptr %liveValues_double, i32 0, i32 32
  %263 = load double, ptr %d33.i393, align 8
  %div32.i394 = fdiv double %div31.i392, %263
  %d34.i395 = getelementptr inbounds %struct.LotsOfLiveValues.0, ptr %liveValues_double, i32 0, i32 33
  %264 = load double, ptr %d34.i395, align 8
  %div33.i396 = fdiv double %div32.i394, %264
  %d35.i397 = getelementptr inbounds %struct.LotsOfLiveValues.0, ptr %liveValues_double, i32 0, i32 34
  %265 = load double, ptr %d35.i397, align 8
  %div34.i398 = fdiv double %div33.i396, %265
  %d36.i399 = getelementptr inbounds %struct.LotsOfLiveValues.0, ptr %liveValues_double, i32 0, i32 35
  %266 = load double, ptr %d36.i399, align 8
  %div35.i400 = fdiv double %div34.i398, %266
  %d37.i401 = getelementptr inbounds %struct.LotsOfLiveValues.0, ptr %liveValues_double, i32 0, i32 36
  %267 = load double, ptr %d37.i401, align 8
  %div36.i402 = fdiv double %div35.i400, %267
  %d38.i403 = getelementptr inbounds %struct.LotsOfLiveValues.0, ptr %liveValues_double, i32 0, i32 37
  %268 = load double, ptr %d38.i403, align 8
  %div37.i404 = fdiv double %div36.i402, %268
  %d39.i405 = getelementptr inbounds %struct.LotsOfLiveValues.0, ptr %liveValues_double, i32 0, i32 38
  %269 = load double, ptr %d39.i405, align 8
  %div38.i406 = fdiv double %div37.i404, %269
  %div39.i407 = fdiv double %div38.i406, %230
  %arrayidx7 = getelementptr inbounds [100 x %union.trace_element], ptr %trace, i64 0, i64 0
  %270 = load i32, ptr %arrayidx7, align 16
  %271 = load i32, ptr %liveValues_int, align 4
  %d2.i174 = getelementptr inbounds %struct.LotsOfLiveValues, ptr %liveValues_int, i32 0, i32 1
  %272 = load i32, ptr %d2.i174, align 4
  %div.i175 = sdiv i32 %271, %272
  %d3.i176 = getelementptr inbounds %struct.LotsOfLiveValues, ptr %liveValues_int, i32 0, i32 2
  %273 = load i32, ptr %d3.i176, align 4
  %div2.i177 = sdiv i32 %div.i175, %273
  %d4.i178 = getelementptr inbounds %struct.LotsOfLiveValues, ptr %liveValues_int, i32 0, i32 3
  %274 = load i32, ptr %d4.i178, align 4
  %div3.i179 = sdiv i32 %div2.i177, %274
  %d5.i180 = getelementptr inbounds %struct.LotsOfLiveValues, ptr %liveValues_int, i32 0, i32 4
  %275 = load i32, ptr %d5.i180, align 4
  %div4.i181 = sdiv i32 %div3.i179, %275
  %d6.i182 = getelementptr inbounds %struct.LotsOfLiveValues, ptr %liveValues_int, i32 0, i32 5
  %276 = load i32, ptr %d6.i182, align 4
  %div5.i183 = sdiv i32 %div4.i181, %276
  %d7.i184 = getelementptr inbounds %struct.LotsOfLiveValues, ptr %liveValues_int, i32 0, i32 6
  %277 = load i32, ptr %d7.i184, align 4
  %div6.i185 = sdiv i32 %div5.i183, %277
  %d8.i186 = getelementptr inbounds %struct.LotsOfLiveValues, ptr %liveValues_int, i32 0, i32 7
  %278 = load i32, ptr %d8.i186, align 4
  %div7.i187 = sdiv i32 %div6.i185, %278
  %d9.i188 = getelementptr inbounds %struct.LotsOfLiveValues, ptr %liveValues_int, i32 0, i32 8
  %279 = load i32, ptr %d9.i188, align 4
  %div8.i189 = sdiv i32 %div7.i187, %279
  %d10.i190 = getelementptr inbounds %struct.LotsOfLiveValues, ptr %liveValues_int, i32 0, i32 9
  %280 = load i32, ptr %d10.i190, align 4
  %div9.i191 = sdiv i32 %div8.i189, %280
  %d11.i192 = getelementptr inbounds %struct.LotsOfLiveValues, ptr %liveValues_int, i32 0, i32 10
  %281 = load i32, ptr %d11.i192, align 4
  %div10.i193 = sdiv i32 %div9.i191, %281
  %d12.i194 = getelementptr inbounds %struct.LotsOfLiveValues, ptr %liveValues_int, i32 0, i32 11
  %282 = load i32, ptr %d12.i194, align 4
  %div11.i195 = sdiv i32 %div10.i193, %282
  %d13.i196 = getelementptr inbounds %struct.LotsOfLiveValues, ptr %liveValues_int, i32 0, i32 12
  %283 = load i32, ptr %d13.i196, align 4
  %div12.i197 = sdiv i32 %div11.i195, %283
  %d14.i198 = getelementptr inbounds %struct.LotsOfLiveValues, ptr %liveValues_int, i32 0, i32 13
  %284 = load i32, ptr %d14.i198, align 4
  %div13.i199 = sdiv i32 %div12.i197, %284
  %d15.i200 = getelementptr inbounds %struct.LotsOfLiveValues, ptr %liveValues_int, i32 0, i32 14
  %285 = load i32, ptr %d15.i200, align 4
  %div14.i201 = sdiv i32 %div13.i199, %285
  %d16.i202 = getelementptr inbounds %struct.LotsOfLiveValues, ptr %liveValues_int, i32 0, i32 15
  %286 = load i32, ptr %d16.i202, align 4
  %div15.i203 = sdiv i32 %div14.i201, %286
  %d17.i204 = getelementptr inbounds %struct.LotsOfLiveValues, ptr %liveValues_int, i32 0, i32 16
  %287 = load i32, ptr %d17.i204, align 4
  %div16.i205 = sdiv i32 %div15.i203, %287
  %d18.i206 = getelementptr inbounds %struct.LotsOfLiveValues, ptr %liveValues_int, i32 0, i32 17
  %288 = load i32, ptr %d18.i206, align 4
  %div17.i207 = sdiv i32 %div16.i205, %288
  %d19.i208 = getelementptr inbounds %struct.LotsOfLiveValues, ptr %liveValues_int, i32 0, i32 18
  %289 = load i32, ptr %d19.i208, align 4
  %div18.i209 = sdiv i32 %div17.i207, %289
  %d20.i210 = getelementptr inbounds %struct.LotsOfLiveValues, ptr %liveValues_int, i32 0, i32 19
  %290 = load i32, ptr %d20.i210, align 4
  %div19.i211 = sdiv i32 %div18.i209, %290
  %d21.i212 = getelementptr inbounds %struct.LotsOfLiveValues, ptr %liveValues_int, i32 0, i32 20
  %291 = load i32, ptr %d21.i212, align 4
  %div20.i213 = sdiv i32 %div19.i211, %291
  %d22.i214 = getelementptr inbounds %struct.LotsOfLiveValues, ptr %liveValues_int, i32 0, i32 21
  %292 = load i32, ptr %d22.i214, align 4
  %div21.i215 = sdiv i32 %div20.i213, %292
  %d23.i216 = getelementptr inbounds %struct.LotsOfLiveValues, ptr %liveValues_int, i32 0, i32 22
  %293 = load i32, ptr %d23.i216, align 4
  %div22.i217 = sdiv i32 %div21.i215, %293
  %d24.i218 = getelementptr inbounds %struct.LotsOfLiveValues, ptr %liveValues_int, i32 0, i32 23
  %294 = load i32, ptr %d24.i218, align 4
  %div23.i219 = sdiv i32 %div22.i217, %294
  %d25.i220 = getelementptr inbounds %struct.LotsOfLiveValues, ptr %liveValues_int, i32 0, i32 24
  %295 = load i32, ptr %d25.i220, align 4
  %div24.i221 = sdiv i32 %div23.i219, %295
  %d26.i222 = getelementptr inbounds %struct.LotsOfLiveValues, ptr %liveValues_int, i32 0, i32 25
  %296 = load i32, ptr %d26.i222, align 4
  %div25.i223 = sdiv i32 %div24.i221, %296
  %d27.i224 = getelementptr inbounds %struct.LotsOfLiveValues, ptr %liveValues_int, i32 0, i32 26
  %297 = load i32, ptr %d27.i224, align 4
  %div26.i225 = sdiv i32 %div25.i223, %297
  %d28.i226 = getelementptr inbounds %struct.LotsOfLiveValues, ptr %liveValues_int, i32 0, i32 27
  %298 = load i32, ptr %d28.i226, align 4
  %div27.i227 = sdiv i32 %div26.i225, %298
  %d29.i228 = getelementptr inbounds %struct.LotsOfLiveValues, ptr %liveValues_int, i32 0, i32 28
  %299 = load i32, ptr %d29.i228, align 4
  %div28.i229 = sdiv i32 %div27.i227, %299
  %d30.i230 = getelementptr inbounds %struct.LotsOfLiveValues, ptr %liveValues_int, i32 0, i32 29
  %300 = load i32, ptr %d30.i230, align 4
  %div29.i231 = sdiv i32 %div28.i229, %300
  %d31.i232 = getelementptr inbounds %struct.LotsOfLiveValues, ptr %liveValues_int, i32 0, i32 30
  %301 = load i32, ptr %d31.i232, align 4
  %div30.i233 = sdiv i32 %div29.i231, %301
  %d32.i234 = getelementptr inbounds %struct.LotsOfLiveValues, ptr %liveValues_int, i32 0, i32 31
  %302 = load i32, ptr %d32.i234, align 4
  %div31.i235 = sdiv i32 %div30.i233, %302
  %d33.i236 = getelementptr inbounds %struct.LotsOfLiveValues, ptr %liveValues_int, i32 0, i32 32
  %303 = load i32, ptr %d33.i236, align 4
  %div32.i237 = sdiv i32 %div31.i235, %303
  %d34.i238 = getelementptr inbounds %struct.LotsOfLiveValues, ptr %liveValues_int, i32 0, i32 33
  %304 = load i32, ptr %d34.i238, align 4
  %div33.i239 = sdiv i32 %div32.i237, %304
  %d35.i240 = getelementptr inbounds %struct.LotsOfLiveValues, ptr %liveValues_int, i32 0, i32 34
  %305 = load i32, ptr %d35.i240, align 4
  %div34.i241 = sdiv i32 %div33.i239, %305
  %d36.i242 = getelementptr inbounds %struct.LotsOfLiveValues, ptr %liveValues_int, i32 0, i32 35
  %306 = load i32, ptr %d36.i242, align 4
  %div35.i243 = sdiv i32 %div34.i241, %306
  %d37.i244 = getelementptr inbounds %struct.LotsOfLiveValues, ptr %liveValues_int, i32 0, i32 36
  %307 = load i32, ptr %d37.i244, align 4
  %div36.i245 = sdiv i32 %div35.i243, %307
  %d38.i246 = getelementptr inbounds %struct.LotsOfLiveValues, ptr %liveValues_int, i32 0, i32 37
  %308 = load i32, ptr %d38.i246, align 4
  %div37.i247 = sdiv i32 %div36.i245, %308
  %d39.i248 = getelementptr inbounds %struct.LotsOfLiveValues, ptr %liveValues_int, i32 0, i32 38
  %309 = load i32, ptr %d39.i248, align 4
  %div38.i249 = sdiv i32 %div37.i247, %309
  %div39.i = sdiv i32 %div38.i249, %270
  %conv9 = sitofp i32 %div39.i to double
  %add10 = fadd double %div39.i407, %conv9
  %conv11 = fptosi double %add10 to i32
  %310 = load volatile i32, ptr %dumping_ground, align 4
  %add12 = add nsw i32 %310, %conv11
  store volatile i32 %add12, ptr %dumping_ground, align 4
  br label %try.cont

lpad:                                             ; preds = %try.cont
  %311 = landingpad { ptr, i32 }
          cleanup
  %312 = extractvalue { ptr, i32 } %311, 0
  %313 = extractvalue { ptr, i32 } %311, 1
  br label %ehcleanup

lpad4:                                            ; preds = %invoke.cont1
  %314 = landingpad { ptr, i32 }
          cleanup
          catch ptr @_ZTIi
  %315 = extractvalue { ptr, i32 } %314, 0
  %316 = extractvalue { ptr, i32 } %314, 1
  br label %catch.dispatch

catch.dispatch:                                   ; preds = %lpad4
  %317 = call i32 @llvm.eh.typeid.for(ptr @_ZTIi) #4
  %matches = icmp eq i32 %316, %317
  br i1 %matches, label %catch, label %ehcleanup

catch:                                            ; preds = %catch.dispatch
  %318 = call ptr @__cxa_begin_catch(ptr %315) #4
  %319 = load i32, ptr %318, align 4
  call void @__cxa_end_catch() #4
  br label %try.cont

try.cont:                                         ; preds = %catch, %invoke.cont5
  %exception_value.0 = phi i32 [ -1, %invoke.cont5 ], [ %319, %catch ]
  %call13 = call noundef ptr @_ZNKSt7__cxx1112basic_stringIcSt11char_traitsIcESaIcEE5c_strEv(ptr noundef nonnull align 8 dereferenceable(32) %test_description) #4
  %arraydecay14 = getelementptr inbounds [100 x %union.trace_element], ptr %trace, i64 0, i64 0
  %call16 = invoke noundef zeroext i1 @_Z11check_tracePKcS0_PK13trace_elementdjbjjbbi(ptr noundef %call13, ptr noundef @.str.35, ptr noundef %arraydecay14, double noundef %add, i32 noundef 4096, i1 noundef zeroext false, i32 noundef 100, i32 noundef 2048, i1 noundef zeroext false, i1 noundef zeroext false, i32 noundef %exception_value.0)
          to label %invoke.cont15 unwind label %lpad

invoke.cont15:                                    ; preds = %try.cont
  call void @_ZNSt7__cxx1112basic_stringIcSt11char_traitsIcESaIcEED1Ev(ptr noundef nonnull align 8 dereferenceable(32) %test_description) #4
  ret i1 %call16

ehcleanup:                                        ; preds = %catch.dispatch, %lpad
  %exn.slot.0 = phi ptr [ %312, %lpad ], [ %315, %catch.dispatch ]
  %ehselector.slot.0 = phi i32 [ %313, %lpad ], [ %316, %catch.dispatch ]
  call void @_ZNSt7__cxx1112basic_stringIcSt11char_traitsIcESaIcEED1Ev(ptr noundef nonnull align 8 dereferenceable(32) %test_description) #4
  br label %eh.resume

eh.resume:                                        ; preds = %ehcleanup
  %lpad.val = insertvalue { ptr, i32 } poison, ptr %exn.slot.0, 0
  %lpad.val19 = insertvalue { ptr, i32 } %lpad.val, i32 %ehselector.slot.0, 1
  resume { ptr, i32 } %lpad.val19
}

; Function Attrs: noinline uwtable
define linkonce_odr dso_local noundef zeroext i1 @_Z19check_frame_variantILb0ELb0ELb0ELb0ELb0EEbiRVi(i32 noundef %seed, ptr noundef nonnull align 4 dereferenceable(4) %dumping_ground) #0 comdat personality ptr @__gxx_personality_v0 {
entry:
  %trace = alloca [100 x %union.trace_element], align 16
  %test_description = alloca %"class.std::__cxx11::basic_string", align 8
  %liveValues_double = alloca %struct.LotsOfLiveValues.0, align 8
  %liveValues_int = alloca %struct.LotsOfLiveValues, align 4
  call void @_Z24getTestDescriptionStringB5cxx11bbbbb(ptr sret(%"class.std::__cxx11::basic_string") align 8 %test_description, i1 noundef zeroext false, i1 noundef zeroext false, i1 noundef zeroext false, i1 noundef zeroext false, i1 noundef zeroext false)
  %conv = sitofp i32 %seed to double
  store double %conv, ptr %liveValues_double, align 8
  %d2.i23 = getelementptr inbounds %struct.LotsOfLiveValues.0, ptr %liveValues_double, i32 0, i32 1
  %0 = load double, ptr %liveValues_double, align 8
  %1 = load double, ptr %liveValues_double, align 8
  %add.i24 = fadd double %0, %1
  store double %add.i24, ptr %d2.i23, align 8
  %d3.i25 = getelementptr inbounds %struct.LotsOfLiveValues.0, ptr %liveValues_double, i32 0, i32 2
  %2 = load double, ptr %liveValues_double, align 8
  %d25.i26 = getelementptr inbounds %struct.LotsOfLiveValues.0, ptr %liveValues_double, i32 0, i32 1
  %3 = load double, ptr %d25.i26, align 8
  %add6.i27 = fadd double %2, %3
  store double %add6.i27, ptr %d3.i25, align 8
  %d4.i28 = getelementptr inbounds %struct.LotsOfLiveValues.0, ptr %liveValues_double, i32 0, i32 3
  %4 = load double, ptr %liveValues_double, align 8
  %d38.i29 = getelementptr inbounds %struct.LotsOfLiveValues.0, ptr %liveValues_double, i32 0, i32 2
  %5 = load double, ptr %d38.i29, align 8
  %add9.i30 = fadd double %4, %5
  store double %add9.i30, ptr %d4.i28, align 8
  %d5.i31 = getelementptr inbounds %struct.LotsOfLiveValues.0, ptr %liveValues_double, i32 0, i32 4
  %6 = load double, ptr %liveValues_double, align 8
  %d411.i32 = getelementptr inbounds %struct.LotsOfLiveValues.0, ptr %liveValues_double, i32 0, i32 3
  %7 = load double, ptr %d411.i32, align 8
  %add12.i33 = fadd double %6, %7
  store double %add12.i33, ptr %d5.i31, align 8
  %d6.i34 = getelementptr inbounds %struct.LotsOfLiveValues.0, ptr %liveValues_double, i32 0, i32 5
  %8 = load double, ptr %liveValues_double, align 8
  %d514.i35 = getelementptr inbounds %struct.LotsOfLiveValues.0, ptr %liveValues_double, i32 0, i32 4
  %9 = load double, ptr %d514.i35, align 8
  %add15.i36 = fadd double %8, %9
  store double %add15.i36, ptr %d6.i34, align 8
  %d7.i37 = getelementptr inbounds %struct.LotsOfLiveValues.0, ptr %liveValues_double, i32 0, i32 6
  %10 = load double, ptr %liveValues_double, align 8
  %d617.i38 = getelementptr inbounds %struct.LotsOfLiveValues.0, ptr %liveValues_double, i32 0, i32 5
  %11 = load double, ptr %d617.i38, align 8
  %add18.i39 = fadd double %10, %11
  store double %add18.i39, ptr %d7.i37, align 8
  %d8.i40 = getelementptr inbounds %struct.LotsOfLiveValues.0, ptr %liveValues_double, i32 0, i32 7
  %12 = load double, ptr %liveValues_double, align 8
  %d720.i41 = getelementptr inbounds %struct.LotsOfLiveValues.0, ptr %liveValues_double, i32 0, i32 6
  %13 = load double, ptr %d720.i41, align 8
  %add21.i42 = fadd double %12, %13
  store double %add21.i42, ptr %d8.i40, align 8
  %d9.i43 = getelementptr inbounds %struct.LotsOfLiveValues.0, ptr %liveValues_double, i32 0, i32 8
  %14 = load double, ptr %liveValues_double, align 8
  %d823.i44 = getelementptr inbounds %struct.LotsOfLiveValues.0, ptr %liveValues_double, i32 0, i32 7
  %15 = load double, ptr %d823.i44, align 8
  %add24.i45 = fadd double %14, %15
  store double %add24.i45, ptr %d9.i43, align 8
  %d10.i46 = getelementptr inbounds %struct.LotsOfLiveValues.0, ptr %liveValues_double, i32 0, i32 9
  %16 = load double, ptr %liveValues_double, align 8
  %d926.i47 = getelementptr inbounds %struct.LotsOfLiveValues.0, ptr %liveValues_double, i32 0, i32 8
  %17 = load double, ptr %d926.i47, align 8
  %add27.i48 = fadd double %16, %17
  store double %add27.i48, ptr %d10.i46, align 8
  %d11.i49 = getelementptr inbounds %struct.LotsOfLiveValues.0, ptr %liveValues_double, i32 0, i32 10
  %18 = load double, ptr %liveValues_double, align 8
  %d1029.i50 = getelementptr inbounds %struct.LotsOfLiveValues.0, ptr %liveValues_double, i32 0, i32 9
  %19 = load double, ptr %d1029.i50, align 8
  %add30.i51 = fadd double %18, %19
  store double %add30.i51, ptr %d11.i49, align 8
  %d1231.i52 = getelementptr inbounds %struct.LotsOfLiveValues.0, ptr %liveValues_double, i32 0, i32 11
  %20 = load double, ptr %liveValues_double, align 8
  %d1133.i53 = getelementptr inbounds %struct.LotsOfLiveValues.0, ptr %liveValues_double, i32 0, i32 10
  %21 = load double, ptr %d1133.i53, align 8
  %add34.i54 = fadd double %20, %21
  store double %add34.i54, ptr %d1231.i52, align 8
  %d1335.i55 = getelementptr inbounds %struct.LotsOfLiveValues.0, ptr %liveValues_double, i32 0, i32 12
  %22 = load double, ptr %liveValues_double, align 8
  %d1237.i56 = getelementptr inbounds %struct.LotsOfLiveValues.0, ptr %liveValues_double, i32 0, i32 11
  %23 = load double, ptr %d1237.i56, align 8
  %add38.i57 = fadd double %22, %23
  store double %add38.i57, ptr %d1335.i55, align 8
  %d1439.i58 = getelementptr inbounds %struct.LotsOfLiveValues.0, ptr %liveValues_double, i32 0, i32 13
  %24 = load double, ptr %liveValues_double, align 8
  %d1341.i59 = getelementptr inbounds %struct.LotsOfLiveValues.0, ptr %liveValues_double, i32 0, i32 12
  %25 = load double, ptr %d1341.i59, align 8
  %add42.i60 = fadd double %24, %25
  store double %add42.i60, ptr %d1439.i58, align 8
  %d15.i61 = getelementptr inbounds %struct.LotsOfLiveValues.0, ptr %liveValues_double, i32 0, i32 14
  %26 = load double, ptr %liveValues_double, align 8
  %d1444.i62 = getelementptr inbounds %struct.LotsOfLiveValues.0, ptr %liveValues_double, i32 0, i32 13
  %27 = load double, ptr %d1444.i62, align 8
  %add45.i63 = fadd double %26, %27
  store double %add45.i63, ptr %d15.i61, align 8
  %d16.i64 = getelementptr inbounds %struct.LotsOfLiveValues.0, ptr %liveValues_double, i32 0, i32 15
  %28 = load double, ptr %liveValues_double, align 8
  %d1547.i65 = getelementptr inbounds %struct.LotsOfLiveValues.0, ptr %liveValues_double, i32 0, i32 14
  %29 = load double, ptr %d1547.i65, align 8
  %add48.i66 = fadd double %28, %29
  store double %add48.i66, ptr %d16.i64, align 8
  %d1749.i67 = getelementptr inbounds %struct.LotsOfLiveValues.0, ptr %liveValues_double, i32 0, i32 16
  %30 = load double, ptr %liveValues_double, align 8
  %d1651.i68 = getelementptr inbounds %struct.LotsOfLiveValues.0, ptr %liveValues_double, i32 0, i32 15
  %31 = load double, ptr %d1651.i68, align 8
  %add52.i69 = fadd double %30, %31
  store double %add52.i69, ptr %d1749.i67, align 8
  %d18.i70 = getelementptr inbounds %struct.LotsOfLiveValues.0, ptr %liveValues_double, i32 0, i32 17
  %32 = load double, ptr %liveValues_double, align 8
  %d1754.i71 = getelementptr inbounds %struct.LotsOfLiveValues.0, ptr %liveValues_double, i32 0, i32 16
  %33 = load double, ptr %d1754.i71, align 8
  %add55.i72 = fadd double %32, %33
  store double %add55.i72, ptr %d18.i70, align 8
  %d19.i73 = getelementptr inbounds %struct.LotsOfLiveValues.0, ptr %liveValues_double, i32 0, i32 18
  %34 = load double, ptr %liveValues_double, align 8
  %d1857.i74 = getelementptr inbounds %struct.LotsOfLiveValues.0, ptr %liveValues_double, i32 0, i32 17
  %35 = load double, ptr %d1857.i74, align 8
  %add58.i75 = fadd double %34, %35
  store double %add58.i75, ptr %d19.i73, align 8
  %d20.i76 = getelementptr inbounds %struct.LotsOfLiveValues.0, ptr %liveValues_double, i32 0, i32 19
  %36 = load double, ptr %liveValues_double, align 8
  %d1960.i77 = getelementptr inbounds %struct.LotsOfLiveValues.0, ptr %liveValues_double, i32 0, i32 18
  %37 = load double, ptr %d1960.i77, align 8
  %add61.i78 = fadd double %36, %37
  store double %add61.i78, ptr %d20.i76, align 8
  %d21.i79 = getelementptr inbounds %struct.LotsOfLiveValues.0, ptr %liveValues_double, i32 0, i32 20
  %38 = load double, ptr %liveValues_double, align 8
  %d2063.i80 = getelementptr inbounds %struct.LotsOfLiveValues.0, ptr %liveValues_double, i32 0, i32 19
  %39 = load double, ptr %d2063.i80, align 8
  %add64.i81 = fadd double %38, %39
  store double %add64.i81, ptr %d21.i79, align 8
  %d22.i82 = getelementptr inbounds %struct.LotsOfLiveValues.0, ptr %liveValues_double, i32 0, i32 21
  %40 = load double, ptr %liveValues_double, align 8
  %d2166.i83 = getelementptr inbounds %struct.LotsOfLiveValues.0, ptr %liveValues_double, i32 0, i32 20
  %41 = load double, ptr %d2166.i83, align 8
  %add67.i84 = fadd double %40, %41
  store double %add67.i84, ptr %d22.i82, align 8
  %d23.i85 = getelementptr inbounds %struct.LotsOfLiveValues.0, ptr %liveValues_double, i32 0, i32 22
  %42 = load double, ptr %liveValues_double, align 8
  %d2269.i86 = getelementptr inbounds %struct.LotsOfLiveValues.0, ptr %liveValues_double, i32 0, i32 21
  %43 = load double, ptr %d2269.i86, align 8
  %add70.i87 = fadd double %42, %43
  store double %add70.i87, ptr %d23.i85, align 8
  %d24.i88 = getelementptr inbounds %struct.LotsOfLiveValues.0, ptr %liveValues_double, i32 0, i32 23
  %44 = load double, ptr %liveValues_double, align 8
  %d2372.i89 = getelementptr inbounds %struct.LotsOfLiveValues.0, ptr %liveValues_double, i32 0, i32 22
  %45 = load double, ptr %d2372.i89, align 8
  %add73.i90 = fadd double %44, %45
  store double %add73.i90, ptr %d24.i88, align 8
  %d2574.i91 = getelementptr inbounds %struct.LotsOfLiveValues.0, ptr %liveValues_double, i32 0, i32 24
  %46 = load double, ptr %liveValues_double, align 8
  %d2476.i92 = getelementptr inbounds %struct.LotsOfLiveValues.0, ptr %liveValues_double, i32 0, i32 23
  %47 = load double, ptr %d2476.i92, align 8
  %add77.i93 = fadd double %46, %47
  store double %add77.i93, ptr %d2574.i91, align 8
  %d26.i94 = getelementptr inbounds %struct.LotsOfLiveValues.0, ptr %liveValues_double, i32 0, i32 25
  %48 = load double, ptr %liveValues_double, align 8
  %d2579.i95 = getelementptr inbounds %struct.LotsOfLiveValues.0, ptr %liveValues_double, i32 0, i32 24
  %49 = load double, ptr %d2579.i95, align 8
  %add80.i96 = fadd double %48, %49
  store double %add80.i96, ptr %d26.i94, align 8
  %d27.i97 = getelementptr inbounds %struct.LotsOfLiveValues.0, ptr %liveValues_double, i32 0, i32 26
  %50 = load double, ptr %liveValues_double, align 8
  %d2682.i98 = getelementptr inbounds %struct.LotsOfLiveValues.0, ptr %liveValues_double, i32 0, i32 25
  %51 = load double, ptr %d2682.i98, align 8
  %add83.i99 = fadd double %50, %51
  store double %add83.i99, ptr %d27.i97, align 8
  %d28.i100 = getelementptr inbounds %struct.LotsOfLiveValues.0, ptr %liveValues_double, i32 0, i32 27
  %52 = load double, ptr %liveValues_double, align 8
  %d2785.i101 = getelementptr inbounds %struct.LotsOfLiveValues.0, ptr %liveValues_double, i32 0, i32 26
  %53 = load double, ptr %d2785.i101, align 8
  %add86.i102 = fadd double %52, %53
  store double %add86.i102, ptr %d28.i100, align 8
  %d29.i103 = getelementptr inbounds %struct.LotsOfLiveValues.0, ptr %liveValues_double, i32 0, i32 28
  %54 = load double, ptr %liveValues_double, align 8
  %d2888.i104 = getelementptr inbounds %struct.LotsOfLiveValues.0, ptr %liveValues_double, i32 0, i32 27
  %55 = load double, ptr %d2888.i104, align 8
  %add89.i105 = fadd double %54, %55
  store double %add89.i105, ptr %d29.i103, align 8
  %d30.i106 = getelementptr inbounds %struct.LotsOfLiveValues.0, ptr %liveValues_double, i32 0, i32 29
  %56 = load double, ptr %liveValues_double, align 8
  %d2991.i107 = getelementptr inbounds %struct.LotsOfLiveValues.0, ptr %liveValues_double, i32 0, i32 28
  %57 = load double, ptr %d2991.i107, align 8
  %add92.i108 = fadd double %56, %57
  store double %add92.i108, ptr %d30.i106, align 8
  %d31.i109 = getelementptr inbounds %struct.LotsOfLiveValues.0, ptr %liveValues_double, i32 0, i32 30
  %58 = load double, ptr %liveValues_double, align 8
  %d3094.i110 = getelementptr inbounds %struct.LotsOfLiveValues.0, ptr %liveValues_double, i32 0, i32 29
  %59 = load double, ptr %d3094.i110, align 8
  %add95.i111 = fadd double %58, %59
  store double %add95.i111, ptr %d31.i109, align 8
  %d32.i112 = getelementptr inbounds %struct.LotsOfLiveValues.0, ptr %liveValues_double, i32 0, i32 31
  %60 = load double, ptr %liveValues_double, align 8
  %d3197.i113 = getelementptr inbounds %struct.LotsOfLiveValues.0, ptr %liveValues_double, i32 0, i32 30
  %61 = load double, ptr %d3197.i113, align 8
  %add98.i114 = fadd double %60, %61
  store double %add98.i114, ptr %d32.i112, align 8
  %d33.i115 = getelementptr inbounds %struct.LotsOfLiveValues.0, ptr %liveValues_double, i32 0, i32 32
  %62 = load double, ptr %liveValues_double, align 8
  %d32100.i116 = getelementptr inbounds %struct.LotsOfLiveValues.0, ptr %liveValues_double, i32 0, i32 31
  %63 = load double, ptr %d32100.i116, align 8
  %add101.i117 = fadd double %62, %63
  store double %add101.i117, ptr %d33.i115, align 8
  %d34.i118 = getelementptr inbounds %struct.LotsOfLiveValues.0, ptr %liveValues_double, i32 0, i32 33
  %64 = load double, ptr %liveValues_double, align 8
  %d33103.i119 = getelementptr inbounds %struct.LotsOfLiveValues.0, ptr %liveValues_double, i32 0, i32 32
  %65 = load double, ptr %d33103.i119, align 8
  %add104.i120 = fadd double %64, %65
  store double %add104.i120, ptr %d34.i118, align 8
  %d35.i121 = getelementptr inbounds %struct.LotsOfLiveValues.0, ptr %liveValues_double, i32 0, i32 34
  %66 = load double, ptr %liveValues_double, align 8
  %d34106.i122 = getelementptr inbounds %struct.LotsOfLiveValues.0, ptr %liveValues_double, i32 0, i32 33
  %67 = load double, ptr %d34106.i122, align 8
  %add107.i123 = fadd double %66, %67
  store double %add107.i123, ptr %d35.i121, align 8
  %d36.i124 = getelementptr inbounds %struct.LotsOfLiveValues.0, ptr %liveValues_double, i32 0, i32 35
  %68 = load double, ptr %liveValues_double, align 8
  %d35109.i125 = getelementptr inbounds %struct.LotsOfLiveValues.0, ptr %liveValues_double, i32 0, i32 34
  %69 = load double, ptr %d35109.i125, align 8
  %add110.i126 = fadd double %68, %69
  store double %add110.i126, ptr %d36.i124, align 8
  %d37.i127 = getelementptr inbounds %struct.LotsOfLiveValues.0, ptr %liveValues_double, i32 0, i32 36
  %70 = load double, ptr %liveValues_double, align 8
  %d36112.i128 = getelementptr inbounds %struct.LotsOfLiveValues.0, ptr %liveValues_double, i32 0, i32 35
  %71 = load double, ptr %d36112.i128, align 8
  %add113.i129 = fadd double %70, %71
  store double %add113.i129, ptr %d37.i127, align 8
  %d38114.i130 = getelementptr inbounds %struct.LotsOfLiveValues.0, ptr %liveValues_double, i32 0, i32 37
  %72 = load double, ptr %liveValues_double, align 8
  %d37116.i131 = getelementptr inbounds %struct.LotsOfLiveValues.0, ptr %liveValues_double, i32 0, i32 36
  %73 = load double, ptr %d37116.i131, align 8
  %add117.i132 = fadd double %72, %73
  store double %add117.i132, ptr %d38114.i130, align 8
  %d39.i133 = getelementptr inbounds %struct.LotsOfLiveValues.0, ptr %liveValues_double, i32 0, i32 38
  %74 = load double, ptr %liveValues_double, align 8
  %d38119.i134 = getelementptr inbounds %struct.LotsOfLiveValues.0, ptr %liveValues_double, i32 0, i32 37
  %75 = load double, ptr %d38119.i134, align 8
  %add120.i135 = fadd double %74, %75
  store double %add120.i135, ptr %d39.i133, align 8
  br label %invoke.cont

invoke.cont:                                      ; preds = %entry
  store i32 %seed, ptr %liveValues_int, align 4
  %d2.i = getelementptr inbounds %struct.LotsOfLiveValues, ptr %liveValues_int, i32 0, i32 1
  %76 = load i32, ptr %liveValues_int, align 4
  %77 = load i32, ptr %liveValues_int, align 4
  %add.i = add nsw i32 %76, %77
  store i32 %add.i, ptr %d2.i, align 4
  %d3.i = getelementptr inbounds %struct.LotsOfLiveValues, ptr %liveValues_int, i32 0, i32 2
  %78 = load i32, ptr %liveValues_int, align 4
  %d25.i = getelementptr inbounds %struct.LotsOfLiveValues, ptr %liveValues_int, i32 0, i32 1
  %79 = load i32, ptr %d25.i, align 4
  %add6.i = add nsw i32 %78, %79
  store i32 %add6.i, ptr %d3.i, align 4
  %d4.i = getelementptr inbounds %struct.LotsOfLiveValues, ptr %liveValues_int, i32 0, i32 3
  %80 = load i32, ptr %liveValues_int, align 4
  %d38.i = getelementptr inbounds %struct.LotsOfLiveValues, ptr %liveValues_int, i32 0, i32 2
  %81 = load i32, ptr %d38.i, align 4
  %add9.i = add nsw i32 %80, %81
  store i32 %add9.i, ptr %d4.i, align 4
  %d5.i = getelementptr inbounds %struct.LotsOfLiveValues, ptr %liveValues_int, i32 0, i32 4
  %82 = load i32, ptr %liveValues_int, align 4
  %d411.i = getelementptr inbounds %struct.LotsOfLiveValues, ptr %liveValues_int, i32 0, i32 3
  %83 = load i32, ptr %d411.i, align 4
  %add12.i = add nsw i32 %82, %83
  store i32 %add12.i, ptr %d5.i, align 4
  %d6.i = getelementptr inbounds %struct.LotsOfLiveValues, ptr %liveValues_int, i32 0, i32 5
  %84 = load i32, ptr %liveValues_int, align 4
  %d514.i = getelementptr inbounds %struct.LotsOfLiveValues, ptr %liveValues_int, i32 0, i32 4
  %85 = load i32, ptr %d514.i, align 4
  %add15.i = add nsw i32 %84, %85
  store i32 %add15.i, ptr %d6.i, align 4
  %d7.i = getelementptr inbounds %struct.LotsOfLiveValues, ptr %liveValues_int, i32 0, i32 6
  %86 = load i32, ptr %liveValues_int, align 4
  %d617.i = getelementptr inbounds %struct.LotsOfLiveValues, ptr %liveValues_int, i32 0, i32 5
  %87 = load i32, ptr %d617.i, align 4
  %add18.i = add nsw i32 %86, %87
  store i32 %add18.i, ptr %d7.i, align 4
  %d8.i = getelementptr inbounds %struct.LotsOfLiveValues, ptr %liveValues_int, i32 0, i32 7
  %88 = load i32, ptr %liveValues_int, align 4
  %d720.i = getelementptr inbounds %struct.LotsOfLiveValues, ptr %liveValues_int, i32 0, i32 6
  %89 = load i32, ptr %d720.i, align 4
  %add21.i = add nsw i32 %88, %89
  store i32 %add21.i, ptr %d8.i, align 4
  %d9.i = getelementptr inbounds %struct.LotsOfLiveValues, ptr %liveValues_int, i32 0, i32 8
  %90 = load i32, ptr %liveValues_int, align 4
  %d823.i = getelementptr inbounds %struct.LotsOfLiveValues, ptr %liveValues_int, i32 0, i32 7
  %91 = load i32, ptr %d823.i, align 4
  %add24.i = add nsw i32 %90, %91
  store i32 %add24.i, ptr %d9.i, align 4
  %d10.i = getelementptr inbounds %struct.LotsOfLiveValues, ptr %liveValues_int, i32 0, i32 9
  %92 = load i32, ptr %liveValues_int, align 4
  %d926.i = getelementptr inbounds %struct.LotsOfLiveValues, ptr %liveValues_int, i32 0, i32 8
  %93 = load i32, ptr %d926.i, align 4
  %add27.i = add nsw i32 %92, %93
  store i32 %add27.i, ptr %d10.i, align 4
  %d11.i = getelementptr inbounds %struct.LotsOfLiveValues, ptr %liveValues_int, i32 0, i32 10
  %94 = load i32, ptr %liveValues_int, align 4
  %d1029.i = getelementptr inbounds %struct.LotsOfLiveValues, ptr %liveValues_int, i32 0, i32 9
  %95 = load i32, ptr %d1029.i, align 4
  %add30.i = add nsw i32 %94, %95
  store i32 %add30.i, ptr %d11.i, align 4
  %d1231.i = getelementptr inbounds %struct.LotsOfLiveValues, ptr %liveValues_int, i32 0, i32 11
  %96 = load i32, ptr %liveValues_int, align 4
  %d1133.i = getelementptr inbounds %struct.LotsOfLiveValues, ptr %liveValues_int, i32 0, i32 10
  %97 = load i32, ptr %d1133.i, align 4
  %add34.i = add nsw i32 %96, %97
  store i32 %add34.i, ptr %d1231.i, align 4
  %d1335.i = getelementptr inbounds %struct.LotsOfLiveValues, ptr %liveValues_int, i32 0, i32 12
  %98 = load i32, ptr %liveValues_int, align 4
  %d1237.i = getelementptr inbounds %struct.LotsOfLiveValues, ptr %liveValues_int, i32 0, i32 11
  %99 = load i32, ptr %d1237.i, align 4
  %add38.i = add nsw i32 %98, %99
  store i32 %add38.i, ptr %d1335.i, align 4
  %d1439.i = getelementptr inbounds %struct.LotsOfLiveValues, ptr %liveValues_int, i32 0, i32 13
  %100 = load i32, ptr %liveValues_int, align 4
  %d1341.i = getelementptr inbounds %struct.LotsOfLiveValues, ptr %liveValues_int, i32 0, i32 12
  %101 = load i32, ptr %d1341.i, align 4
  %add42.i = add nsw i32 %100, %101
  store i32 %add42.i, ptr %d1439.i, align 4
  %d15.i = getelementptr inbounds %struct.LotsOfLiveValues, ptr %liveValues_int, i32 0, i32 14
  %102 = load i32, ptr %liveValues_int, align 4
  %d1444.i = getelementptr inbounds %struct.LotsOfLiveValues, ptr %liveValues_int, i32 0, i32 13
  %103 = load i32, ptr %d1444.i, align 4
  %add45.i = add nsw i32 %102, %103
  store i32 %add45.i, ptr %d15.i, align 4
  %d16.i = getelementptr inbounds %struct.LotsOfLiveValues, ptr %liveValues_int, i32 0, i32 15
  %104 = load i32, ptr %liveValues_int, align 4
  %d1547.i = getelementptr inbounds %struct.LotsOfLiveValues, ptr %liveValues_int, i32 0, i32 14
  %105 = load i32, ptr %d1547.i, align 4
  %add48.i = add nsw i32 %104, %105
  store i32 %add48.i, ptr %d16.i, align 4
  %d1749.i = getelementptr inbounds %struct.LotsOfLiveValues, ptr %liveValues_int, i32 0, i32 16
  %106 = load i32, ptr %liveValues_int, align 4
  %d1651.i = getelementptr inbounds %struct.LotsOfLiveValues, ptr %liveValues_int, i32 0, i32 15
  %107 = load i32, ptr %d1651.i, align 4
  %add52.i = add nsw i32 %106, %107
  store i32 %add52.i, ptr %d1749.i, align 4
  %d18.i = getelementptr inbounds %struct.LotsOfLiveValues, ptr %liveValues_int, i32 0, i32 17
  %108 = load i32, ptr %liveValues_int, align 4
  %d1754.i = getelementptr inbounds %struct.LotsOfLiveValues, ptr %liveValues_int, i32 0, i32 16
  %109 = load i32, ptr %d1754.i, align 4
  %add55.i = add nsw i32 %108, %109
  store i32 %add55.i, ptr %d18.i, align 4
  %d19.i = getelementptr inbounds %struct.LotsOfLiveValues, ptr %liveValues_int, i32 0, i32 18
  %110 = load i32, ptr %liveValues_int, align 4
  %d1857.i = getelementptr inbounds %struct.LotsOfLiveValues, ptr %liveValues_int, i32 0, i32 17
  %111 = load i32, ptr %d1857.i, align 4
  %add58.i = add nsw i32 %110, %111
  store i32 %add58.i, ptr %d19.i, align 4
  %d20.i = getelementptr inbounds %struct.LotsOfLiveValues, ptr %liveValues_int, i32 0, i32 19
  %112 = load i32, ptr %liveValues_int, align 4
  %d1960.i = getelementptr inbounds %struct.LotsOfLiveValues, ptr %liveValues_int, i32 0, i32 18
  %113 = load i32, ptr %d1960.i, align 4
  %add61.i = add nsw i32 %112, %113
  store i32 %add61.i, ptr %d20.i, align 4
  %d21.i = getelementptr inbounds %struct.LotsOfLiveValues, ptr %liveValues_int, i32 0, i32 20
  %114 = load i32, ptr %liveValues_int, align 4
  %d2063.i = getelementptr inbounds %struct.LotsOfLiveValues, ptr %liveValues_int, i32 0, i32 19
  %115 = load i32, ptr %d2063.i, align 4
  %add64.i = add nsw i32 %114, %115
  store i32 %add64.i, ptr %d21.i, align 4
  %d22.i = getelementptr inbounds %struct.LotsOfLiveValues, ptr %liveValues_int, i32 0, i32 21
  %116 = load i32, ptr %liveValues_int, align 4
  %d2166.i = getelementptr inbounds %struct.LotsOfLiveValues, ptr %liveValues_int, i32 0, i32 20
  %117 = load i32, ptr %d2166.i, align 4
  %add67.i = add nsw i32 %116, %117
  store i32 %add67.i, ptr %d22.i, align 4
  %d23.i = getelementptr inbounds %struct.LotsOfLiveValues, ptr %liveValues_int, i32 0, i32 22
  %118 = load i32, ptr %liveValues_int, align 4
  %d2269.i = getelementptr inbounds %struct.LotsOfLiveValues, ptr %liveValues_int, i32 0, i32 21
  %119 = load i32, ptr %d2269.i, align 4
  %add70.i = add nsw i32 %118, %119
  store i32 %add70.i, ptr %d23.i, align 4
  %d24.i = getelementptr inbounds %struct.LotsOfLiveValues, ptr %liveValues_int, i32 0, i32 23
  %120 = load i32, ptr %liveValues_int, align 4
  %d2372.i = getelementptr inbounds %struct.LotsOfLiveValues, ptr %liveValues_int, i32 0, i32 22
  %121 = load i32, ptr %d2372.i, align 4
  %add73.i = add nsw i32 %120, %121
  store i32 %add73.i, ptr %d24.i, align 4
  %d2574.i = getelementptr inbounds %struct.LotsOfLiveValues, ptr %liveValues_int, i32 0, i32 24
  %122 = load i32, ptr %liveValues_int, align 4
  %d2476.i = getelementptr inbounds %struct.LotsOfLiveValues, ptr %liveValues_int, i32 0, i32 23
  %123 = load i32, ptr %d2476.i, align 4
  %add77.i = add nsw i32 %122, %123
  store i32 %add77.i, ptr %d2574.i, align 4
  %d26.i = getelementptr inbounds %struct.LotsOfLiveValues, ptr %liveValues_int, i32 0, i32 25
  %124 = load i32, ptr %liveValues_int, align 4
  %d2579.i = getelementptr inbounds %struct.LotsOfLiveValues, ptr %liveValues_int, i32 0, i32 24
  %125 = load i32, ptr %d2579.i, align 4
  %add80.i = add nsw i32 %124, %125
  store i32 %add80.i, ptr %d26.i, align 4
  %d27.i = getelementptr inbounds %struct.LotsOfLiveValues, ptr %liveValues_int, i32 0, i32 26
  %126 = load i32, ptr %liveValues_int, align 4
  %d2682.i = getelementptr inbounds %struct.LotsOfLiveValues, ptr %liveValues_int, i32 0, i32 25
  %127 = load i32, ptr %d2682.i, align 4
  %add83.i = add nsw i32 %126, %127
  store i32 %add83.i, ptr %d27.i, align 4
  %d28.i = getelementptr inbounds %struct.LotsOfLiveValues, ptr %liveValues_int, i32 0, i32 27
  %128 = load i32, ptr %liveValues_int, align 4
  %d2785.i = getelementptr inbounds %struct.LotsOfLiveValues, ptr %liveValues_int, i32 0, i32 26
  %129 = load i32, ptr %d2785.i, align 4
  %add86.i = add nsw i32 %128, %129
  store i32 %add86.i, ptr %d28.i, align 4
  %d29.i = getelementptr inbounds %struct.LotsOfLiveValues, ptr %liveValues_int, i32 0, i32 28
  %130 = load i32, ptr %liveValues_int, align 4
  %d2888.i = getelementptr inbounds %struct.LotsOfLiveValues, ptr %liveValues_int, i32 0, i32 27
  %131 = load i32, ptr %d2888.i, align 4
  %add89.i = add nsw i32 %130, %131
  store i32 %add89.i, ptr %d29.i, align 4
  %d30.i = getelementptr inbounds %struct.LotsOfLiveValues, ptr %liveValues_int, i32 0, i32 29
  %132 = load i32, ptr %liveValues_int, align 4
  %d2991.i = getelementptr inbounds %struct.LotsOfLiveValues, ptr %liveValues_int, i32 0, i32 28
  %133 = load i32, ptr %d2991.i, align 4
  %add92.i = add nsw i32 %132, %133
  store i32 %add92.i, ptr %d30.i, align 4
  %d31.i = getelementptr inbounds %struct.LotsOfLiveValues, ptr %liveValues_int, i32 0, i32 30
  %134 = load i32, ptr %liveValues_int, align 4
  %d3094.i = getelementptr inbounds %struct.LotsOfLiveValues, ptr %liveValues_int, i32 0, i32 29
  %135 = load i32, ptr %d3094.i, align 4
  %add95.i = add nsw i32 %134, %135
  store i32 %add95.i, ptr %d31.i, align 4
  %d32.i = getelementptr inbounds %struct.LotsOfLiveValues, ptr %liveValues_int, i32 0, i32 31
  %136 = load i32, ptr %liveValues_int, align 4
  %d3197.i = getelementptr inbounds %struct.LotsOfLiveValues, ptr %liveValues_int, i32 0, i32 30
  %137 = load i32, ptr %d3197.i, align 4
  %add98.i = add nsw i32 %136, %137
  store i32 %add98.i, ptr %d32.i, align 4
  %d33.i = getelementptr inbounds %struct.LotsOfLiveValues, ptr %liveValues_int, i32 0, i32 32
  %138 = load i32, ptr %liveValues_int, align 4
  %d32100.i = getelementptr inbounds %struct.LotsOfLiveValues, ptr %liveValues_int, i32 0, i32 31
  %139 = load i32, ptr %d32100.i, align 4
  %add101.i = add nsw i32 %138, %139
  store i32 %add101.i, ptr %d33.i, align 4
  %d34.i = getelementptr inbounds %struct.LotsOfLiveValues, ptr %liveValues_int, i32 0, i32 33
  %140 = load i32, ptr %liveValues_int, align 4
  %d33103.i = getelementptr inbounds %struct.LotsOfLiveValues, ptr %liveValues_int, i32 0, i32 32
  %141 = load i32, ptr %d33103.i, align 4
  %add104.i = add nsw i32 %140, %141
  store i32 %add104.i, ptr %d34.i, align 4
  %d35.i = getelementptr inbounds %struct.LotsOfLiveValues, ptr %liveValues_int, i32 0, i32 34
  %142 = load i32, ptr %liveValues_int, align 4
  %d34106.i = getelementptr inbounds %struct.LotsOfLiveValues, ptr %liveValues_int, i32 0, i32 33
  %143 = load i32, ptr %d34106.i, align 4
  %add107.i = add nsw i32 %142, %143
  store i32 %add107.i, ptr %d35.i, align 4
  %d36.i = getelementptr inbounds %struct.LotsOfLiveValues, ptr %liveValues_int, i32 0, i32 35
  %144 = load i32, ptr %liveValues_int, align 4
  %d35109.i = getelementptr inbounds %struct.LotsOfLiveValues, ptr %liveValues_int, i32 0, i32 34
  %145 = load i32, ptr %d35109.i, align 4
  %add110.i = add nsw i32 %144, %145
  store i32 %add110.i, ptr %d36.i, align 4
  %d37.i = getelementptr inbounds %struct.LotsOfLiveValues, ptr %liveValues_int, i32 0, i32 36
  %146 = load i32, ptr %liveValues_int, align 4
  %d36112.i = getelementptr inbounds %struct.LotsOfLiveValues, ptr %liveValues_int, i32 0, i32 35
  %147 = load i32, ptr %d36112.i, align 4
  %add113.i = add nsw i32 %146, %147
  store i32 %add113.i, ptr %d37.i, align 4
  %d38114.i = getelementptr inbounds %struct.LotsOfLiveValues, ptr %liveValues_int, i32 0, i32 37
  %148 = load i32, ptr %liveValues_int, align 4
  %d37116.i = getelementptr inbounds %struct.LotsOfLiveValues, ptr %liveValues_int, i32 0, i32 36
  %149 = load i32, ptr %d37116.i, align 4
  %add117.i = add nsw i32 %148, %149
  store i32 %add117.i, ptr %d38114.i, align 4
  %d39.i = getelementptr inbounds %struct.LotsOfLiveValues, ptr %liveValues_int, i32 0, i32 38
  %150 = load i32, ptr %liveValues_int, align 4
  %d38119.i = getelementptr inbounds %struct.LotsOfLiveValues, ptr %liveValues_int, i32 0, i32 37
  %151 = load i32, ptr %d38119.i, align 4
  %add120.i = add nsw i32 %150, %151
  store i32 %add120.i, ptr %d39.i, align 4
  br label %invoke.cont1

invoke.cont1:                                     ; preds = %invoke.cont
  %d39.i252 = getelementptr inbounds %struct.LotsOfLiveValues.0, ptr %liveValues_double, i32 0, i32 38
  %152 = load double, ptr %d39.i252, align 8
  %d38.i253 = getelementptr inbounds %struct.LotsOfLiveValues.0, ptr %liveValues_double, i32 0, i32 37
  %153 = load double, ptr %d38.i253, align 8
  %div.i254 = fdiv double %152, %153
  %d37.i255 = getelementptr inbounds %struct.LotsOfLiveValues.0, ptr %liveValues_double, i32 0, i32 36
  %154 = load double, ptr %d37.i255, align 8
  %div2.i256 = fdiv double %div.i254, %154
  %d36.i257 = getelementptr inbounds %struct.LotsOfLiveValues.0, ptr %liveValues_double, i32 0, i32 35
  %155 = load double, ptr %d36.i257, align 8
  %div3.i258 = fdiv double %div2.i256, %155
  %d35.i259 = getelementptr inbounds %struct.LotsOfLiveValues.0, ptr %liveValues_double, i32 0, i32 34
  %156 = load double, ptr %d35.i259, align 8
  %div4.i260 = fdiv double %div3.i258, %156
  %d34.i261 = getelementptr inbounds %struct.LotsOfLiveValues.0, ptr %liveValues_double, i32 0, i32 33
  %157 = load double, ptr %d34.i261, align 8
  %div5.i262 = fdiv double %div4.i260, %157
  %d33.i263 = getelementptr inbounds %struct.LotsOfLiveValues.0, ptr %liveValues_double, i32 0, i32 32
  %158 = load double, ptr %d33.i263, align 8
  %div6.i264 = fdiv double %div5.i262, %158
  %d32.i265 = getelementptr inbounds %struct.LotsOfLiveValues.0, ptr %liveValues_double, i32 0, i32 31
  %159 = load double, ptr %d32.i265, align 8
  %div7.i266 = fdiv double %div6.i264, %159
  %d31.i267 = getelementptr inbounds %struct.LotsOfLiveValues.0, ptr %liveValues_double, i32 0, i32 30
  %160 = load double, ptr %d31.i267, align 8
  %div8.i268 = fdiv double %div7.i266, %160
  %d30.i269 = getelementptr inbounds %struct.LotsOfLiveValues.0, ptr %liveValues_double, i32 0, i32 29
  %161 = load double, ptr %d30.i269, align 8
  %div9.i270 = fdiv double %div8.i268, %161
  %d29.i271 = getelementptr inbounds %struct.LotsOfLiveValues.0, ptr %liveValues_double, i32 0, i32 28
  %162 = load double, ptr %d29.i271, align 8
  %div10.i272 = fdiv double %div9.i270, %162
  %d28.i273 = getelementptr inbounds %struct.LotsOfLiveValues.0, ptr %liveValues_double, i32 0, i32 27
  %163 = load double, ptr %d28.i273, align 8
  %div11.i274 = fdiv double %div10.i272, %163
  %d27.i275 = getelementptr inbounds %struct.LotsOfLiveValues.0, ptr %liveValues_double, i32 0, i32 26
  %164 = load double, ptr %d27.i275, align 8
  %div12.i276 = fdiv double %div11.i274, %164
  %d26.i277 = getelementptr inbounds %struct.LotsOfLiveValues.0, ptr %liveValues_double, i32 0, i32 25
  %165 = load double, ptr %d26.i277, align 8
  %div13.i278 = fdiv double %div12.i276, %165
  %d25.i279 = getelementptr inbounds %struct.LotsOfLiveValues.0, ptr %liveValues_double, i32 0, i32 24
  %166 = load double, ptr %d25.i279, align 8
  %div14.i280 = fdiv double %div13.i278, %166
  %d24.i281 = getelementptr inbounds %struct.LotsOfLiveValues.0, ptr %liveValues_double, i32 0, i32 23
  %167 = load double, ptr %d24.i281, align 8
  %div15.i282 = fdiv double %div14.i280, %167
  %d23.i283 = getelementptr inbounds %struct.LotsOfLiveValues.0, ptr %liveValues_double, i32 0, i32 22
  %168 = load double, ptr %d23.i283, align 8
  %div16.i284 = fdiv double %div15.i282, %168
  %d22.i285 = getelementptr inbounds %struct.LotsOfLiveValues.0, ptr %liveValues_double, i32 0, i32 21
  %169 = load double, ptr %d22.i285, align 8
  %div17.i286 = fdiv double %div16.i284, %169
  %d21.i287 = getelementptr inbounds %struct.LotsOfLiveValues.0, ptr %liveValues_double, i32 0, i32 20
  %170 = load double, ptr %d21.i287, align 8
  %div18.i288 = fdiv double %div17.i286, %170
  %d20.i289 = getelementptr inbounds %struct.LotsOfLiveValues.0, ptr %liveValues_double, i32 0, i32 19
  %171 = load double, ptr %d20.i289, align 8
  %div19.i290 = fdiv double %div18.i288, %171
  %d19.i291 = getelementptr inbounds %struct.LotsOfLiveValues.0, ptr %liveValues_double, i32 0, i32 18
  %172 = load double, ptr %d19.i291, align 8
  %div20.i292 = fdiv double %div19.i290, %172
  %d18.i293 = getelementptr inbounds %struct.LotsOfLiveValues.0, ptr %liveValues_double, i32 0, i32 17
  %173 = load double, ptr %d18.i293, align 8
  %div21.i294 = fdiv double %div20.i292, %173
  %d17.i295 = getelementptr inbounds %struct.LotsOfLiveValues.0, ptr %liveValues_double, i32 0, i32 16
  %174 = load double, ptr %d17.i295, align 8
  %div22.i296 = fdiv double %div21.i294, %174
  %d16.i297 = getelementptr inbounds %struct.LotsOfLiveValues.0, ptr %liveValues_double, i32 0, i32 15
  %175 = load double, ptr %d16.i297, align 8
  %div23.i298 = fdiv double %div22.i296, %175
  %d15.i299 = getelementptr inbounds %struct.LotsOfLiveValues.0, ptr %liveValues_double, i32 0, i32 14
  %176 = load double, ptr %d15.i299, align 8
  %div24.i300 = fdiv double %div23.i298, %176
  %d14.i301 = getelementptr inbounds %struct.LotsOfLiveValues.0, ptr %liveValues_double, i32 0, i32 13
  %177 = load double, ptr %d14.i301, align 8
  %div25.i302 = fdiv double %div24.i300, %177
  %d13.i303 = getelementptr inbounds %struct.LotsOfLiveValues.0, ptr %liveValues_double, i32 0, i32 12
  %178 = load double, ptr %d13.i303, align 8
  %div26.i304 = fdiv double %div25.i302, %178
  %d12.i305 = getelementptr inbounds %struct.LotsOfLiveValues.0, ptr %liveValues_double, i32 0, i32 11
  %179 = load double, ptr %d12.i305, align 8
  %div27.i306 = fdiv double %div26.i304, %179
  %d11.i307 = getelementptr inbounds %struct.LotsOfLiveValues.0, ptr %liveValues_double, i32 0, i32 10
  %180 = load double, ptr %d11.i307, align 8
  %div28.i308 = fdiv double %div27.i306, %180
  %d10.i309 = getelementptr inbounds %struct.LotsOfLiveValues.0, ptr %liveValues_double, i32 0, i32 9
  %181 = load double, ptr %d10.i309, align 8
  %div29.i310 = fdiv double %div28.i308, %181
  %d9.i311 = getelementptr inbounds %struct.LotsOfLiveValues.0, ptr %liveValues_double, i32 0, i32 8
  %182 = load double, ptr %d9.i311, align 8
  %div30.i312 = fdiv double %div29.i310, %182
  %d8.i313 = getelementptr inbounds %struct.LotsOfLiveValues.0, ptr %liveValues_double, i32 0, i32 7
  %183 = load double, ptr %d8.i313, align 8
  %div31.i314 = fdiv double %div30.i312, %183
  %d7.i315 = getelementptr inbounds %struct.LotsOfLiveValues.0, ptr %liveValues_double, i32 0, i32 6
  %184 = load double, ptr %d7.i315, align 8
  %div32.i316 = fdiv double %div31.i314, %184
  %d6.i317 = getelementptr inbounds %struct.LotsOfLiveValues.0, ptr %liveValues_double, i32 0, i32 5
  %185 = load double, ptr %d6.i317, align 8
  %div33.i318 = fdiv double %div32.i316, %185
  %d5.i319 = getelementptr inbounds %struct.LotsOfLiveValues.0, ptr %liveValues_double, i32 0, i32 4
  %186 = load double, ptr %d5.i319, align 8
  %div34.i320 = fdiv double %div33.i318, %186
  %d4.i321 = getelementptr inbounds %struct.LotsOfLiveValues.0, ptr %liveValues_double, i32 0, i32 3
  %187 = load double, ptr %d4.i321, align 8
  %div35.i322 = fdiv double %div34.i320, %187
  %d3.i323 = getelementptr inbounds %struct.LotsOfLiveValues.0, ptr %liveValues_double, i32 0, i32 2
  %188 = load double, ptr %d3.i323, align 8
  %div36.i324 = fdiv double %div35.i322, %188
  %d2.i325 = getelementptr inbounds %struct.LotsOfLiveValues.0, ptr %liveValues_double, i32 0, i32 1
  %189 = load double, ptr %d2.i325, align 8
  %div37.i326 = fdiv double %div36.i324, %189
  %190 = load double, ptr %liveValues_double, align 8
  %div38.i327 = fdiv double %div37.i326, %190
  %d39.i138 = getelementptr inbounds %struct.LotsOfLiveValues, ptr %liveValues_int, i32 0, i32 38
  %191 = load i32, ptr %d39.i138, align 4
  %d38.i139 = getelementptr inbounds %struct.LotsOfLiveValues, ptr %liveValues_int, i32 0, i32 37
  %192 = load i32, ptr %d38.i139, align 4
  %div.i = sdiv i32 %191, %192
  %d37.i140 = getelementptr inbounds %struct.LotsOfLiveValues, ptr %liveValues_int, i32 0, i32 36
  %193 = load i32, ptr %d37.i140, align 4
  %div2.i = sdiv i32 %div.i, %193
  %d36.i141 = getelementptr inbounds %struct.LotsOfLiveValues, ptr %liveValues_int, i32 0, i32 35
  %194 = load i32, ptr %d36.i141, align 4
  %div3.i = sdiv i32 %div2.i, %194
  %d35.i142 = getelementptr inbounds %struct.LotsOfLiveValues, ptr %liveValues_int, i32 0, i32 34
  %195 = load i32, ptr %d35.i142, align 4
  %div4.i = sdiv i32 %div3.i, %195
  %d34.i143 = getelementptr inbounds %struct.LotsOfLiveValues, ptr %liveValues_int, i32 0, i32 33
  %196 = load i32, ptr %d34.i143, align 4
  %div5.i = sdiv i32 %div4.i, %196
  %d33.i144 = getelementptr inbounds %struct.LotsOfLiveValues, ptr %liveValues_int, i32 0, i32 32
  %197 = load i32, ptr %d33.i144, align 4
  %div6.i = sdiv i32 %div5.i, %197
  %d32.i145 = getelementptr inbounds %struct.LotsOfLiveValues, ptr %liveValues_int, i32 0, i32 31
  %198 = load i32, ptr %d32.i145, align 4
  %div7.i = sdiv i32 %div6.i, %198
  %d31.i146 = getelementptr inbounds %struct.LotsOfLiveValues, ptr %liveValues_int, i32 0, i32 30
  %199 = load i32, ptr %d31.i146, align 4
  %div8.i = sdiv i32 %div7.i, %199
  %d30.i147 = getelementptr inbounds %struct.LotsOfLiveValues, ptr %liveValues_int, i32 0, i32 29
  %200 = load i32, ptr %d30.i147, align 4
  %div9.i = sdiv i32 %div8.i, %200
  %d29.i148 = getelementptr inbounds %struct.LotsOfLiveValues, ptr %liveValues_int, i32 0, i32 28
  %201 = load i32, ptr %d29.i148, align 4
  %div10.i = sdiv i32 %div9.i, %201
  %d28.i149 = getelementptr inbounds %struct.LotsOfLiveValues, ptr %liveValues_int, i32 0, i32 27
  %202 = load i32, ptr %d28.i149, align 4
  %div11.i = sdiv i32 %div10.i, %202
  %d27.i150 = getelementptr inbounds %struct.LotsOfLiveValues, ptr %liveValues_int, i32 0, i32 26
  %203 = load i32, ptr %d27.i150, align 4
  %div12.i = sdiv i32 %div11.i, %203
  %d26.i151 = getelementptr inbounds %struct.LotsOfLiveValues, ptr %liveValues_int, i32 0, i32 25
  %204 = load i32, ptr %d26.i151, align 4
  %div13.i = sdiv i32 %div12.i, %204
  %d25.i152 = getelementptr inbounds %struct.LotsOfLiveValues, ptr %liveValues_int, i32 0, i32 24
  %205 = load i32, ptr %d25.i152, align 4
  %div14.i = sdiv i32 %div13.i, %205
  %d24.i153 = getelementptr inbounds %struct.LotsOfLiveValues, ptr %liveValues_int, i32 0, i32 23
  %206 = load i32, ptr %d24.i153, align 4
  %div15.i = sdiv i32 %div14.i, %206
  %d23.i154 = getelementptr inbounds %struct.LotsOfLiveValues, ptr %liveValues_int, i32 0, i32 22
  %207 = load i32, ptr %d23.i154, align 4
  %div16.i = sdiv i32 %div15.i, %207
  %d22.i155 = getelementptr inbounds %struct.LotsOfLiveValues, ptr %liveValues_int, i32 0, i32 21
  %208 = load i32, ptr %d22.i155, align 4
  %div17.i = sdiv i32 %div16.i, %208
  %d21.i156 = getelementptr inbounds %struct.LotsOfLiveValues, ptr %liveValues_int, i32 0, i32 20
  %209 = load i32, ptr %d21.i156, align 4
  %div18.i = sdiv i32 %div17.i, %209
  %d20.i157 = getelementptr inbounds %struct.LotsOfLiveValues, ptr %liveValues_int, i32 0, i32 19
  %210 = load i32, ptr %d20.i157, align 4
  %div19.i = sdiv i32 %div18.i, %210
  %d19.i158 = getelementptr inbounds %struct.LotsOfLiveValues, ptr %liveValues_int, i32 0, i32 18
  %211 = load i32, ptr %d19.i158, align 4
  %div20.i = sdiv i32 %div19.i, %211
  %d18.i159 = getelementptr inbounds %struct.LotsOfLiveValues, ptr %liveValues_int, i32 0, i32 17
  %212 = load i32, ptr %d18.i159, align 4
  %div21.i = sdiv i32 %div20.i, %212
  %d17.i = getelementptr inbounds %struct.LotsOfLiveValues, ptr %liveValues_int, i32 0, i32 16
  %213 = load i32, ptr %d17.i, align 4
  %div22.i = sdiv i32 %div21.i, %213
  %d16.i160 = getelementptr inbounds %struct.LotsOfLiveValues, ptr %liveValues_int, i32 0, i32 15
  %214 = load i32, ptr %d16.i160, align 4
  %div23.i = sdiv i32 %div22.i, %214
  %d15.i161 = getelementptr inbounds %struct.LotsOfLiveValues, ptr %liveValues_int, i32 0, i32 14
  %215 = load i32, ptr %d15.i161, align 4
  %div24.i = sdiv i32 %div23.i, %215
  %d14.i = getelementptr inbounds %struct.LotsOfLiveValues, ptr %liveValues_int, i32 0, i32 13
  %216 = load i32, ptr %d14.i, align 4
  %div25.i = sdiv i32 %div24.i, %216
  %d13.i = getelementptr inbounds %struct.LotsOfLiveValues, ptr %liveValues_int, i32 0, i32 12
  %217 = load i32, ptr %d13.i, align 4
  %div26.i = sdiv i32 %div25.i, %217
  %d12.i = getelementptr inbounds %struct.LotsOfLiveValues, ptr %liveValues_int, i32 0, i32 11
  %218 = load i32, ptr %d12.i, align 4
  %div27.i = sdiv i32 %div26.i, %218
  %d11.i162 = getelementptr inbounds %struct.LotsOfLiveValues, ptr %liveValues_int, i32 0, i32 10
  %219 = load i32, ptr %d11.i162, align 4
  %div28.i = sdiv i32 %div27.i, %219
  %d10.i163 = getelementptr inbounds %struct.LotsOfLiveValues, ptr %liveValues_int, i32 0, i32 9
  %220 = load i32, ptr %d10.i163, align 4
  %div29.i = sdiv i32 %div28.i, %220
  %d9.i164 = getelementptr inbounds %struct.LotsOfLiveValues, ptr %liveValues_int, i32 0, i32 8
  %221 = load i32, ptr %d9.i164, align 4
  %div30.i = sdiv i32 %div29.i, %221
  %d8.i165 = getelementptr inbounds %struct.LotsOfLiveValues, ptr %liveValues_int, i32 0, i32 7
  %222 = load i32, ptr %d8.i165, align 4
  %div31.i = sdiv i32 %div30.i, %222
  %d7.i166 = getelementptr inbounds %struct.LotsOfLiveValues, ptr %liveValues_int, i32 0, i32 6
  %223 = load i32, ptr %d7.i166, align 4
  %div32.i = sdiv i32 %div31.i, %223
  %d6.i167 = getelementptr inbounds %struct.LotsOfLiveValues, ptr %liveValues_int, i32 0, i32 5
  %224 = load i32, ptr %d6.i167, align 4
  %div33.i = sdiv i32 %div32.i, %224
  %d5.i168 = getelementptr inbounds %struct.LotsOfLiveValues, ptr %liveValues_int, i32 0, i32 4
  %225 = load i32, ptr %d5.i168, align 4
  %div34.i = sdiv i32 %div33.i, %225
  %d4.i169 = getelementptr inbounds %struct.LotsOfLiveValues, ptr %liveValues_int, i32 0, i32 3
  %226 = load i32, ptr %d4.i169, align 4
  %div35.i = sdiv i32 %div34.i, %226
  %d3.i170 = getelementptr inbounds %struct.LotsOfLiveValues, ptr %liveValues_int, i32 0, i32 2
  %227 = load i32, ptr %d3.i170, align 4
  %div36.i = sdiv i32 %div35.i, %227
  %d2.i171 = getelementptr inbounds %struct.LotsOfLiveValues, ptr %liveValues_int, i32 0, i32 1
  %228 = load i32, ptr %d2.i171, align 4
  %div37.i = sdiv i32 %div36.i, %228
  %229 = load i32, ptr %liveValues_int, align 4
  %div38.i = sdiv i32 %div37.i, %229
  %conv3 = sitofp i32 %div38.i to double
  %add = fadd double %div38.i327, %conv3
  %arraydecay = getelementptr inbounds [100 x %union.trace_element], ptr %trace, i64 0, i64 0
  invoke void @_Z10test_frameILj2ELb0ELj2048ELb0ELb0EJEEvDpT4_jPKcP13trace_elementd(i32 noundef 100, ptr noundef @.str.35, ptr noundef %arraydecay, double noundef %add)
          to label %invoke.cont5 unwind label %lpad4

invoke.cont5:                                     ; preds = %invoke.cont1
  %arrayidx = getelementptr inbounds [100 x %union.trace_element], ptr %trace, i64 0, i64 0
  %230 = load double, ptr %arrayidx, align 16
  %231 = load double, ptr %liveValues_double, align 8
  %d2.i331 = getelementptr inbounds %struct.LotsOfLiveValues.0, ptr %liveValues_double, i32 0, i32 1
  %232 = load double, ptr %d2.i331, align 8
  %div.i332 = fdiv double %231, %232
  %d3.i333 = getelementptr inbounds %struct.LotsOfLiveValues.0, ptr %liveValues_double, i32 0, i32 2
  %233 = load double, ptr %d3.i333, align 8
  %div2.i334 = fdiv double %div.i332, %233
  %d4.i335 = getelementptr inbounds %struct.LotsOfLiveValues.0, ptr %liveValues_double, i32 0, i32 3
  %234 = load double, ptr %d4.i335, align 8
  %div3.i336 = fdiv double %div2.i334, %234
  %d5.i337 = getelementptr inbounds %struct.LotsOfLiveValues.0, ptr %liveValues_double, i32 0, i32 4
  %235 = load double, ptr %d5.i337, align 8
  %div4.i338 = fdiv double %div3.i336, %235
  %d6.i339 = getelementptr inbounds %struct.LotsOfLiveValues.0, ptr %liveValues_double, i32 0, i32 5
  %236 = load double, ptr %d6.i339, align 8
  %div5.i340 = fdiv double %div4.i338, %236
  %d7.i341 = getelementptr inbounds %struct.LotsOfLiveValues.0, ptr %liveValues_double, i32 0, i32 6
  %237 = load double, ptr %d7.i341, align 8
  %div6.i342 = fdiv double %div5.i340, %237
  %d8.i343 = getelementptr inbounds %struct.LotsOfLiveValues.0, ptr %liveValues_double, i32 0, i32 7
  %238 = load double, ptr %d8.i343, align 8
  %div7.i344 = fdiv double %div6.i342, %238
  %d9.i345 = getelementptr inbounds %struct.LotsOfLiveValues.0, ptr %liveValues_double, i32 0, i32 8
  %239 = load double, ptr %d9.i345, align 8
  %div8.i346 = fdiv double %div7.i344, %239
  %d10.i347 = getelementptr inbounds %struct.LotsOfLiveValues.0, ptr %liveValues_double, i32 0, i32 9
  %240 = load double, ptr %d10.i347, align 8
  %div9.i348 = fdiv double %div8.i346, %240
  %d11.i349 = getelementptr inbounds %struct.LotsOfLiveValues.0, ptr %liveValues_double, i32 0, i32 10
  %241 = load double, ptr %d11.i349, align 8
  %div10.i350 = fdiv double %div9.i348, %241
  %d12.i351 = getelementptr inbounds %struct.LotsOfLiveValues.0, ptr %liveValues_double, i32 0, i32 11
  %242 = load double, ptr %d12.i351, align 8
  %div11.i352 = fdiv double %div10.i350, %242
  %d13.i353 = getelementptr inbounds %struct.LotsOfLiveValues.0, ptr %liveValues_double, i32 0, i32 12
  %243 = load double, ptr %d13.i353, align 8
  %div12.i354 = fdiv double %div11.i352, %243
  %d14.i355 = getelementptr inbounds %struct.LotsOfLiveValues.0, ptr %liveValues_double, i32 0, i32 13
  %244 = load double, ptr %d14.i355, align 8
  %div13.i356 = fdiv double %div12.i354, %244
  %d15.i357 = getelementptr inbounds %struct.LotsOfLiveValues.0, ptr %liveValues_double, i32 0, i32 14
  %245 = load double, ptr %d15.i357, align 8
  %div14.i358 = fdiv double %div13.i356, %245
  %d16.i359 = getelementptr inbounds %struct.LotsOfLiveValues.0, ptr %liveValues_double, i32 0, i32 15
  %246 = load double, ptr %d16.i359, align 8
  %div15.i360 = fdiv double %div14.i358, %246
  %d17.i361 = getelementptr inbounds %struct.LotsOfLiveValues.0, ptr %liveValues_double, i32 0, i32 16
  %247 = load double, ptr %d17.i361, align 8
  %div16.i362 = fdiv double %div15.i360, %247
  %d18.i363 = getelementptr inbounds %struct.LotsOfLiveValues.0, ptr %liveValues_double, i32 0, i32 17
  %248 = load double, ptr %d18.i363, align 8
  %div17.i364 = fdiv double %div16.i362, %248
  %d19.i365 = getelementptr inbounds %struct.LotsOfLiveValues.0, ptr %liveValues_double, i32 0, i32 18
  %249 = load double, ptr %d19.i365, align 8
  %div18.i366 = fdiv double %div17.i364, %249
  %d20.i367 = getelementptr inbounds %struct.LotsOfLiveValues.0, ptr %liveValues_double, i32 0, i32 19
  %250 = load double, ptr %d20.i367, align 8
  %div19.i368 = fdiv double %div18.i366, %250
  %d21.i369 = getelementptr inbounds %struct.LotsOfLiveValues.0, ptr %liveValues_double, i32 0, i32 20
  %251 = load double, ptr %d21.i369, align 8
  %div20.i370 = fdiv double %div19.i368, %251
  %d22.i371 = getelementptr inbounds %struct.LotsOfLiveValues.0, ptr %liveValues_double, i32 0, i32 21
  %252 = load double, ptr %d22.i371, align 8
  %div21.i372 = fdiv double %div20.i370, %252
  %d23.i373 = getelementptr inbounds %struct.LotsOfLiveValues.0, ptr %liveValues_double, i32 0, i32 22
  %253 = load double, ptr %d23.i373, align 8
  %div22.i374 = fdiv double %div21.i372, %253
  %d24.i375 = getelementptr inbounds %struct.LotsOfLiveValues.0, ptr %liveValues_double, i32 0, i32 23
  %254 = load double, ptr %d24.i375, align 8
  %div23.i376 = fdiv double %div22.i374, %254
  %d25.i377 = getelementptr inbounds %struct.LotsOfLiveValues.0, ptr %liveValues_double, i32 0, i32 24
  %255 = load double, ptr %d25.i377, align 8
  %div24.i378 = fdiv double %div23.i376, %255
  %d26.i379 = getelementptr inbounds %struct.LotsOfLiveValues.0, ptr %liveValues_double, i32 0, i32 25
  %256 = load double, ptr %d26.i379, align 8
  %div25.i380 = fdiv double %div24.i378, %256
  %d27.i381 = getelementptr inbounds %struct.LotsOfLiveValues.0, ptr %liveValues_double, i32 0, i32 26
  %257 = load double, ptr %d27.i381, align 8
  %div26.i382 = fdiv double %div25.i380, %257
  %d28.i383 = getelementptr inbounds %struct.LotsOfLiveValues.0, ptr %liveValues_double, i32 0, i32 27
  %258 = load double, ptr %d28.i383, align 8
  %div27.i384 = fdiv double %div26.i382, %258
  %d29.i385 = getelementptr inbounds %struct.LotsOfLiveValues.0, ptr %liveValues_double, i32 0, i32 28
  %259 = load double, ptr %d29.i385, align 8
  %div28.i386 = fdiv double %div27.i384, %259
  %d30.i387 = getelementptr inbounds %struct.LotsOfLiveValues.0, ptr %liveValues_double, i32 0, i32 29
  %260 = load double, ptr %d30.i387, align 8
  %div29.i388 = fdiv double %div28.i386, %260
  %d31.i389 = getelementptr inbounds %struct.LotsOfLiveValues.0, ptr %liveValues_double, i32 0, i32 30
  %261 = load double, ptr %d31.i389, align 8
  %div30.i390 = fdiv double %div29.i388, %261
  %d32.i391 = getelementptr inbounds %struct.LotsOfLiveValues.0, ptr %liveValues_double, i32 0, i32 31
  %262 = load double, ptr %d32.i391, align 8
  %div31.i392 = fdiv double %div30.i390, %262
  %d33.i393 = getelementptr inbounds %struct.LotsOfLiveValues.0, ptr %liveValues_double, i32 0, i32 32
  %263 = load double, ptr %d33.i393, align 8
  %div32.i394 = fdiv double %div31.i392, %263
  %d34.i395 = getelementptr inbounds %struct.LotsOfLiveValues.0, ptr %liveValues_double, i32 0, i32 33
  %264 = load double, ptr %d34.i395, align 8
  %div33.i396 = fdiv double %div32.i394, %264
  %d35.i397 = getelementptr inbounds %struct.LotsOfLiveValues.0, ptr %liveValues_double, i32 0, i32 34
  %265 = load double, ptr %d35.i397, align 8
  %div34.i398 = fdiv double %div33.i396, %265
  %d36.i399 = getelementptr inbounds %struct.LotsOfLiveValues.0, ptr %liveValues_double, i32 0, i32 35
  %266 = load double, ptr %d36.i399, align 8
  %div35.i400 = fdiv double %div34.i398, %266
  %d37.i401 = getelementptr inbounds %struct.LotsOfLiveValues.0, ptr %liveValues_double, i32 0, i32 36
  %267 = load double, ptr %d37.i401, align 8
  %div36.i402 = fdiv double %div35.i400, %267
  %d38.i403 = getelementptr inbounds %struct.LotsOfLiveValues.0, ptr %liveValues_double, i32 0, i32 37
  %268 = load double, ptr %d38.i403, align 8
  %div37.i404 = fdiv double %div36.i402, %268
  %d39.i405 = getelementptr inbounds %struct.LotsOfLiveValues.0, ptr %liveValues_double, i32 0, i32 38
  %269 = load double, ptr %d39.i405, align 8
  %div38.i406 = fdiv double %div37.i404, %269
  %div39.i407 = fdiv double %div38.i406, %230
  %arrayidx7 = getelementptr inbounds [100 x %union.trace_element], ptr %trace, i64 0, i64 0
  %270 = load i32, ptr %arrayidx7, align 16
  %271 = load i32, ptr %liveValues_int, align 4
  %d2.i174 = getelementptr inbounds %struct.LotsOfLiveValues, ptr %liveValues_int, i32 0, i32 1
  %272 = load i32, ptr %d2.i174, align 4
  %div.i175 = sdiv i32 %271, %272
  %d3.i176 = getelementptr inbounds %struct.LotsOfLiveValues, ptr %liveValues_int, i32 0, i32 2
  %273 = load i32, ptr %d3.i176, align 4
  %div2.i177 = sdiv i32 %div.i175, %273
  %d4.i178 = getelementptr inbounds %struct.LotsOfLiveValues, ptr %liveValues_int, i32 0, i32 3
  %274 = load i32, ptr %d4.i178, align 4
  %div3.i179 = sdiv i32 %div2.i177, %274
  %d5.i180 = getelementptr inbounds %struct.LotsOfLiveValues, ptr %liveValues_int, i32 0, i32 4
  %275 = load i32, ptr %d5.i180, align 4
  %div4.i181 = sdiv i32 %div3.i179, %275
  %d6.i182 = getelementptr inbounds %struct.LotsOfLiveValues, ptr %liveValues_int, i32 0, i32 5
  %276 = load i32, ptr %d6.i182, align 4
  %div5.i183 = sdiv i32 %div4.i181, %276
  %d7.i184 = getelementptr inbounds %struct.LotsOfLiveValues, ptr %liveValues_int, i32 0, i32 6
  %277 = load i32, ptr %d7.i184, align 4
  %div6.i185 = sdiv i32 %div5.i183, %277
  %d8.i186 = getelementptr inbounds %struct.LotsOfLiveValues, ptr %liveValues_int, i32 0, i32 7
  %278 = load i32, ptr %d8.i186, align 4
  %div7.i187 = sdiv i32 %div6.i185, %278
  %d9.i188 = getelementptr inbounds %struct.LotsOfLiveValues, ptr %liveValues_int, i32 0, i32 8
  %279 = load i32, ptr %d9.i188, align 4
  %div8.i189 = sdiv i32 %div7.i187, %279
  %d10.i190 = getelementptr inbounds %struct.LotsOfLiveValues, ptr %liveValues_int, i32 0, i32 9
  %280 = load i32, ptr %d10.i190, align 4
  %div9.i191 = sdiv i32 %div8.i189, %280
  %d11.i192 = getelementptr inbounds %struct.LotsOfLiveValues, ptr %liveValues_int, i32 0, i32 10
  %281 = load i32, ptr %d11.i192, align 4
  %div10.i193 = sdiv i32 %div9.i191, %281
  %d12.i194 = getelementptr inbounds %struct.LotsOfLiveValues, ptr %liveValues_int, i32 0, i32 11
  %282 = load i32, ptr %d12.i194, align 4
  %div11.i195 = sdiv i32 %div10.i193, %282
  %d13.i196 = getelementptr inbounds %struct.LotsOfLiveValues, ptr %liveValues_int, i32 0, i32 12
  %283 = load i32, ptr %d13.i196, align 4
  %div12.i197 = sdiv i32 %div11.i195, %283
  %d14.i198 = getelementptr inbounds %struct.LotsOfLiveValues, ptr %liveValues_int, i32 0, i32 13
  %284 = load i32, ptr %d14.i198, align 4
  %div13.i199 = sdiv i32 %div12.i197, %284
  %d15.i200 = getelementptr inbounds %struct.LotsOfLiveValues, ptr %liveValues_int, i32 0, i32 14
  %285 = load i32, ptr %d15.i200, align 4
  %div14.i201 = sdiv i32 %div13.i199, %285
  %d16.i202 = getelementptr inbounds %struct.LotsOfLiveValues, ptr %liveValues_int, i32 0, i32 15
  %286 = load i32, ptr %d16.i202, align 4
  %div15.i203 = sdiv i32 %div14.i201, %286
  %d17.i204 = getelementptr inbounds %struct.LotsOfLiveValues, ptr %liveValues_int, i32 0, i32 16
  %287 = load i32, ptr %d17.i204, align 4
  %div16.i205 = sdiv i32 %div15.i203, %287
  %d18.i206 = getelementptr inbounds %struct.LotsOfLiveValues, ptr %liveValues_int, i32 0, i32 17
  %288 = load i32, ptr %d18.i206, align 4
  %div17.i207 = sdiv i32 %div16.i205, %288
  %d19.i208 = getelementptr inbounds %struct.LotsOfLiveValues, ptr %liveValues_int, i32 0, i32 18
  %289 = load i32, ptr %d19.i208, align 4
  %div18.i209 = sdiv i32 %div17.i207, %289
  %d20.i210 = getelementptr inbounds %struct.LotsOfLiveValues, ptr %liveValues_int, i32 0, i32 19
  %290 = load i32, ptr %d20.i210, align 4
  %div19.i211 = sdiv i32 %div18.i209, %290
  %d21.i212 = getelementptr inbounds %struct.LotsOfLiveValues, ptr %liveValues_int, i32 0, i32 20
  %291 = load i32, ptr %d21.i212, align 4
  %div20.i213 = sdiv i32 %div19.i211, %291
  %d22.i214 = getelementptr inbounds %struct.LotsOfLiveValues, ptr %liveValues_int, i32 0, i32 21
  %292 = load i32, ptr %d22.i214, align 4
  %div21.i215 = sdiv i32 %div20.i213, %292
  %d23.i216 = getelementptr inbounds %struct.LotsOfLiveValues, ptr %liveValues_int, i32 0, i32 22
  %293 = load i32, ptr %d23.i216, align 4
  %div22.i217 = sdiv i32 %div21.i215, %293
  %d24.i218 = getelementptr inbounds %struct.LotsOfLiveValues, ptr %liveValues_int, i32 0, i32 23
  %294 = load i32, ptr %d24.i218, align 4
  %div23.i219 = sdiv i32 %div22.i217, %294
  %d25.i220 = getelementptr inbounds %struct.LotsOfLiveValues, ptr %liveValues_int, i32 0, i32 24
  %295 = load i32, ptr %d25.i220, align 4
  %div24.i221 = sdiv i32 %div23.i219, %295
  %d26.i222 = getelementptr inbounds %struct.LotsOfLiveValues, ptr %liveValues_int, i32 0, i32 25
  %296 = load i32, ptr %d26.i222, align 4
  %div25.i223 = sdiv i32 %div24.i221, %296
  %d27.i224 = getelementptr inbounds %struct.LotsOfLiveValues, ptr %liveValues_int, i32 0, i32 26
  %297 = load i32, ptr %d27.i224, align 4
  %div26.i225 = sdiv i32 %div25.i223, %297
  %d28.i226 = getelementptr inbounds %struct.LotsOfLiveValues, ptr %liveValues_int, i32 0, i32 27
  %298 = load i32, ptr %d28.i226, align 4
  %div27.i227 = sdiv i32 %div26.i225, %298
  %d29.i228 = getelementptr inbounds %struct.LotsOfLiveValues, ptr %liveValues_int, i32 0, i32 28
  %299 = load i32, ptr %d29.i228, align 4
  %div28.i229 = sdiv i32 %div27.i227, %299
  %d30.i230 = getelementptr inbounds %struct.LotsOfLiveValues, ptr %liveValues_int, i32 0, i32 29
  %300 = load i32, ptr %d30.i230, align 4
  %div29.i231 = sdiv i32 %div28.i229, %300
  %d31.i232 = getelementptr inbounds %struct.LotsOfLiveValues, ptr %liveValues_int, i32 0, i32 30
  %301 = load i32, ptr %d31.i232, align 4
  %div30.i233 = sdiv i32 %div29.i231, %301
  %d32.i234 = getelementptr inbounds %struct.LotsOfLiveValues, ptr %liveValues_int, i32 0, i32 31
  %302 = load i32, ptr %d32.i234, align 4
  %div31.i235 = sdiv i32 %div30.i233, %302
  %d33.i236 = getelementptr inbounds %struct.LotsOfLiveValues, ptr %liveValues_int, i32 0, i32 32
  %303 = load i32, ptr %d33.i236, align 4
  %div32.i237 = sdiv i32 %div31.i235, %303
  %d34.i238 = getelementptr inbounds %struct.LotsOfLiveValues, ptr %liveValues_int, i32 0, i32 33
  %304 = load i32, ptr %d34.i238, align 4
  %div33.i239 = sdiv i32 %div32.i237, %304
  %d35.i240 = getelementptr inbounds %struct.LotsOfLiveValues, ptr %liveValues_int, i32 0, i32 34
  %305 = load i32, ptr %d35.i240, align 4
  %div34.i241 = sdiv i32 %div33.i239, %305
  %d36.i242 = getelementptr inbounds %struct.LotsOfLiveValues, ptr %liveValues_int, i32 0, i32 35
  %306 = load i32, ptr %d36.i242, align 4
  %div35.i243 = sdiv i32 %div34.i241, %306
  %d37.i244 = getelementptr inbounds %struct.LotsOfLiveValues, ptr %liveValues_int, i32 0, i32 36
  %307 = load i32, ptr %d37.i244, align 4
  %div36.i245 = sdiv i32 %div35.i243, %307
  %d38.i246 = getelementptr inbounds %struct.LotsOfLiveValues, ptr %liveValues_int, i32 0, i32 37
  %308 = load i32, ptr %d38.i246, align 4
  %div37.i247 = sdiv i32 %div36.i245, %308
  %d39.i248 = getelementptr inbounds %struct.LotsOfLiveValues, ptr %liveValues_int, i32 0, i32 38
  %309 = load i32, ptr %d39.i248, align 4
  %div38.i249 = sdiv i32 %div37.i247, %309
  %div39.i = sdiv i32 %div38.i249, %270
  %conv9 = sitofp i32 %div39.i to double
  %add10 = fadd double %div39.i407, %conv9
  %conv11 = fptosi double %add10 to i32
  %310 = load volatile i32, ptr %dumping_ground, align 4
  %add12 = add nsw i32 %310, %conv11
  store volatile i32 %add12, ptr %dumping_ground, align 4
  br label %try.cont

lpad:                                             ; preds = %try.cont
  %311 = landingpad { ptr, i32 }
          cleanup
  %312 = extractvalue { ptr, i32 } %311, 0
  %313 = extractvalue { ptr, i32 } %311, 1
  br label %ehcleanup

lpad4:                                            ; preds = %invoke.cont1
  %314 = landingpad { ptr, i32 }
          cleanup
          catch ptr @_ZTIi
  %315 = extractvalue { ptr, i32 } %314, 0
  %316 = extractvalue { ptr, i32 } %314, 1
  br label %catch.dispatch

catch.dispatch:                                   ; preds = %lpad4
  %317 = call i32 @llvm.eh.typeid.for(ptr @_ZTIi) #4
  %matches = icmp eq i32 %316, %317
  br i1 %matches, label %catch, label %ehcleanup

catch:                                            ; preds = %catch.dispatch
  %318 = call ptr @__cxa_begin_catch(ptr %315) #4
  %319 = load i32, ptr %318, align 4
  call void @__cxa_end_catch() #4
  br label %try.cont

try.cont:                                         ; preds = %catch, %invoke.cont5
  %exception_value.0 = phi i32 [ -1, %invoke.cont5 ], [ %319, %catch ]
  %call13 = call noundef ptr @_ZNKSt7__cxx1112basic_stringIcSt11char_traitsIcESaIcEE5c_strEv(ptr noundef nonnull align 8 dereferenceable(32) %test_description) #4
  %arraydecay14 = getelementptr inbounds [100 x %union.trace_element], ptr %trace, i64 0, i64 0
  %call16 = invoke noundef zeroext i1 @_Z11check_tracePKcS0_PK13trace_elementdjbjjbbi(ptr noundef %call13, ptr noundef @.str.35, ptr noundef %arraydecay14, double noundef %add, i32 noundef 2, i1 noundef zeroext false, i32 noundef 100, i32 noundef 2048, i1 noundef zeroext false, i1 noundef zeroext false, i32 noundef %exception_value.0)
          to label %invoke.cont15 unwind label %lpad

invoke.cont15:                                    ; preds = %try.cont
  call void @_ZNSt7__cxx1112basic_stringIcSt11char_traitsIcESaIcEED1Ev(ptr noundef nonnull align 8 dereferenceable(32) %test_description) #4
  ret i1 %call16

ehcleanup:                                        ; preds = %catch.dispatch, %lpad
  %exn.slot.0 = phi ptr [ %312, %lpad ], [ %315, %catch.dispatch ]
  %ehselector.slot.0 = phi i32 [ %313, %lpad ], [ %316, %catch.dispatch ]
  call void @_ZNSt7__cxx1112basic_stringIcSt11char_traitsIcESaIcEED1Ev(ptr noundef nonnull align 8 dereferenceable(32) %test_description) #4
  br label %eh.resume

eh.resume:                                        ; preds = %ehcleanup
  %lpad.val = insertvalue { ptr, i32 } poison, ptr %exn.slot.0, 0
  %lpad.val19 = insertvalue { ptr, i32 } %lpad.val, i32 %ehselector.slot.0, 1
  resume { ptr, i32 } %lpad.val19
}

; Function Attrs: noinline uwtable
define linkonce_odr dso_local noundef zeroext i1 @_Z19check_frame_variantILb1ELb1ELb0ELb0ELb0EEbiRVi(i32 noundef %seed, ptr noundef nonnull align 4 dereferenceable(4) %dumping_ground) #0 comdat personality ptr @__gxx_personality_v0 {
entry:
  %trace = alloca [100 x %union.trace_element], align 16
  %test_description = alloca %"class.std::__cxx11::basic_string", align 8
  %liveValues_double = alloca %struct.LotsOfLiveValues.0, align 8
  %liveValues_int = alloca %struct.LotsOfLiveValues, align 4
  call void @_Z24getTestDescriptionStringB5cxx11bbbbb(ptr sret(%"class.std::__cxx11::basic_string") align 8 %test_description, i1 noundef zeroext true, i1 noundef zeroext true, i1 noundef zeroext false, i1 noundef zeroext false, i1 noundef zeroext false)
